
prog.o:     file format elf32-i386


Disassembly of section .text:

00010000 <_start>:
   10000:	fa                   	cli    
   10001:	b0 00                	mov    $0x0,%al
   10003:	e6 70                	out    %al,$0x70
   10005:	31 c0                	xor    %eax,%eax
   10007:	66 b8 18 00          	mov    $0x18,%ax
   1000b:	8e d8                	mov    %eax,%ds
   1000d:	8e c0                	mov    %eax,%es
   1000f:	8e e0                	mov    %eax,%fs
   10011:	8e e8                	mov    %eax,%gs
   10013:	66 b8 20 00          	mov    $0x20,%ax
   10017:	8e d0                	mov    %eax,%ss
   10019:	bd 00 00 01 00       	mov    $0x10000,%ebp
   1001e:	89 ec                	mov    %ebp,%esp
   10020:	bf 1d a5 01 00       	mov    $0x1a51d,%edi

00010025 <clearbss>:
   10025:	c7 07 00 00 00 00    	movl   $0x0,(%edi)
   1002b:	83 c7 04             	add    $0x4,%edi
   1002e:	81 ff 04 c7 01 00    	cmp    $0x1c704,%edi
   10034:	72 ef                	jb     10025 <clearbss>
   10036:	e8 50 1d 00 00       	call   11d8b <_init>
   1003b:	e9 2c 00 00 00       	jmp    1006c <__isr_restore>

00010040 <isr_save>:
   10040:	60                   	pusha  
   10041:	1e                   	push   %ds
   10042:	06                   	push   %es
   10043:	0f a0                	push   %fs
   10045:	0f a8                	push   %gs
   10047:	16                   	push   %ss
   10048:	8b 44 24 34          	mov    0x34(%esp),%eax
   1004c:	8b 5c 24 38          	mov    0x38(%esp),%ebx
   10050:	8b 15 d4 be 01 00    	mov    0x1bed4,%edx
   10056:	89 22                	mov    %esp,(%edx)
   10058:	8b 25 20 be 01 00    	mov    0x1be20,%esp
   1005e:	53                   	push   %ebx
   1005f:	50                   	push   %eax
   10060:	8b 1c 85 e0 b6 01 00 	mov    0x1b6e0(,%eax,4),%ebx
   10067:	ff d3                	call   *%ebx
   10069:	83 c4 08             	add    $0x8,%esp

0001006c <__isr_restore>:
   1006c:	8b 1d d4 be 01 00    	mov    0x1bed4,%ebx
   10072:	8b 23                	mov    (%ebx),%esp
   10074:	31 c0                	xor    %eax,%eax
   10076:	66 8b 43 12          	mov    0x12(%ebx),%ax
   1007a:	50                   	push   %eax
   1007b:	66 8b 43 10          	mov    0x10(%ebx),%ax
   1007f:	50                   	push   %eax
   10080:	a1 e4 ba 01 00       	mov    0x1bae4,%eax
   10085:	50                   	push   %eax
   10086:	68 a3 00 01 00       	push   $0x100a3
   1008b:	6a 01                	push   $0x1
   1008d:	6a 00                	push   $0x0
   1008f:	e8 fc 14 00 00       	call   11590 <__cio_printf_at>
   10094:	83 c4 18             	add    $0x18,%esp
   10097:	17                   	pop    %ss
   10098:	0f a9                	pop    %gs
   1009a:	0f a1                	pop    %fs
   1009c:	07                   	pop    %es
   1009d:	1f                   	pop    %ds
   1009e:	61                   	popa   
   1009f:	83 c4 08             	add    $0x8,%esp
   100a2:	cf                   	iret   

000100a3 <fmtall>:
   100a3:	74 69                	je     1010e <fmt+0x50>
   100a5:	6d                   	insl   (%dx),%es:(%edi)
   100a6:	65 20 25 30 38 78 20 	and    %ah,%gs:0x20783830
   100ad:	70 69                	jo     10118 <fmt+0x5a>
   100af:	64 20 25 35 64 20 70 	and    %ah,%fs:0x70206435
   100b6:	70 69                	jo     10121 <fmt+0x63>
   100b8:	64                   	fs
   100b9:	20                   	.byte 0x20
   100ba:	25                   	.byte 0x25
   100bb:	35                   	.byte 0x35
   100bc:	64                   	fs
   100bd:	0a                   	.byte 0xa

000100be <fmt>:
   100be:	20 73 73             	and    %dh,0x73(%ebx)
   100c1:	3d 25 30 38 78       	cmp    $0x78383025,%eax
   100c6:	20 20                	and    %ah,(%eax)
   100c8:	67 73 3d             	addr16 jae 10108 <fmt+0x4a>
   100cb:	25 30 38 78 20       	and    $0x20783830,%eax
   100d0:	20 66 73             	and    %ah,0x73(%esi)
   100d3:	3d 25 30 38 78       	cmp    $0x78383025,%eax
   100d8:	20 20                	and    %ah,(%eax)
   100da:	65 73 3d             	gs jae 1011a <fmt+0x5c>
   100dd:	25 30 38 78 20       	and    $0x20783830,%eax
   100e2:	20 64 73 3d          	and    %ah,0x3d(%ebx,%esi,2)
   100e6:	25 30 38 78 0a       	and    $0xa783830,%eax
   100eb:	65 64 69 3d 25 30 38 	gs imul $0x69736520,%fs:0x78383025,%edi
   100f2:	78 20 65 73 69 
   100f7:	3d 25 30 38 78       	cmp    $0x78383025,%eax
   100fc:	20 65 62             	and    %ah,0x62(%ebp)
   100ff:	70 3d                	jo     1013e <fmt+0x80>
   10101:	25 30 38 78 20       	and    $0x20783830,%eax
   10106:	65 73 70             	gs jae 10179 <__isr_0x02+0x6>
   10109:	3d 25 30 38 78       	cmp    $0x78383025,%eax
   1010e:	20 65 62             	and    %ah,0x62(%ebp)
   10111:	78 3d                	js     10150 <fmt+0x92>
   10113:	25 30 38 78 0a       	and    $0xa783830,%eax
   10118:	65 64 78 3d          	gs fs js 10159 <fmt+0x9b>
   1011c:	25 30 38 78 20       	and    $0x20783830,%eax
   10121:	65 63 78 3d          	arpl   %di,%gs:0x3d(%eax)
   10125:	25 30 38 78 20       	and    $0x20783830,%eax
   1012a:	65 61                	gs popa 
   1012c:	78 3d                	js     1016b <__isr_0x01+0x1>
   1012e:	25 30 38 78 20       	and    $0x20783830,%eax
   10133:	76 65                	jbe    1019a <__isr_0x06+0x3>
   10135:	63 3d 25 30 38 78    	arpl   %di,0x78383025
   1013b:	20 63 6f             	and    %ah,0x6f(%ebx)
   1013e:	64 3d 25 30 38 78    	fs cmp $0x78383025,%eax
   10144:	0a 65 69             	or     0x69(%ebp),%ah
   10147:	70 3d                	jo     10186 <__isr_0x04+0x1>
   10149:	25 30 38 78 20       	and    $0x20783830,%eax
   1014e:	20 63 73             	and    %ah,0x73(%ebx)
   10151:	3d 25 30 38 78       	cmp    $0x78383025,%eax
   10156:	20 65 66             	and    %ah,0x66(%ebp)
   10159:	6c                   	insb   (%dx),%es:(%edi)
   1015a:	3d 25 30 38 78       	cmp    $0x78383025,%eax
   1015f:	0a 00                	or     (%eax),%al

00010161 <__isr_0x00>:
   10161:	6a 00                	push   $0x0
   10163:	6a 00                	push   $0x0
   10165:	e9 d6 fe ff ff       	jmp    10040 <isr_save>

0001016a <__isr_0x01>:
   1016a:	6a 00                	push   $0x0
   1016c:	6a 01                	push   $0x1
   1016e:	e9 cd fe ff ff       	jmp    10040 <isr_save>

00010173 <__isr_0x02>:
   10173:	6a 00                	push   $0x0
   10175:	6a 02                	push   $0x2
   10177:	e9 c4 fe ff ff       	jmp    10040 <isr_save>

0001017c <__isr_0x03>:
   1017c:	6a 00                	push   $0x0
   1017e:	6a 03                	push   $0x3
   10180:	e9 bb fe ff ff       	jmp    10040 <isr_save>

00010185 <__isr_0x04>:
   10185:	6a 00                	push   $0x0
   10187:	6a 04                	push   $0x4
   10189:	e9 b2 fe ff ff       	jmp    10040 <isr_save>

0001018e <__isr_0x05>:
   1018e:	6a 00                	push   $0x0
   10190:	6a 05                	push   $0x5
   10192:	e9 a9 fe ff ff       	jmp    10040 <isr_save>

00010197 <__isr_0x06>:
   10197:	6a 00                	push   $0x0
   10199:	6a 06                	push   $0x6
   1019b:	e9 a0 fe ff ff       	jmp    10040 <isr_save>

000101a0 <__isr_0x07>:
   101a0:	6a 00                	push   $0x0
   101a2:	6a 07                	push   $0x7
   101a4:	e9 97 fe ff ff       	jmp    10040 <isr_save>

000101a9 <__isr_0x08>:
   101a9:	6a 08                	push   $0x8
   101ab:	e9 90 fe ff ff       	jmp    10040 <isr_save>

000101b0 <__isr_0x09>:
   101b0:	6a 00                	push   $0x0
   101b2:	6a 09                	push   $0x9
   101b4:	e9 87 fe ff ff       	jmp    10040 <isr_save>

000101b9 <__isr_0x0a>:
   101b9:	6a 0a                	push   $0xa
   101bb:	e9 80 fe ff ff       	jmp    10040 <isr_save>

000101c0 <__isr_0x0b>:
   101c0:	6a 0b                	push   $0xb
   101c2:	e9 79 fe ff ff       	jmp    10040 <isr_save>

000101c7 <__isr_0x0c>:
   101c7:	6a 0c                	push   $0xc
   101c9:	e9 72 fe ff ff       	jmp    10040 <isr_save>

000101ce <__isr_0x0d>:
   101ce:	6a 0d                	push   $0xd
   101d0:	e9 6b fe ff ff       	jmp    10040 <isr_save>

000101d5 <__isr_0x0e>:
   101d5:	6a 0e                	push   $0xe
   101d7:	e9 64 fe ff ff       	jmp    10040 <isr_save>

000101dc <__isr_0x0f>:
   101dc:	6a 00                	push   $0x0
   101de:	6a 0f                	push   $0xf
   101e0:	e9 5b fe ff ff       	jmp    10040 <isr_save>

000101e5 <__isr_0x10>:
   101e5:	6a 00                	push   $0x0
   101e7:	6a 10                	push   $0x10
   101e9:	e9 52 fe ff ff       	jmp    10040 <isr_save>

000101ee <__isr_0x11>:
   101ee:	6a 11                	push   $0x11
   101f0:	e9 4b fe ff ff       	jmp    10040 <isr_save>

000101f5 <__isr_0x12>:
   101f5:	6a 00                	push   $0x0
   101f7:	6a 12                	push   $0x12
   101f9:	e9 42 fe ff ff       	jmp    10040 <isr_save>

000101fe <__isr_0x13>:
   101fe:	6a 00                	push   $0x0
   10200:	6a 13                	push   $0x13
   10202:	e9 39 fe ff ff       	jmp    10040 <isr_save>

00010207 <__isr_0x14>:
   10207:	6a 00                	push   $0x0
   10209:	6a 14                	push   $0x14
   1020b:	e9 30 fe ff ff       	jmp    10040 <isr_save>

00010210 <__isr_0x15>:
   10210:	6a 00                	push   $0x0
   10212:	6a 15                	push   $0x15
   10214:	e9 27 fe ff ff       	jmp    10040 <isr_save>

00010219 <__isr_0x16>:
   10219:	6a 00                	push   $0x0
   1021b:	6a 16                	push   $0x16
   1021d:	e9 1e fe ff ff       	jmp    10040 <isr_save>

00010222 <__isr_0x17>:
   10222:	6a 00                	push   $0x0
   10224:	6a 17                	push   $0x17
   10226:	e9 15 fe ff ff       	jmp    10040 <isr_save>

0001022b <__isr_0x18>:
   1022b:	6a 00                	push   $0x0
   1022d:	6a 18                	push   $0x18
   1022f:	e9 0c fe ff ff       	jmp    10040 <isr_save>

00010234 <__isr_0x19>:
   10234:	6a 00                	push   $0x0
   10236:	6a 19                	push   $0x19
   10238:	e9 03 fe ff ff       	jmp    10040 <isr_save>

0001023d <__isr_0x1a>:
   1023d:	6a 00                	push   $0x0
   1023f:	6a 1a                	push   $0x1a
   10241:	e9 fa fd ff ff       	jmp    10040 <isr_save>

00010246 <__isr_0x1b>:
   10246:	6a 00                	push   $0x0
   10248:	6a 1b                	push   $0x1b
   1024a:	e9 f1 fd ff ff       	jmp    10040 <isr_save>

0001024f <__isr_0x1c>:
   1024f:	6a 00                	push   $0x0
   10251:	6a 1c                	push   $0x1c
   10253:	e9 e8 fd ff ff       	jmp    10040 <isr_save>

00010258 <__isr_0x1d>:
   10258:	6a 00                	push   $0x0
   1025a:	6a 1d                	push   $0x1d
   1025c:	e9 df fd ff ff       	jmp    10040 <isr_save>

00010261 <__isr_0x1e>:
   10261:	6a 00                	push   $0x0
   10263:	6a 1e                	push   $0x1e
   10265:	e9 d6 fd ff ff       	jmp    10040 <isr_save>

0001026a <__isr_0x1f>:
   1026a:	6a 00                	push   $0x0
   1026c:	6a 1f                	push   $0x1f
   1026e:	e9 cd fd ff ff       	jmp    10040 <isr_save>

00010273 <__isr_0x20>:
   10273:	6a 00                	push   $0x0
   10275:	6a 20                	push   $0x20
   10277:	e9 c4 fd ff ff       	jmp    10040 <isr_save>

0001027c <__isr_0x21>:
   1027c:	6a 00                	push   $0x0
   1027e:	6a 21                	push   $0x21
   10280:	e9 bb fd ff ff       	jmp    10040 <isr_save>

00010285 <__isr_0x22>:
   10285:	6a 00                	push   $0x0
   10287:	6a 22                	push   $0x22
   10289:	e9 b2 fd ff ff       	jmp    10040 <isr_save>

0001028e <__isr_0x23>:
   1028e:	6a 00                	push   $0x0
   10290:	6a 23                	push   $0x23
   10292:	e9 a9 fd ff ff       	jmp    10040 <isr_save>

00010297 <__isr_0x24>:
   10297:	6a 00                	push   $0x0
   10299:	6a 24                	push   $0x24
   1029b:	e9 a0 fd ff ff       	jmp    10040 <isr_save>

000102a0 <__isr_0x25>:
   102a0:	6a 00                	push   $0x0
   102a2:	6a 25                	push   $0x25
   102a4:	e9 97 fd ff ff       	jmp    10040 <isr_save>

000102a9 <__isr_0x26>:
   102a9:	6a 00                	push   $0x0
   102ab:	6a 26                	push   $0x26
   102ad:	e9 8e fd ff ff       	jmp    10040 <isr_save>

000102b2 <__isr_0x27>:
   102b2:	6a 00                	push   $0x0
   102b4:	6a 27                	push   $0x27
   102b6:	e9 85 fd ff ff       	jmp    10040 <isr_save>

000102bb <__isr_0x28>:
   102bb:	6a 00                	push   $0x0
   102bd:	6a 28                	push   $0x28
   102bf:	e9 7c fd ff ff       	jmp    10040 <isr_save>

000102c4 <__isr_0x29>:
   102c4:	6a 00                	push   $0x0
   102c6:	6a 29                	push   $0x29
   102c8:	e9 73 fd ff ff       	jmp    10040 <isr_save>

000102cd <__isr_0x2a>:
   102cd:	6a 00                	push   $0x0
   102cf:	6a 2a                	push   $0x2a
   102d1:	e9 6a fd ff ff       	jmp    10040 <isr_save>

000102d6 <__isr_0x2b>:
   102d6:	6a 00                	push   $0x0
   102d8:	6a 2b                	push   $0x2b
   102da:	e9 61 fd ff ff       	jmp    10040 <isr_save>

000102df <__isr_0x2c>:
   102df:	6a 00                	push   $0x0
   102e1:	6a 2c                	push   $0x2c
   102e3:	e9 58 fd ff ff       	jmp    10040 <isr_save>

000102e8 <__isr_0x2d>:
   102e8:	6a 00                	push   $0x0
   102ea:	6a 2d                	push   $0x2d
   102ec:	e9 4f fd ff ff       	jmp    10040 <isr_save>

000102f1 <__isr_0x2e>:
   102f1:	6a 00                	push   $0x0
   102f3:	6a 2e                	push   $0x2e
   102f5:	e9 46 fd ff ff       	jmp    10040 <isr_save>

000102fa <__isr_0x2f>:
   102fa:	6a 00                	push   $0x0
   102fc:	6a 2f                	push   $0x2f
   102fe:	e9 3d fd ff ff       	jmp    10040 <isr_save>

00010303 <__isr_0x30>:
   10303:	6a 00                	push   $0x0
   10305:	6a 30                	push   $0x30
   10307:	e9 34 fd ff ff       	jmp    10040 <isr_save>

0001030c <__isr_0x31>:
   1030c:	6a 00                	push   $0x0
   1030e:	6a 31                	push   $0x31
   10310:	e9 2b fd ff ff       	jmp    10040 <isr_save>

00010315 <__isr_0x32>:
   10315:	6a 00                	push   $0x0
   10317:	6a 32                	push   $0x32
   10319:	e9 22 fd ff ff       	jmp    10040 <isr_save>

0001031e <__isr_0x33>:
   1031e:	6a 00                	push   $0x0
   10320:	6a 33                	push   $0x33
   10322:	e9 19 fd ff ff       	jmp    10040 <isr_save>

00010327 <__isr_0x34>:
   10327:	6a 00                	push   $0x0
   10329:	6a 34                	push   $0x34
   1032b:	e9 10 fd ff ff       	jmp    10040 <isr_save>

00010330 <__isr_0x35>:
   10330:	6a 00                	push   $0x0
   10332:	6a 35                	push   $0x35
   10334:	e9 07 fd ff ff       	jmp    10040 <isr_save>

00010339 <__isr_0x36>:
   10339:	6a 00                	push   $0x0
   1033b:	6a 36                	push   $0x36
   1033d:	e9 fe fc ff ff       	jmp    10040 <isr_save>

00010342 <__isr_0x37>:
   10342:	6a 00                	push   $0x0
   10344:	6a 37                	push   $0x37
   10346:	e9 f5 fc ff ff       	jmp    10040 <isr_save>

0001034b <__isr_0x38>:
   1034b:	6a 00                	push   $0x0
   1034d:	6a 38                	push   $0x38
   1034f:	e9 ec fc ff ff       	jmp    10040 <isr_save>

00010354 <__isr_0x39>:
   10354:	6a 00                	push   $0x0
   10356:	6a 39                	push   $0x39
   10358:	e9 e3 fc ff ff       	jmp    10040 <isr_save>

0001035d <__isr_0x3a>:
   1035d:	6a 00                	push   $0x0
   1035f:	6a 3a                	push   $0x3a
   10361:	e9 da fc ff ff       	jmp    10040 <isr_save>

00010366 <__isr_0x3b>:
   10366:	6a 00                	push   $0x0
   10368:	6a 3b                	push   $0x3b
   1036a:	e9 d1 fc ff ff       	jmp    10040 <isr_save>

0001036f <__isr_0x3c>:
   1036f:	6a 00                	push   $0x0
   10371:	6a 3c                	push   $0x3c
   10373:	e9 c8 fc ff ff       	jmp    10040 <isr_save>

00010378 <__isr_0x3d>:
   10378:	6a 00                	push   $0x0
   1037a:	6a 3d                	push   $0x3d
   1037c:	e9 bf fc ff ff       	jmp    10040 <isr_save>

00010381 <__isr_0x3e>:
   10381:	6a 00                	push   $0x0
   10383:	6a 3e                	push   $0x3e
   10385:	e9 b6 fc ff ff       	jmp    10040 <isr_save>

0001038a <__isr_0x3f>:
   1038a:	6a 00                	push   $0x0
   1038c:	6a 3f                	push   $0x3f
   1038e:	e9 ad fc ff ff       	jmp    10040 <isr_save>

00010393 <__isr_0x40>:
   10393:	6a 00                	push   $0x0
   10395:	6a 40                	push   $0x40
   10397:	e9 a4 fc ff ff       	jmp    10040 <isr_save>

0001039c <__isr_0x41>:
   1039c:	6a 00                	push   $0x0
   1039e:	6a 41                	push   $0x41
   103a0:	e9 9b fc ff ff       	jmp    10040 <isr_save>

000103a5 <__isr_0x42>:
   103a5:	6a 00                	push   $0x0
   103a7:	6a 42                	push   $0x42
   103a9:	e9 92 fc ff ff       	jmp    10040 <isr_save>

000103ae <__isr_0x43>:
   103ae:	6a 00                	push   $0x0
   103b0:	6a 43                	push   $0x43
   103b2:	e9 89 fc ff ff       	jmp    10040 <isr_save>

000103b7 <__isr_0x44>:
   103b7:	6a 00                	push   $0x0
   103b9:	6a 44                	push   $0x44
   103bb:	e9 80 fc ff ff       	jmp    10040 <isr_save>

000103c0 <__isr_0x45>:
   103c0:	6a 00                	push   $0x0
   103c2:	6a 45                	push   $0x45
   103c4:	e9 77 fc ff ff       	jmp    10040 <isr_save>

000103c9 <__isr_0x46>:
   103c9:	6a 00                	push   $0x0
   103cb:	6a 46                	push   $0x46
   103cd:	e9 6e fc ff ff       	jmp    10040 <isr_save>

000103d2 <__isr_0x47>:
   103d2:	6a 00                	push   $0x0
   103d4:	6a 47                	push   $0x47
   103d6:	e9 65 fc ff ff       	jmp    10040 <isr_save>

000103db <__isr_0x48>:
   103db:	6a 00                	push   $0x0
   103dd:	6a 48                	push   $0x48
   103df:	e9 5c fc ff ff       	jmp    10040 <isr_save>

000103e4 <__isr_0x49>:
   103e4:	6a 00                	push   $0x0
   103e6:	6a 49                	push   $0x49
   103e8:	e9 53 fc ff ff       	jmp    10040 <isr_save>

000103ed <__isr_0x4a>:
   103ed:	6a 00                	push   $0x0
   103ef:	6a 4a                	push   $0x4a
   103f1:	e9 4a fc ff ff       	jmp    10040 <isr_save>

000103f6 <__isr_0x4b>:
   103f6:	6a 00                	push   $0x0
   103f8:	6a 4b                	push   $0x4b
   103fa:	e9 41 fc ff ff       	jmp    10040 <isr_save>

000103ff <__isr_0x4c>:
   103ff:	6a 00                	push   $0x0
   10401:	6a 4c                	push   $0x4c
   10403:	e9 38 fc ff ff       	jmp    10040 <isr_save>

00010408 <__isr_0x4d>:
   10408:	6a 00                	push   $0x0
   1040a:	6a 4d                	push   $0x4d
   1040c:	e9 2f fc ff ff       	jmp    10040 <isr_save>

00010411 <__isr_0x4e>:
   10411:	6a 00                	push   $0x0
   10413:	6a 4e                	push   $0x4e
   10415:	e9 26 fc ff ff       	jmp    10040 <isr_save>

0001041a <__isr_0x4f>:
   1041a:	6a 00                	push   $0x0
   1041c:	6a 4f                	push   $0x4f
   1041e:	e9 1d fc ff ff       	jmp    10040 <isr_save>

00010423 <__isr_0x50>:
   10423:	6a 00                	push   $0x0
   10425:	6a 50                	push   $0x50
   10427:	e9 14 fc ff ff       	jmp    10040 <isr_save>

0001042c <__isr_0x51>:
   1042c:	6a 00                	push   $0x0
   1042e:	6a 51                	push   $0x51
   10430:	e9 0b fc ff ff       	jmp    10040 <isr_save>

00010435 <__isr_0x52>:
   10435:	6a 00                	push   $0x0
   10437:	6a 52                	push   $0x52
   10439:	e9 02 fc ff ff       	jmp    10040 <isr_save>

0001043e <__isr_0x53>:
   1043e:	6a 00                	push   $0x0
   10440:	6a 53                	push   $0x53
   10442:	e9 f9 fb ff ff       	jmp    10040 <isr_save>

00010447 <__isr_0x54>:
   10447:	6a 00                	push   $0x0
   10449:	6a 54                	push   $0x54
   1044b:	e9 f0 fb ff ff       	jmp    10040 <isr_save>

00010450 <__isr_0x55>:
   10450:	6a 00                	push   $0x0
   10452:	6a 55                	push   $0x55
   10454:	e9 e7 fb ff ff       	jmp    10040 <isr_save>

00010459 <__isr_0x56>:
   10459:	6a 00                	push   $0x0
   1045b:	6a 56                	push   $0x56
   1045d:	e9 de fb ff ff       	jmp    10040 <isr_save>

00010462 <__isr_0x57>:
   10462:	6a 00                	push   $0x0
   10464:	6a 57                	push   $0x57
   10466:	e9 d5 fb ff ff       	jmp    10040 <isr_save>

0001046b <__isr_0x58>:
   1046b:	6a 00                	push   $0x0
   1046d:	6a 58                	push   $0x58
   1046f:	e9 cc fb ff ff       	jmp    10040 <isr_save>

00010474 <__isr_0x59>:
   10474:	6a 00                	push   $0x0
   10476:	6a 59                	push   $0x59
   10478:	e9 c3 fb ff ff       	jmp    10040 <isr_save>

0001047d <__isr_0x5a>:
   1047d:	6a 00                	push   $0x0
   1047f:	6a 5a                	push   $0x5a
   10481:	e9 ba fb ff ff       	jmp    10040 <isr_save>

00010486 <__isr_0x5b>:
   10486:	6a 00                	push   $0x0
   10488:	6a 5b                	push   $0x5b
   1048a:	e9 b1 fb ff ff       	jmp    10040 <isr_save>

0001048f <__isr_0x5c>:
   1048f:	6a 00                	push   $0x0
   10491:	6a 5c                	push   $0x5c
   10493:	e9 a8 fb ff ff       	jmp    10040 <isr_save>

00010498 <__isr_0x5d>:
   10498:	6a 00                	push   $0x0
   1049a:	6a 5d                	push   $0x5d
   1049c:	e9 9f fb ff ff       	jmp    10040 <isr_save>

000104a1 <__isr_0x5e>:
   104a1:	6a 00                	push   $0x0
   104a3:	6a 5e                	push   $0x5e
   104a5:	e9 96 fb ff ff       	jmp    10040 <isr_save>

000104aa <__isr_0x5f>:
   104aa:	6a 00                	push   $0x0
   104ac:	6a 5f                	push   $0x5f
   104ae:	e9 8d fb ff ff       	jmp    10040 <isr_save>

000104b3 <__isr_0x60>:
   104b3:	6a 00                	push   $0x0
   104b5:	6a 60                	push   $0x60
   104b7:	e9 84 fb ff ff       	jmp    10040 <isr_save>

000104bc <__isr_0x61>:
   104bc:	6a 00                	push   $0x0
   104be:	6a 61                	push   $0x61
   104c0:	e9 7b fb ff ff       	jmp    10040 <isr_save>

000104c5 <__isr_0x62>:
   104c5:	6a 00                	push   $0x0
   104c7:	6a 62                	push   $0x62
   104c9:	e9 72 fb ff ff       	jmp    10040 <isr_save>

000104ce <__isr_0x63>:
   104ce:	6a 00                	push   $0x0
   104d0:	6a 63                	push   $0x63
   104d2:	e9 69 fb ff ff       	jmp    10040 <isr_save>

000104d7 <__isr_0x64>:
   104d7:	6a 00                	push   $0x0
   104d9:	6a 64                	push   $0x64
   104db:	e9 60 fb ff ff       	jmp    10040 <isr_save>

000104e0 <__isr_0x65>:
   104e0:	6a 00                	push   $0x0
   104e2:	6a 65                	push   $0x65
   104e4:	e9 57 fb ff ff       	jmp    10040 <isr_save>

000104e9 <__isr_0x66>:
   104e9:	6a 00                	push   $0x0
   104eb:	6a 66                	push   $0x66
   104ed:	e9 4e fb ff ff       	jmp    10040 <isr_save>

000104f2 <__isr_0x67>:
   104f2:	6a 00                	push   $0x0
   104f4:	6a 67                	push   $0x67
   104f6:	e9 45 fb ff ff       	jmp    10040 <isr_save>

000104fb <__isr_0x68>:
   104fb:	6a 00                	push   $0x0
   104fd:	6a 68                	push   $0x68
   104ff:	e9 3c fb ff ff       	jmp    10040 <isr_save>

00010504 <__isr_0x69>:
   10504:	6a 00                	push   $0x0
   10506:	6a 69                	push   $0x69
   10508:	e9 33 fb ff ff       	jmp    10040 <isr_save>

0001050d <__isr_0x6a>:
   1050d:	6a 00                	push   $0x0
   1050f:	6a 6a                	push   $0x6a
   10511:	e9 2a fb ff ff       	jmp    10040 <isr_save>

00010516 <__isr_0x6b>:
   10516:	6a 00                	push   $0x0
   10518:	6a 6b                	push   $0x6b
   1051a:	e9 21 fb ff ff       	jmp    10040 <isr_save>

0001051f <__isr_0x6c>:
   1051f:	6a 00                	push   $0x0
   10521:	6a 6c                	push   $0x6c
   10523:	e9 18 fb ff ff       	jmp    10040 <isr_save>

00010528 <__isr_0x6d>:
   10528:	6a 00                	push   $0x0
   1052a:	6a 6d                	push   $0x6d
   1052c:	e9 0f fb ff ff       	jmp    10040 <isr_save>

00010531 <__isr_0x6e>:
   10531:	6a 00                	push   $0x0
   10533:	6a 6e                	push   $0x6e
   10535:	e9 06 fb ff ff       	jmp    10040 <isr_save>

0001053a <__isr_0x6f>:
   1053a:	6a 00                	push   $0x0
   1053c:	6a 6f                	push   $0x6f
   1053e:	e9 fd fa ff ff       	jmp    10040 <isr_save>

00010543 <__isr_0x70>:
   10543:	6a 00                	push   $0x0
   10545:	6a 70                	push   $0x70
   10547:	e9 f4 fa ff ff       	jmp    10040 <isr_save>

0001054c <__isr_0x71>:
   1054c:	6a 00                	push   $0x0
   1054e:	6a 71                	push   $0x71
   10550:	e9 eb fa ff ff       	jmp    10040 <isr_save>

00010555 <__isr_0x72>:
   10555:	6a 00                	push   $0x0
   10557:	6a 72                	push   $0x72
   10559:	e9 e2 fa ff ff       	jmp    10040 <isr_save>

0001055e <__isr_0x73>:
   1055e:	6a 00                	push   $0x0
   10560:	6a 73                	push   $0x73
   10562:	e9 d9 fa ff ff       	jmp    10040 <isr_save>

00010567 <__isr_0x74>:
   10567:	6a 00                	push   $0x0
   10569:	6a 74                	push   $0x74
   1056b:	e9 d0 fa ff ff       	jmp    10040 <isr_save>

00010570 <__isr_0x75>:
   10570:	6a 00                	push   $0x0
   10572:	6a 75                	push   $0x75
   10574:	e9 c7 fa ff ff       	jmp    10040 <isr_save>

00010579 <__isr_0x76>:
   10579:	6a 00                	push   $0x0
   1057b:	6a 76                	push   $0x76
   1057d:	e9 be fa ff ff       	jmp    10040 <isr_save>

00010582 <__isr_0x77>:
   10582:	6a 00                	push   $0x0
   10584:	6a 77                	push   $0x77
   10586:	e9 b5 fa ff ff       	jmp    10040 <isr_save>

0001058b <__isr_0x78>:
   1058b:	6a 00                	push   $0x0
   1058d:	6a 78                	push   $0x78
   1058f:	e9 ac fa ff ff       	jmp    10040 <isr_save>

00010594 <__isr_0x79>:
   10594:	6a 00                	push   $0x0
   10596:	6a 79                	push   $0x79
   10598:	e9 a3 fa ff ff       	jmp    10040 <isr_save>

0001059d <__isr_0x7a>:
   1059d:	6a 00                	push   $0x0
   1059f:	6a 7a                	push   $0x7a
   105a1:	e9 9a fa ff ff       	jmp    10040 <isr_save>

000105a6 <__isr_0x7b>:
   105a6:	6a 00                	push   $0x0
   105a8:	6a 7b                	push   $0x7b
   105aa:	e9 91 fa ff ff       	jmp    10040 <isr_save>

000105af <__isr_0x7c>:
   105af:	6a 00                	push   $0x0
   105b1:	6a 7c                	push   $0x7c
   105b3:	e9 88 fa ff ff       	jmp    10040 <isr_save>

000105b8 <__isr_0x7d>:
   105b8:	6a 00                	push   $0x0
   105ba:	6a 7d                	push   $0x7d
   105bc:	e9 7f fa ff ff       	jmp    10040 <isr_save>

000105c1 <__isr_0x7e>:
   105c1:	6a 00                	push   $0x0
   105c3:	6a 7e                	push   $0x7e
   105c5:	e9 76 fa ff ff       	jmp    10040 <isr_save>

000105ca <__isr_0x7f>:
   105ca:	6a 00                	push   $0x0
   105cc:	6a 7f                	push   $0x7f
   105ce:	e9 6d fa ff ff       	jmp    10040 <isr_save>

000105d3 <__isr_0x80>:
   105d3:	6a 00                	push   $0x0
   105d5:	68 80 00 00 00       	push   $0x80
   105da:	e9 61 fa ff ff       	jmp    10040 <isr_save>

000105df <__isr_0x81>:
   105df:	6a 00                	push   $0x0
   105e1:	68 81 00 00 00       	push   $0x81
   105e6:	e9 55 fa ff ff       	jmp    10040 <isr_save>

000105eb <__isr_0x82>:
   105eb:	6a 00                	push   $0x0
   105ed:	68 82 00 00 00       	push   $0x82
   105f2:	e9 49 fa ff ff       	jmp    10040 <isr_save>

000105f7 <__isr_0x83>:
   105f7:	6a 00                	push   $0x0
   105f9:	68 83 00 00 00       	push   $0x83
   105fe:	e9 3d fa ff ff       	jmp    10040 <isr_save>

00010603 <__isr_0x84>:
   10603:	6a 00                	push   $0x0
   10605:	68 84 00 00 00       	push   $0x84
   1060a:	e9 31 fa ff ff       	jmp    10040 <isr_save>

0001060f <__isr_0x85>:
   1060f:	6a 00                	push   $0x0
   10611:	68 85 00 00 00       	push   $0x85
   10616:	e9 25 fa ff ff       	jmp    10040 <isr_save>

0001061b <__isr_0x86>:
   1061b:	6a 00                	push   $0x0
   1061d:	68 86 00 00 00       	push   $0x86
   10622:	e9 19 fa ff ff       	jmp    10040 <isr_save>

00010627 <__isr_0x87>:
   10627:	6a 00                	push   $0x0
   10629:	68 87 00 00 00       	push   $0x87
   1062e:	e9 0d fa ff ff       	jmp    10040 <isr_save>

00010633 <__isr_0x88>:
   10633:	6a 00                	push   $0x0
   10635:	68 88 00 00 00       	push   $0x88
   1063a:	e9 01 fa ff ff       	jmp    10040 <isr_save>

0001063f <__isr_0x89>:
   1063f:	6a 00                	push   $0x0
   10641:	68 89 00 00 00       	push   $0x89
   10646:	e9 f5 f9 ff ff       	jmp    10040 <isr_save>

0001064b <__isr_0x8a>:
   1064b:	6a 00                	push   $0x0
   1064d:	68 8a 00 00 00       	push   $0x8a
   10652:	e9 e9 f9 ff ff       	jmp    10040 <isr_save>

00010657 <__isr_0x8b>:
   10657:	6a 00                	push   $0x0
   10659:	68 8b 00 00 00       	push   $0x8b
   1065e:	e9 dd f9 ff ff       	jmp    10040 <isr_save>

00010663 <__isr_0x8c>:
   10663:	6a 00                	push   $0x0
   10665:	68 8c 00 00 00       	push   $0x8c
   1066a:	e9 d1 f9 ff ff       	jmp    10040 <isr_save>

0001066f <__isr_0x8d>:
   1066f:	6a 00                	push   $0x0
   10671:	68 8d 00 00 00       	push   $0x8d
   10676:	e9 c5 f9 ff ff       	jmp    10040 <isr_save>

0001067b <__isr_0x8e>:
   1067b:	6a 00                	push   $0x0
   1067d:	68 8e 00 00 00       	push   $0x8e
   10682:	e9 b9 f9 ff ff       	jmp    10040 <isr_save>

00010687 <__isr_0x8f>:
   10687:	6a 00                	push   $0x0
   10689:	68 8f 00 00 00       	push   $0x8f
   1068e:	e9 ad f9 ff ff       	jmp    10040 <isr_save>

00010693 <__isr_0x90>:
   10693:	6a 00                	push   $0x0
   10695:	68 90 00 00 00       	push   $0x90
   1069a:	e9 a1 f9 ff ff       	jmp    10040 <isr_save>

0001069f <__isr_0x91>:
   1069f:	6a 00                	push   $0x0
   106a1:	68 91 00 00 00       	push   $0x91
   106a6:	e9 95 f9 ff ff       	jmp    10040 <isr_save>

000106ab <__isr_0x92>:
   106ab:	6a 00                	push   $0x0
   106ad:	68 92 00 00 00       	push   $0x92
   106b2:	e9 89 f9 ff ff       	jmp    10040 <isr_save>

000106b7 <__isr_0x93>:
   106b7:	6a 00                	push   $0x0
   106b9:	68 93 00 00 00       	push   $0x93
   106be:	e9 7d f9 ff ff       	jmp    10040 <isr_save>

000106c3 <__isr_0x94>:
   106c3:	6a 00                	push   $0x0
   106c5:	68 94 00 00 00       	push   $0x94
   106ca:	e9 71 f9 ff ff       	jmp    10040 <isr_save>

000106cf <__isr_0x95>:
   106cf:	6a 00                	push   $0x0
   106d1:	68 95 00 00 00       	push   $0x95
   106d6:	e9 65 f9 ff ff       	jmp    10040 <isr_save>

000106db <__isr_0x96>:
   106db:	6a 00                	push   $0x0
   106dd:	68 96 00 00 00       	push   $0x96
   106e2:	e9 59 f9 ff ff       	jmp    10040 <isr_save>

000106e7 <__isr_0x97>:
   106e7:	6a 00                	push   $0x0
   106e9:	68 97 00 00 00       	push   $0x97
   106ee:	e9 4d f9 ff ff       	jmp    10040 <isr_save>

000106f3 <__isr_0x98>:
   106f3:	6a 00                	push   $0x0
   106f5:	68 98 00 00 00       	push   $0x98
   106fa:	e9 41 f9 ff ff       	jmp    10040 <isr_save>

000106ff <__isr_0x99>:
   106ff:	6a 00                	push   $0x0
   10701:	68 99 00 00 00       	push   $0x99
   10706:	e9 35 f9 ff ff       	jmp    10040 <isr_save>

0001070b <__isr_0x9a>:
   1070b:	6a 00                	push   $0x0
   1070d:	68 9a 00 00 00       	push   $0x9a
   10712:	e9 29 f9 ff ff       	jmp    10040 <isr_save>

00010717 <__isr_0x9b>:
   10717:	6a 00                	push   $0x0
   10719:	68 9b 00 00 00       	push   $0x9b
   1071e:	e9 1d f9 ff ff       	jmp    10040 <isr_save>

00010723 <__isr_0x9c>:
   10723:	6a 00                	push   $0x0
   10725:	68 9c 00 00 00       	push   $0x9c
   1072a:	e9 11 f9 ff ff       	jmp    10040 <isr_save>

0001072f <__isr_0x9d>:
   1072f:	6a 00                	push   $0x0
   10731:	68 9d 00 00 00       	push   $0x9d
   10736:	e9 05 f9 ff ff       	jmp    10040 <isr_save>

0001073b <__isr_0x9e>:
   1073b:	6a 00                	push   $0x0
   1073d:	68 9e 00 00 00       	push   $0x9e
   10742:	e9 f9 f8 ff ff       	jmp    10040 <isr_save>

00010747 <__isr_0x9f>:
   10747:	6a 00                	push   $0x0
   10749:	68 9f 00 00 00       	push   $0x9f
   1074e:	e9 ed f8 ff ff       	jmp    10040 <isr_save>

00010753 <__isr_0xa0>:
   10753:	6a 00                	push   $0x0
   10755:	68 a0 00 00 00       	push   $0xa0
   1075a:	e9 e1 f8 ff ff       	jmp    10040 <isr_save>

0001075f <__isr_0xa1>:
   1075f:	6a 00                	push   $0x0
   10761:	68 a1 00 00 00       	push   $0xa1
   10766:	e9 d5 f8 ff ff       	jmp    10040 <isr_save>

0001076b <__isr_0xa2>:
   1076b:	6a 00                	push   $0x0
   1076d:	68 a2 00 00 00       	push   $0xa2
   10772:	e9 c9 f8 ff ff       	jmp    10040 <isr_save>

00010777 <__isr_0xa3>:
   10777:	6a 00                	push   $0x0
   10779:	68 a3 00 00 00       	push   $0xa3
   1077e:	e9 bd f8 ff ff       	jmp    10040 <isr_save>

00010783 <__isr_0xa4>:
   10783:	6a 00                	push   $0x0
   10785:	68 a4 00 00 00       	push   $0xa4
   1078a:	e9 b1 f8 ff ff       	jmp    10040 <isr_save>

0001078f <__isr_0xa5>:
   1078f:	6a 00                	push   $0x0
   10791:	68 a5 00 00 00       	push   $0xa5
   10796:	e9 a5 f8 ff ff       	jmp    10040 <isr_save>

0001079b <__isr_0xa6>:
   1079b:	6a 00                	push   $0x0
   1079d:	68 a6 00 00 00       	push   $0xa6
   107a2:	e9 99 f8 ff ff       	jmp    10040 <isr_save>

000107a7 <__isr_0xa7>:
   107a7:	6a 00                	push   $0x0
   107a9:	68 a7 00 00 00       	push   $0xa7
   107ae:	e9 8d f8 ff ff       	jmp    10040 <isr_save>

000107b3 <__isr_0xa8>:
   107b3:	6a 00                	push   $0x0
   107b5:	68 a8 00 00 00       	push   $0xa8
   107ba:	e9 81 f8 ff ff       	jmp    10040 <isr_save>

000107bf <__isr_0xa9>:
   107bf:	6a 00                	push   $0x0
   107c1:	68 a9 00 00 00       	push   $0xa9
   107c6:	e9 75 f8 ff ff       	jmp    10040 <isr_save>

000107cb <__isr_0xaa>:
   107cb:	6a 00                	push   $0x0
   107cd:	68 aa 00 00 00       	push   $0xaa
   107d2:	e9 69 f8 ff ff       	jmp    10040 <isr_save>

000107d7 <__isr_0xab>:
   107d7:	6a 00                	push   $0x0
   107d9:	68 ab 00 00 00       	push   $0xab
   107de:	e9 5d f8 ff ff       	jmp    10040 <isr_save>

000107e3 <__isr_0xac>:
   107e3:	6a 00                	push   $0x0
   107e5:	68 ac 00 00 00       	push   $0xac
   107ea:	e9 51 f8 ff ff       	jmp    10040 <isr_save>

000107ef <__isr_0xad>:
   107ef:	6a 00                	push   $0x0
   107f1:	68 ad 00 00 00       	push   $0xad
   107f6:	e9 45 f8 ff ff       	jmp    10040 <isr_save>

000107fb <__isr_0xae>:
   107fb:	6a 00                	push   $0x0
   107fd:	68 ae 00 00 00       	push   $0xae
   10802:	e9 39 f8 ff ff       	jmp    10040 <isr_save>

00010807 <__isr_0xaf>:
   10807:	6a 00                	push   $0x0
   10809:	68 af 00 00 00       	push   $0xaf
   1080e:	e9 2d f8 ff ff       	jmp    10040 <isr_save>

00010813 <__isr_0xb0>:
   10813:	6a 00                	push   $0x0
   10815:	68 b0 00 00 00       	push   $0xb0
   1081a:	e9 21 f8 ff ff       	jmp    10040 <isr_save>

0001081f <__isr_0xb1>:
   1081f:	6a 00                	push   $0x0
   10821:	68 b1 00 00 00       	push   $0xb1
   10826:	e9 15 f8 ff ff       	jmp    10040 <isr_save>

0001082b <__isr_0xb2>:
   1082b:	6a 00                	push   $0x0
   1082d:	68 b2 00 00 00       	push   $0xb2
   10832:	e9 09 f8 ff ff       	jmp    10040 <isr_save>

00010837 <__isr_0xb3>:
   10837:	6a 00                	push   $0x0
   10839:	68 b3 00 00 00       	push   $0xb3
   1083e:	e9 fd f7 ff ff       	jmp    10040 <isr_save>

00010843 <__isr_0xb4>:
   10843:	6a 00                	push   $0x0
   10845:	68 b4 00 00 00       	push   $0xb4
   1084a:	e9 f1 f7 ff ff       	jmp    10040 <isr_save>

0001084f <__isr_0xb5>:
   1084f:	6a 00                	push   $0x0
   10851:	68 b5 00 00 00       	push   $0xb5
   10856:	e9 e5 f7 ff ff       	jmp    10040 <isr_save>

0001085b <__isr_0xb6>:
   1085b:	6a 00                	push   $0x0
   1085d:	68 b6 00 00 00       	push   $0xb6
   10862:	e9 d9 f7 ff ff       	jmp    10040 <isr_save>

00010867 <__isr_0xb7>:
   10867:	6a 00                	push   $0x0
   10869:	68 b7 00 00 00       	push   $0xb7
   1086e:	e9 cd f7 ff ff       	jmp    10040 <isr_save>

00010873 <__isr_0xb8>:
   10873:	6a 00                	push   $0x0
   10875:	68 b8 00 00 00       	push   $0xb8
   1087a:	e9 c1 f7 ff ff       	jmp    10040 <isr_save>

0001087f <__isr_0xb9>:
   1087f:	6a 00                	push   $0x0
   10881:	68 b9 00 00 00       	push   $0xb9
   10886:	e9 b5 f7 ff ff       	jmp    10040 <isr_save>

0001088b <__isr_0xba>:
   1088b:	6a 00                	push   $0x0
   1088d:	68 ba 00 00 00       	push   $0xba
   10892:	e9 a9 f7 ff ff       	jmp    10040 <isr_save>

00010897 <__isr_0xbb>:
   10897:	6a 00                	push   $0x0
   10899:	68 bb 00 00 00       	push   $0xbb
   1089e:	e9 9d f7 ff ff       	jmp    10040 <isr_save>

000108a3 <__isr_0xbc>:
   108a3:	6a 00                	push   $0x0
   108a5:	68 bc 00 00 00       	push   $0xbc
   108aa:	e9 91 f7 ff ff       	jmp    10040 <isr_save>

000108af <__isr_0xbd>:
   108af:	6a 00                	push   $0x0
   108b1:	68 bd 00 00 00       	push   $0xbd
   108b6:	e9 85 f7 ff ff       	jmp    10040 <isr_save>

000108bb <__isr_0xbe>:
   108bb:	6a 00                	push   $0x0
   108bd:	68 be 00 00 00       	push   $0xbe
   108c2:	e9 79 f7 ff ff       	jmp    10040 <isr_save>

000108c7 <__isr_0xbf>:
   108c7:	6a 00                	push   $0x0
   108c9:	68 bf 00 00 00       	push   $0xbf
   108ce:	e9 6d f7 ff ff       	jmp    10040 <isr_save>

000108d3 <__isr_0xc0>:
   108d3:	6a 00                	push   $0x0
   108d5:	68 c0 00 00 00       	push   $0xc0
   108da:	e9 61 f7 ff ff       	jmp    10040 <isr_save>

000108df <__isr_0xc1>:
   108df:	6a 00                	push   $0x0
   108e1:	68 c1 00 00 00       	push   $0xc1
   108e6:	e9 55 f7 ff ff       	jmp    10040 <isr_save>

000108eb <__isr_0xc2>:
   108eb:	6a 00                	push   $0x0
   108ed:	68 c2 00 00 00       	push   $0xc2
   108f2:	e9 49 f7 ff ff       	jmp    10040 <isr_save>

000108f7 <__isr_0xc3>:
   108f7:	6a 00                	push   $0x0
   108f9:	68 c3 00 00 00       	push   $0xc3
   108fe:	e9 3d f7 ff ff       	jmp    10040 <isr_save>

00010903 <__isr_0xc4>:
   10903:	6a 00                	push   $0x0
   10905:	68 c4 00 00 00       	push   $0xc4
   1090a:	e9 31 f7 ff ff       	jmp    10040 <isr_save>

0001090f <__isr_0xc5>:
   1090f:	6a 00                	push   $0x0
   10911:	68 c5 00 00 00       	push   $0xc5
   10916:	e9 25 f7 ff ff       	jmp    10040 <isr_save>

0001091b <__isr_0xc6>:
   1091b:	6a 00                	push   $0x0
   1091d:	68 c6 00 00 00       	push   $0xc6
   10922:	e9 19 f7 ff ff       	jmp    10040 <isr_save>

00010927 <__isr_0xc7>:
   10927:	6a 00                	push   $0x0
   10929:	68 c7 00 00 00       	push   $0xc7
   1092e:	e9 0d f7 ff ff       	jmp    10040 <isr_save>

00010933 <__isr_0xc8>:
   10933:	6a 00                	push   $0x0
   10935:	68 c8 00 00 00       	push   $0xc8
   1093a:	e9 01 f7 ff ff       	jmp    10040 <isr_save>

0001093f <__isr_0xc9>:
   1093f:	6a 00                	push   $0x0
   10941:	68 c9 00 00 00       	push   $0xc9
   10946:	e9 f5 f6 ff ff       	jmp    10040 <isr_save>

0001094b <__isr_0xca>:
   1094b:	6a 00                	push   $0x0
   1094d:	68 ca 00 00 00       	push   $0xca
   10952:	e9 e9 f6 ff ff       	jmp    10040 <isr_save>

00010957 <__isr_0xcb>:
   10957:	6a 00                	push   $0x0
   10959:	68 cb 00 00 00       	push   $0xcb
   1095e:	e9 dd f6 ff ff       	jmp    10040 <isr_save>

00010963 <__isr_0xcc>:
   10963:	6a 00                	push   $0x0
   10965:	68 cc 00 00 00       	push   $0xcc
   1096a:	e9 d1 f6 ff ff       	jmp    10040 <isr_save>

0001096f <__isr_0xcd>:
   1096f:	6a 00                	push   $0x0
   10971:	68 cd 00 00 00       	push   $0xcd
   10976:	e9 c5 f6 ff ff       	jmp    10040 <isr_save>

0001097b <__isr_0xce>:
   1097b:	6a 00                	push   $0x0
   1097d:	68 ce 00 00 00       	push   $0xce
   10982:	e9 b9 f6 ff ff       	jmp    10040 <isr_save>

00010987 <__isr_0xcf>:
   10987:	6a 00                	push   $0x0
   10989:	68 cf 00 00 00       	push   $0xcf
   1098e:	e9 ad f6 ff ff       	jmp    10040 <isr_save>

00010993 <__isr_0xd0>:
   10993:	6a 00                	push   $0x0
   10995:	68 d0 00 00 00       	push   $0xd0
   1099a:	e9 a1 f6 ff ff       	jmp    10040 <isr_save>

0001099f <__isr_0xd1>:
   1099f:	6a 00                	push   $0x0
   109a1:	68 d1 00 00 00       	push   $0xd1
   109a6:	e9 95 f6 ff ff       	jmp    10040 <isr_save>

000109ab <__isr_0xd2>:
   109ab:	6a 00                	push   $0x0
   109ad:	68 d2 00 00 00       	push   $0xd2
   109b2:	e9 89 f6 ff ff       	jmp    10040 <isr_save>

000109b7 <__isr_0xd3>:
   109b7:	6a 00                	push   $0x0
   109b9:	68 d3 00 00 00       	push   $0xd3
   109be:	e9 7d f6 ff ff       	jmp    10040 <isr_save>

000109c3 <__isr_0xd4>:
   109c3:	6a 00                	push   $0x0
   109c5:	68 d4 00 00 00       	push   $0xd4
   109ca:	e9 71 f6 ff ff       	jmp    10040 <isr_save>

000109cf <__isr_0xd5>:
   109cf:	6a 00                	push   $0x0
   109d1:	68 d5 00 00 00       	push   $0xd5
   109d6:	e9 65 f6 ff ff       	jmp    10040 <isr_save>

000109db <__isr_0xd6>:
   109db:	6a 00                	push   $0x0
   109dd:	68 d6 00 00 00       	push   $0xd6
   109e2:	e9 59 f6 ff ff       	jmp    10040 <isr_save>

000109e7 <__isr_0xd7>:
   109e7:	6a 00                	push   $0x0
   109e9:	68 d7 00 00 00       	push   $0xd7
   109ee:	e9 4d f6 ff ff       	jmp    10040 <isr_save>

000109f3 <__isr_0xd8>:
   109f3:	6a 00                	push   $0x0
   109f5:	68 d8 00 00 00       	push   $0xd8
   109fa:	e9 41 f6 ff ff       	jmp    10040 <isr_save>

000109ff <__isr_0xd9>:
   109ff:	6a 00                	push   $0x0
   10a01:	68 d9 00 00 00       	push   $0xd9
   10a06:	e9 35 f6 ff ff       	jmp    10040 <isr_save>

00010a0b <__isr_0xda>:
   10a0b:	6a 00                	push   $0x0
   10a0d:	68 da 00 00 00       	push   $0xda
   10a12:	e9 29 f6 ff ff       	jmp    10040 <isr_save>

00010a17 <__isr_0xdb>:
   10a17:	6a 00                	push   $0x0
   10a19:	68 db 00 00 00       	push   $0xdb
   10a1e:	e9 1d f6 ff ff       	jmp    10040 <isr_save>

00010a23 <__isr_0xdc>:
   10a23:	6a 00                	push   $0x0
   10a25:	68 dc 00 00 00       	push   $0xdc
   10a2a:	e9 11 f6 ff ff       	jmp    10040 <isr_save>

00010a2f <__isr_0xdd>:
   10a2f:	6a 00                	push   $0x0
   10a31:	68 dd 00 00 00       	push   $0xdd
   10a36:	e9 05 f6 ff ff       	jmp    10040 <isr_save>

00010a3b <__isr_0xde>:
   10a3b:	6a 00                	push   $0x0
   10a3d:	68 de 00 00 00       	push   $0xde
   10a42:	e9 f9 f5 ff ff       	jmp    10040 <isr_save>

00010a47 <__isr_0xdf>:
   10a47:	6a 00                	push   $0x0
   10a49:	68 df 00 00 00       	push   $0xdf
   10a4e:	e9 ed f5 ff ff       	jmp    10040 <isr_save>

00010a53 <__isr_0xe0>:
   10a53:	6a 00                	push   $0x0
   10a55:	68 e0 00 00 00       	push   $0xe0
   10a5a:	e9 e1 f5 ff ff       	jmp    10040 <isr_save>

00010a5f <__isr_0xe1>:
   10a5f:	6a 00                	push   $0x0
   10a61:	68 e1 00 00 00       	push   $0xe1
   10a66:	e9 d5 f5 ff ff       	jmp    10040 <isr_save>

00010a6b <__isr_0xe2>:
   10a6b:	6a 00                	push   $0x0
   10a6d:	68 e2 00 00 00       	push   $0xe2
   10a72:	e9 c9 f5 ff ff       	jmp    10040 <isr_save>

00010a77 <__isr_0xe3>:
   10a77:	6a 00                	push   $0x0
   10a79:	68 e3 00 00 00       	push   $0xe3
   10a7e:	e9 bd f5 ff ff       	jmp    10040 <isr_save>

00010a83 <__isr_0xe4>:
   10a83:	6a 00                	push   $0x0
   10a85:	68 e4 00 00 00       	push   $0xe4
   10a8a:	e9 b1 f5 ff ff       	jmp    10040 <isr_save>

00010a8f <__isr_0xe5>:
   10a8f:	6a 00                	push   $0x0
   10a91:	68 e5 00 00 00       	push   $0xe5
   10a96:	e9 a5 f5 ff ff       	jmp    10040 <isr_save>

00010a9b <__isr_0xe6>:
   10a9b:	6a 00                	push   $0x0
   10a9d:	68 e6 00 00 00       	push   $0xe6
   10aa2:	e9 99 f5 ff ff       	jmp    10040 <isr_save>

00010aa7 <__isr_0xe7>:
   10aa7:	6a 00                	push   $0x0
   10aa9:	68 e7 00 00 00       	push   $0xe7
   10aae:	e9 8d f5 ff ff       	jmp    10040 <isr_save>

00010ab3 <__isr_0xe8>:
   10ab3:	6a 00                	push   $0x0
   10ab5:	68 e8 00 00 00       	push   $0xe8
   10aba:	e9 81 f5 ff ff       	jmp    10040 <isr_save>

00010abf <__isr_0xe9>:
   10abf:	6a 00                	push   $0x0
   10ac1:	68 e9 00 00 00       	push   $0xe9
   10ac6:	e9 75 f5 ff ff       	jmp    10040 <isr_save>

00010acb <__isr_0xea>:
   10acb:	6a 00                	push   $0x0
   10acd:	68 ea 00 00 00       	push   $0xea
   10ad2:	e9 69 f5 ff ff       	jmp    10040 <isr_save>

00010ad7 <__isr_0xeb>:
   10ad7:	6a 00                	push   $0x0
   10ad9:	68 eb 00 00 00       	push   $0xeb
   10ade:	e9 5d f5 ff ff       	jmp    10040 <isr_save>

00010ae3 <__isr_0xec>:
   10ae3:	6a 00                	push   $0x0
   10ae5:	68 ec 00 00 00       	push   $0xec
   10aea:	e9 51 f5 ff ff       	jmp    10040 <isr_save>

00010aef <__isr_0xed>:
   10aef:	6a 00                	push   $0x0
   10af1:	68 ed 00 00 00       	push   $0xed
   10af6:	e9 45 f5 ff ff       	jmp    10040 <isr_save>

00010afb <__isr_0xee>:
   10afb:	6a 00                	push   $0x0
   10afd:	68 ee 00 00 00       	push   $0xee
   10b02:	e9 39 f5 ff ff       	jmp    10040 <isr_save>

00010b07 <__isr_0xef>:
   10b07:	6a 00                	push   $0x0
   10b09:	68 ef 00 00 00       	push   $0xef
   10b0e:	e9 2d f5 ff ff       	jmp    10040 <isr_save>

00010b13 <__isr_0xf0>:
   10b13:	6a 00                	push   $0x0
   10b15:	68 f0 00 00 00       	push   $0xf0
   10b1a:	e9 21 f5 ff ff       	jmp    10040 <isr_save>

00010b1f <__isr_0xf1>:
   10b1f:	6a 00                	push   $0x0
   10b21:	68 f1 00 00 00       	push   $0xf1
   10b26:	e9 15 f5 ff ff       	jmp    10040 <isr_save>

00010b2b <__isr_0xf2>:
   10b2b:	6a 00                	push   $0x0
   10b2d:	68 f2 00 00 00       	push   $0xf2
   10b32:	e9 09 f5 ff ff       	jmp    10040 <isr_save>

00010b37 <__isr_0xf3>:
   10b37:	6a 00                	push   $0x0
   10b39:	68 f3 00 00 00       	push   $0xf3
   10b3e:	e9 fd f4 ff ff       	jmp    10040 <isr_save>

00010b43 <__isr_0xf4>:
   10b43:	6a 00                	push   $0x0
   10b45:	68 f4 00 00 00       	push   $0xf4
   10b4a:	e9 f1 f4 ff ff       	jmp    10040 <isr_save>

00010b4f <__isr_0xf5>:
   10b4f:	6a 00                	push   $0x0
   10b51:	68 f5 00 00 00       	push   $0xf5
   10b56:	e9 e5 f4 ff ff       	jmp    10040 <isr_save>

00010b5b <__isr_0xf6>:
   10b5b:	6a 00                	push   $0x0
   10b5d:	68 f6 00 00 00       	push   $0xf6
   10b62:	e9 d9 f4 ff ff       	jmp    10040 <isr_save>

00010b67 <__isr_0xf7>:
   10b67:	6a 00                	push   $0x0
   10b69:	68 f7 00 00 00       	push   $0xf7
   10b6e:	e9 cd f4 ff ff       	jmp    10040 <isr_save>

00010b73 <__isr_0xf8>:
   10b73:	6a 00                	push   $0x0
   10b75:	68 f8 00 00 00       	push   $0xf8
   10b7a:	e9 c1 f4 ff ff       	jmp    10040 <isr_save>

00010b7f <__isr_0xf9>:
   10b7f:	6a 00                	push   $0x0
   10b81:	68 f9 00 00 00       	push   $0xf9
   10b86:	e9 b5 f4 ff ff       	jmp    10040 <isr_save>

00010b8b <__isr_0xfa>:
   10b8b:	6a 00                	push   $0x0
   10b8d:	68 fa 00 00 00       	push   $0xfa
   10b92:	e9 a9 f4 ff ff       	jmp    10040 <isr_save>

00010b97 <__isr_0xfb>:
   10b97:	6a 00                	push   $0x0
   10b99:	68 fb 00 00 00       	push   $0xfb
   10b9e:	e9 9d f4 ff ff       	jmp    10040 <isr_save>

00010ba3 <__isr_0xfc>:
   10ba3:	6a 00                	push   $0x0
   10ba5:	68 fc 00 00 00       	push   $0xfc
   10baa:	e9 91 f4 ff ff       	jmp    10040 <isr_save>

00010baf <__isr_0xfd>:
   10baf:	6a 00                	push   $0x0
   10bb1:	68 fd 00 00 00       	push   $0xfd
   10bb6:	e9 85 f4 ff ff       	jmp    10040 <isr_save>

00010bbb <__isr_0xfe>:
   10bbb:	6a 00                	push   $0x0
   10bbd:	68 fe 00 00 00       	push   $0xfe
   10bc2:	e9 79 f4 ff ff       	jmp    10040 <isr_save>

00010bc7 <__isr_0xff>:
   10bc7:	6a 00                	push   $0x0
   10bc9:	68 ff 00 00 00       	push   $0xff
   10bce:	e9 6d f4 ff ff       	jmp    10040 <isr_save>

00010bd3 <__c_setcursor>:
   10bd3:	55                   	push   %ebp
   10bd4:	89 e5                	mov    %esp,%ebp
   10bd6:	83 ec 18             	sub    $0x18,%esp
   10bd9:	a1 d0 b6 01 00       	mov    0x1b6d0,%eax
   10bde:	89 45 f4             	mov    %eax,-0xc(%ebp)
   10be1:	a1 c4 b6 01 00       	mov    0x1b6c4,%eax
   10be6:	39 45 f4             	cmp    %eax,-0xc(%ebp)
   10be9:	76 08                	jbe    10bf3 <__c_setcursor+0x20>
   10beb:	a1 c4 b6 01 00       	mov    0x1b6c4,%eax
   10bf0:	89 45 f4             	mov    %eax,-0xc(%ebp)
   10bf3:	8b 55 f4             	mov    -0xc(%ebp),%edx
   10bf6:	89 d0                	mov    %edx,%eax
   10bf8:	c1 e0 02             	shl    $0x2,%eax
   10bfb:	01 d0                	add    %edx,%eax
   10bfd:	c1 e0 04             	shl    $0x4,%eax
   10c00:	89 c2                	mov    %eax,%edx
   10c02:	a1 bc b6 01 00       	mov    0x1b6bc,%eax
   10c07:	01 d0                	add    %edx,%eax
   10c09:	89 45 f0             	mov    %eax,-0x10(%ebp)
   10c0c:	83 ec 08             	sub    $0x8,%esp
   10c0f:	6a 0e                	push   $0xe
   10c11:	68 d4 03 00 00       	push   $0x3d4
   10c16:	e8 d4 55 00 00       	call   161ef <__outb>
   10c1b:	83 c4 10             	add    $0x10,%esp
   10c1e:	8b 45 f0             	mov    -0x10(%ebp),%eax
   10c21:	c1 e8 08             	shr    $0x8,%eax
   10c24:	0f b6 c0             	movzbl %al,%eax
   10c27:	83 ec 08             	sub    $0x8,%esp
   10c2a:	50                   	push   %eax
   10c2b:	68 d5 03 00 00       	push   $0x3d5
   10c30:	e8 ba 55 00 00       	call   161ef <__outb>
   10c35:	83 c4 10             	add    $0x10,%esp
   10c38:	83 ec 08             	sub    $0x8,%esp
   10c3b:	6a 0f                	push   $0xf
   10c3d:	68 d4 03 00 00       	push   $0x3d4
   10c42:	e8 a8 55 00 00       	call   161ef <__outb>
   10c47:	83 c4 10             	add    $0x10,%esp
   10c4a:	8b 45 f0             	mov    -0x10(%ebp),%eax
   10c4d:	0f b6 c0             	movzbl %al,%eax
   10c50:	83 ec 08             	sub    $0x8,%esp
   10c53:	50                   	push   %eax
   10c54:	68 d5 03 00 00       	push   $0x3d5
   10c59:	e8 91 55 00 00       	call   161ef <__outb>
   10c5e:	83 c4 10             	add    $0x10,%esp
   10c61:	90                   	nop
   10c62:	c9                   	leave  
   10c63:	c3                   	ret    

00010c64 <__c_putchar_at>:
   10c64:	55                   	push   %ebp
   10c65:	89 e5                	mov    %esp,%ebp
   10c67:	83 ec 10             	sub    $0x10,%esp
   10c6a:	a1 b8 b6 01 00       	mov    0x1b6b8,%eax
   10c6f:	39 45 08             	cmp    %eax,0x8(%ebp)
   10c72:	77 4c                	ja     10cc0 <__c_putchar_at+0x5c>
   10c74:	a1 d4 b6 01 00       	mov    0x1b6d4,%eax
   10c79:	39 45 0c             	cmp    %eax,0xc(%ebp)
   10c7c:	77 42                	ja     10cc0 <__c_putchar_at+0x5c>
   10c7e:	8b 55 0c             	mov    0xc(%ebp),%edx
   10c81:	89 d0                	mov    %edx,%eax
   10c83:	c1 e0 02             	shl    $0x2,%eax
   10c86:	01 d0                	add    %edx,%eax
   10c88:	c1 e0 04             	shl    $0x4,%eax
   10c8b:	89 c2                	mov    %eax,%edx
   10c8d:	8b 45 08             	mov    0x8(%ebp),%eax
   10c90:	01 d0                	add    %edx,%eax
   10c92:	05 00 c0 05 00       	add    $0x5c000,%eax
   10c97:	01 c0                	add    %eax,%eax
   10c99:	89 45 fc             	mov    %eax,-0x4(%ebp)
   10c9c:	81 7d 10 ff 00 00 00 	cmpl   $0xff,0x10(%ebp)
   10ca3:	76 0d                	jbe    10cb2 <__c_putchar_at+0x4e>
   10ca5:	8b 45 10             	mov    0x10(%ebp),%eax
   10ca8:	89 c2                	mov    %eax,%edx
   10caa:	8b 45 fc             	mov    -0x4(%ebp),%eax
   10cad:	66 89 10             	mov    %dx,(%eax)
   10cb0:	eb 0e                	jmp    10cc0 <__c_putchar_at+0x5c>
   10cb2:	8b 45 10             	mov    0x10(%ebp),%eax
   10cb5:	80 cc 07             	or     $0x7,%ah
   10cb8:	89 c2                	mov    %eax,%edx
   10cba:	8b 45 fc             	mov    -0x4(%ebp),%eax
   10cbd:	66 89 10             	mov    %dx,(%eax)
   10cc0:	90                   	nop
   10cc1:	c9                   	leave  
   10cc2:	c3                   	ret    

00010cc3 <__cio_setscroll>:
   10cc3:	55                   	push   %ebp
   10cc4:	89 e5                	mov    %esp,%ebp
   10cc6:	83 ec 08             	sub    $0x8,%esp
   10cc9:	8b 15 b8 b6 01 00    	mov    0x1b6b8,%edx
   10ccf:	a1 cc b6 01 00       	mov    0x1b6cc,%eax
   10cd4:	83 ec 04             	sub    $0x4,%esp
   10cd7:	52                   	push   %edx
   10cd8:	ff 75 08             	pushl  0x8(%ebp)
   10cdb:	50                   	push   %eax
   10cdc:	e8 4d 15 00 00       	call   1222e <__bound>
   10ce1:	83 c4 10             	add    $0x10,%esp
   10ce4:	a3 d8 b6 01 00       	mov    %eax,0x1b6d8
   10ce9:	8b 15 d4 b6 01 00    	mov    0x1b6d4,%edx
   10cef:	a1 c0 b6 01 00       	mov    0x1b6c0,%eax
   10cf4:	83 ec 04             	sub    $0x4,%esp
   10cf7:	52                   	push   %edx
   10cf8:	ff 75 0c             	pushl  0xc(%ebp)
   10cfb:	50                   	push   %eax
   10cfc:	e8 2d 15 00 00       	call   1222e <__bound>
   10d01:	83 c4 10             	add    $0x10,%esp
   10d04:	a3 c8 b6 01 00       	mov    %eax,0x1b6c8
   10d09:	8b 15 b8 b6 01 00    	mov    0x1b6b8,%edx
   10d0f:	a1 d8 b6 01 00       	mov    0x1b6d8,%eax
   10d14:	83 ec 04             	sub    $0x4,%esp
   10d17:	52                   	push   %edx
   10d18:	ff 75 10             	pushl  0x10(%ebp)
   10d1b:	50                   	push   %eax
   10d1c:	e8 0d 15 00 00       	call   1222e <__bound>
   10d21:	83 c4 10             	add    $0x10,%esp
   10d24:	a3 b4 b6 01 00       	mov    %eax,0x1b6b4
   10d29:	8b 15 d4 b6 01 00    	mov    0x1b6d4,%edx
   10d2f:	a1 c8 b6 01 00       	mov    0x1b6c8,%eax
   10d34:	83 ec 04             	sub    $0x4,%esp
   10d37:	52                   	push   %edx
   10d38:	ff 75 14             	pushl  0x14(%ebp)
   10d3b:	50                   	push   %eax
   10d3c:	e8 ed 14 00 00       	call   1222e <__bound>
   10d41:	83 c4 10             	add    $0x10,%esp
   10d44:	a3 c4 b6 01 00       	mov    %eax,0x1b6c4
   10d49:	a1 d8 b6 01 00       	mov    0x1b6d8,%eax
   10d4e:	a3 bc b6 01 00       	mov    %eax,0x1b6bc
   10d53:	a1 c8 b6 01 00       	mov    0x1b6c8,%eax
   10d58:	a3 d0 b6 01 00       	mov    %eax,0x1b6d0
   10d5d:	e8 71 fe ff ff       	call   10bd3 <__c_setcursor>
   10d62:	90                   	nop
   10d63:	c9                   	leave  
   10d64:	c3                   	ret    

00010d65 <__cio_moveto>:
   10d65:	55                   	push   %ebp
   10d66:	89 e5                	mov    %esp,%ebp
   10d68:	83 ec 08             	sub    $0x8,%esp
   10d6b:	8b 15 b4 b6 01 00    	mov    0x1b6b4,%edx
   10d71:	8b 0d d8 b6 01 00    	mov    0x1b6d8,%ecx
   10d77:	8b 45 08             	mov    0x8(%ebp),%eax
   10d7a:	01 c1                	add    %eax,%ecx
   10d7c:	a1 d8 b6 01 00       	mov    0x1b6d8,%eax
   10d81:	83 ec 04             	sub    $0x4,%esp
   10d84:	52                   	push   %edx
   10d85:	51                   	push   %ecx
   10d86:	50                   	push   %eax
   10d87:	e8 a2 14 00 00       	call   1222e <__bound>
   10d8c:	83 c4 10             	add    $0x10,%esp
   10d8f:	a3 bc b6 01 00       	mov    %eax,0x1b6bc
   10d94:	8b 15 c4 b6 01 00    	mov    0x1b6c4,%edx
   10d9a:	8b 0d c8 b6 01 00    	mov    0x1b6c8,%ecx
   10da0:	8b 45 0c             	mov    0xc(%ebp),%eax
   10da3:	01 c1                	add    %eax,%ecx
   10da5:	a1 c8 b6 01 00       	mov    0x1b6c8,%eax
   10daa:	83 ec 04             	sub    $0x4,%esp
   10dad:	52                   	push   %edx
   10dae:	51                   	push   %ecx
   10daf:	50                   	push   %eax
   10db0:	e8 79 14 00 00       	call   1222e <__bound>
   10db5:	83 c4 10             	add    $0x10,%esp
   10db8:	a3 d0 b6 01 00       	mov    %eax,0x1b6d0
   10dbd:	e8 11 fe ff ff       	call   10bd3 <__c_setcursor>
   10dc2:	90                   	nop
   10dc3:	c9                   	leave  
   10dc4:	c3                   	ret    

00010dc5 <__cio_putchar_at>:
   10dc5:	55                   	push   %ebp
   10dc6:	89 e5                	mov    %esp,%ebp
   10dc8:	83 ec 10             	sub    $0x10,%esp
   10dcb:	8b 45 10             	mov    0x10(%ebp),%eax
   10dce:	83 e0 7f             	and    $0x7f,%eax
   10dd1:	83 f8 0a             	cmp    $0xa,%eax
   10dd4:	75 53                	jne    10e29 <__cio_putchar_at+0x64>
   10dd6:	a1 b4 b6 01 00       	mov    0x1b6b4,%eax
   10ddb:	39 45 08             	cmp    %eax,0x8(%ebp)
   10dde:	76 0a                	jbe    10dea <__cio_putchar_at+0x25>
   10de0:	a1 b8 b6 01 00       	mov    0x1b6b8,%eax
   10de5:	89 45 fc             	mov    %eax,-0x4(%ebp)
   10de8:	eb 35                	jmp    10e1f <__cio_putchar_at+0x5a>
   10dea:	a1 d8 b6 01 00       	mov    0x1b6d8,%eax
   10def:	39 45 08             	cmp    %eax,0x8(%ebp)
   10df2:	72 0a                	jb     10dfe <__cio_putchar_at+0x39>
   10df4:	a1 b4 b6 01 00       	mov    0x1b6b4,%eax
   10df9:	89 45 fc             	mov    %eax,-0x4(%ebp)
   10dfc:	eb 21                	jmp    10e1f <__cio_putchar_at+0x5a>
   10dfe:	a1 d8 b6 01 00       	mov    0x1b6d8,%eax
   10e03:	83 e8 01             	sub    $0x1,%eax
   10e06:	89 45 fc             	mov    %eax,-0x4(%ebp)
   10e09:	eb 14                	jmp    10e1f <__cio_putchar_at+0x5a>
   10e0b:	6a 20                	push   $0x20
   10e0d:	ff 75 0c             	pushl  0xc(%ebp)
   10e10:	ff 75 08             	pushl  0x8(%ebp)
   10e13:	e8 4c fe ff ff       	call   10c64 <__c_putchar_at>
   10e18:	83 c4 0c             	add    $0xc,%esp
   10e1b:	83 45 08 01          	addl   $0x1,0x8(%ebp)
   10e1f:	8b 45 08             	mov    0x8(%ebp),%eax
   10e22:	3b 45 fc             	cmp    -0x4(%ebp),%eax
   10e25:	76 e4                	jbe    10e0b <__cio_putchar_at+0x46>
   10e27:	eb 11                	jmp    10e3a <__cio_putchar_at+0x75>
   10e29:	ff 75 10             	pushl  0x10(%ebp)
   10e2c:	ff 75 0c             	pushl  0xc(%ebp)
   10e2f:	ff 75 08             	pushl  0x8(%ebp)
   10e32:	e8 2d fe ff ff       	call   10c64 <__c_putchar_at>
   10e37:	83 c4 0c             	add    $0xc,%esp
   10e3a:	90                   	nop
   10e3b:	c9                   	leave  
   10e3c:	c3                   	ret    

00010e3d <__cio_putchar>:
   10e3d:	55                   	push   %ebp
   10e3e:	89 e5                	mov    %esp,%ebp
   10e40:	83 ec 08             	sub    $0x8,%esp
   10e43:	8b 15 d0 b6 01 00    	mov    0x1b6d0,%edx
   10e49:	a1 c4 b6 01 00       	mov    0x1b6c4,%eax
   10e4e:	39 c2                	cmp    %eax,%edx
   10e50:	76 25                	jbe    10e77 <__cio_putchar+0x3a>
   10e52:	8b 15 d0 b6 01 00    	mov    0x1b6d0,%edx
   10e58:	a1 c4 b6 01 00       	mov    0x1b6c4,%eax
   10e5d:	29 c2                	sub    %eax,%edx
   10e5f:	89 d0                	mov    %edx,%eax
   10e61:	83 ec 0c             	sub    $0xc,%esp
   10e64:	50                   	push   %eax
   10e65:	e8 65 02 00 00       	call   110cf <__cio_scroll>
   10e6a:	83 c4 10             	add    $0x10,%esp
   10e6d:	a1 c4 b6 01 00       	mov    0x1b6c4,%eax
   10e72:	a3 d0 b6 01 00       	mov    %eax,0x1b6d0
   10e77:	8b 45 08             	mov    0x8(%ebp),%eax
   10e7a:	0f b6 c0             	movzbl %al,%eax
   10e7d:	83 f8 0a             	cmp    $0xa,%eax
   10e80:	74 2e                	je     10eb0 <__cio_putchar+0x73>
   10e82:	83 f8 0d             	cmp    $0xd,%eax
   10e85:	74 51                	je     10ed8 <__cio_putchar+0x9b>
   10e87:	eb 5b                	jmp    10ee4 <__cio_putchar+0xa7>
   10e89:	8b 15 d0 b6 01 00    	mov    0x1b6d0,%edx
   10e8f:	a1 bc b6 01 00       	mov    0x1b6bc,%eax
   10e94:	83 ec 04             	sub    $0x4,%esp
   10e97:	6a 20                	push   $0x20
   10e99:	52                   	push   %edx
   10e9a:	50                   	push   %eax
   10e9b:	e8 c4 fd ff ff       	call   10c64 <__c_putchar_at>
   10ea0:	83 c4 10             	add    $0x10,%esp
   10ea3:	a1 bc b6 01 00       	mov    0x1b6bc,%eax
   10ea8:	83 c0 01             	add    $0x1,%eax
   10eab:	a3 bc b6 01 00       	mov    %eax,0x1b6bc
   10eb0:	8b 15 bc b6 01 00    	mov    0x1b6bc,%edx
   10eb6:	a1 b4 b6 01 00       	mov    0x1b6b4,%eax
   10ebb:	39 c2                	cmp    %eax,%edx
   10ebd:	76 ca                	jbe    10e89 <__cio_putchar+0x4c>
   10ebf:	a1 d8 b6 01 00       	mov    0x1b6d8,%eax
   10ec4:	a3 bc b6 01 00       	mov    %eax,0x1b6bc
   10ec9:	a1 d0 b6 01 00       	mov    0x1b6d0,%eax
   10ece:	83 c0 01             	add    $0x1,%eax
   10ed1:	a3 d0 b6 01 00       	mov    %eax,0x1b6d0
   10ed6:	eb 5b                	jmp    10f33 <__cio_putchar+0xf6>
   10ed8:	a1 d8 b6 01 00       	mov    0x1b6d8,%eax
   10edd:	a3 bc b6 01 00       	mov    %eax,0x1b6bc
   10ee2:	eb 4f                	jmp    10f33 <__cio_putchar+0xf6>
   10ee4:	8b 15 d0 b6 01 00    	mov    0x1b6d0,%edx
   10eea:	a1 bc b6 01 00       	mov    0x1b6bc,%eax
   10eef:	83 ec 04             	sub    $0x4,%esp
   10ef2:	ff 75 08             	pushl  0x8(%ebp)
   10ef5:	52                   	push   %edx
   10ef6:	50                   	push   %eax
   10ef7:	e8 68 fd ff ff       	call   10c64 <__c_putchar_at>
   10efc:	83 c4 10             	add    $0x10,%esp
   10eff:	a1 bc b6 01 00       	mov    0x1b6bc,%eax
   10f04:	83 c0 01             	add    $0x1,%eax
   10f07:	a3 bc b6 01 00       	mov    %eax,0x1b6bc
   10f0c:	8b 15 bc b6 01 00    	mov    0x1b6bc,%edx
   10f12:	a1 b4 b6 01 00       	mov    0x1b6b4,%eax
   10f17:	39 c2                	cmp    %eax,%edx
   10f19:	76 17                	jbe    10f32 <__cio_putchar+0xf5>
   10f1b:	a1 d8 b6 01 00       	mov    0x1b6d8,%eax
   10f20:	a3 bc b6 01 00       	mov    %eax,0x1b6bc
   10f25:	a1 d0 b6 01 00       	mov    0x1b6d0,%eax
   10f2a:	83 c0 01             	add    $0x1,%eax
   10f2d:	a3 d0 b6 01 00       	mov    %eax,0x1b6d0
   10f32:	90                   	nop
   10f33:	e8 9b fc ff ff       	call   10bd3 <__c_setcursor>
   10f38:	90                   	nop
   10f39:	c9                   	leave  
   10f3a:	c3                   	ret    

00010f3b <__cio_puts_at>:
   10f3b:	55                   	push   %ebp
   10f3c:	89 e5                	mov    %esp,%ebp
   10f3e:	83 ec 10             	sub    $0x10,%esp
   10f41:	eb 15                	jmp    10f58 <__cio_puts_at+0x1d>
   10f43:	ff 75 fc             	pushl  -0x4(%ebp)
   10f46:	ff 75 0c             	pushl  0xc(%ebp)
   10f49:	ff 75 08             	pushl  0x8(%ebp)
   10f4c:	e8 74 fe ff ff       	call   10dc5 <__cio_putchar_at>
   10f51:	83 c4 0c             	add    $0xc,%esp
   10f54:	83 45 08 01          	addl   $0x1,0x8(%ebp)
   10f58:	8b 45 10             	mov    0x10(%ebp),%eax
   10f5b:	8d 50 01             	lea    0x1(%eax),%edx
   10f5e:	89 55 10             	mov    %edx,0x10(%ebp)
   10f61:	0f b6 00             	movzbl (%eax),%eax
   10f64:	0f be c0             	movsbl %al,%eax
   10f67:	89 45 fc             	mov    %eax,-0x4(%ebp)
   10f6a:	83 7d fc 00          	cmpl   $0x0,-0x4(%ebp)
   10f6e:	74 0a                	je     10f7a <__cio_puts_at+0x3f>
   10f70:	a1 b8 b6 01 00       	mov    0x1b6b8,%eax
   10f75:	39 45 08             	cmp    %eax,0x8(%ebp)
   10f78:	76 c9                	jbe    10f43 <__cio_puts_at+0x8>
   10f7a:	90                   	nop
   10f7b:	c9                   	leave  
   10f7c:	c3                   	ret    

00010f7d <__cio_puts>:
   10f7d:	55                   	push   %ebp
   10f7e:	89 e5                	mov    %esp,%ebp
   10f80:	83 ec 18             	sub    $0x18,%esp
   10f83:	eb 0e                	jmp    10f93 <__cio_puts+0x16>
   10f85:	83 ec 0c             	sub    $0xc,%esp
   10f88:	ff 75 f4             	pushl  -0xc(%ebp)
   10f8b:	e8 ad fe ff ff       	call   10e3d <__cio_putchar>
   10f90:	83 c4 10             	add    $0x10,%esp
   10f93:	8b 45 08             	mov    0x8(%ebp),%eax
   10f96:	8d 50 01             	lea    0x1(%eax),%edx
   10f99:	89 55 08             	mov    %edx,0x8(%ebp)
   10f9c:	0f b6 00             	movzbl (%eax),%eax
   10f9f:	0f be c0             	movsbl %al,%eax
   10fa2:	89 45 f4             	mov    %eax,-0xc(%ebp)
   10fa5:	83 7d f4 00          	cmpl   $0x0,-0xc(%ebp)
   10fa9:	75 da                	jne    10f85 <__cio_puts+0x8>
   10fab:	90                   	nop
   10fac:	c9                   	leave  
   10fad:	c3                   	ret    

00010fae <__cio_write>:
   10fae:	55                   	push   %ebp
   10faf:	89 e5                	mov    %esp,%ebp
   10fb1:	83 ec 18             	sub    $0x18,%esp
   10fb4:	c7 45 f4 00 00 00 00 	movl   $0x0,-0xc(%ebp)
   10fbb:	eb 1e                	jmp    10fdb <__cio_write+0x2d>
   10fbd:	8b 55 f4             	mov    -0xc(%ebp),%edx
   10fc0:	8b 45 08             	mov    0x8(%ebp),%eax
   10fc3:	01 d0                	add    %edx,%eax
   10fc5:	0f b6 00             	movzbl (%eax),%eax
   10fc8:	0f be c0             	movsbl %al,%eax
   10fcb:	83 ec 0c             	sub    $0xc,%esp
   10fce:	50                   	push   %eax
   10fcf:	e8 69 fe ff ff       	call   10e3d <__cio_putchar>
   10fd4:	83 c4 10             	add    $0x10,%esp
   10fd7:	83 45 f4 01          	addl   $0x1,-0xc(%ebp)
   10fdb:	8b 45 f4             	mov    -0xc(%ebp),%eax
   10fde:	3b 45 0c             	cmp    0xc(%ebp),%eax
   10fe1:	7c da                	jl     10fbd <__cio_write+0xf>
   10fe3:	90                   	nop
   10fe4:	c9                   	leave  
   10fe5:	c3                   	ret    

00010fe6 <__cio_clearscroll>:
   10fe6:	55                   	push   %ebp
   10fe7:	89 e5                	mov    %esp,%ebp
   10fe9:	83 ec 10             	sub    $0x10,%esp
   10fec:	8b 15 b4 b6 01 00    	mov    0x1b6b4,%edx
   10ff2:	a1 d8 b6 01 00       	mov    0x1b6d8,%eax
   10ff7:	29 c2                	sub    %eax,%edx
   10ff9:	89 d0                	mov    %edx,%eax
   10ffb:	83 c0 01             	add    $0x1,%eax
   10ffe:	89 45 f0             	mov    %eax,-0x10(%ebp)
   11001:	a1 c8 b6 01 00       	mov    0x1b6c8,%eax
   11006:	89 45 fc             	mov    %eax,-0x4(%ebp)
   11009:	eb 47                	jmp    11052 <__cio_clearscroll+0x6c>
   1100b:	8b 55 fc             	mov    -0x4(%ebp),%edx
   1100e:	89 d0                	mov    %edx,%eax
   11010:	c1 e0 02             	shl    $0x2,%eax
   11013:	01 d0                	add    %edx,%eax
   11015:	c1 e0 04             	shl    $0x4,%eax
   11018:	89 c2                	mov    %eax,%edx
   1101a:	a1 d8 b6 01 00       	mov    0x1b6d8,%eax
   1101f:	01 d0                	add    %edx,%eax
   11021:	05 00 c0 05 00       	add    $0x5c000,%eax
   11026:	01 c0                	add    %eax,%eax
   11028:	89 45 f4             	mov    %eax,-0xc(%ebp)
   1102b:	c7 45 f8 00 00 00 00 	movl   $0x0,-0x8(%ebp)
   11032:	eb 12                	jmp    11046 <__cio_clearscroll+0x60>
   11034:	8b 45 f4             	mov    -0xc(%ebp),%eax
   11037:	8d 50 02             	lea    0x2(%eax),%edx
   1103a:	89 55 f4             	mov    %edx,-0xc(%ebp)
   1103d:	66 c7 00 20 07       	movw   $0x720,(%eax)
   11042:	83 45 f8 01          	addl   $0x1,-0x8(%ebp)
   11046:	8b 45 f8             	mov    -0x8(%ebp),%eax
   11049:	3b 45 f0             	cmp    -0x10(%ebp),%eax
   1104c:	72 e6                	jb     11034 <__cio_clearscroll+0x4e>
   1104e:	83 45 fc 01          	addl   $0x1,-0x4(%ebp)
   11052:	a1 c4 b6 01 00       	mov    0x1b6c4,%eax
   11057:	39 45 fc             	cmp    %eax,-0x4(%ebp)
   1105a:	76 af                	jbe    1100b <__cio_clearscroll+0x25>
   1105c:	90                   	nop
   1105d:	c9                   	leave  
   1105e:	c3                   	ret    

0001105f <__cio_clearscreen>:
   1105f:	55                   	push   %ebp
   11060:	89 e5                	mov    %esp,%ebp
   11062:	83 ec 10             	sub    $0x10,%esp
   11065:	8b 15 c0 b6 01 00    	mov    0x1b6c0,%edx
   1106b:	89 d0                	mov    %edx,%eax
   1106d:	c1 e0 02             	shl    $0x2,%eax
   11070:	01 d0                	add    %edx,%eax
   11072:	c1 e0 04             	shl    $0x4,%eax
   11075:	89 c2                	mov    %eax,%edx
   11077:	a1 cc b6 01 00       	mov    0x1b6cc,%eax
   1107c:	01 d0                	add    %edx,%eax
   1107e:	05 00 c0 05 00       	add    $0x5c000,%eax
   11083:	01 c0                	add    %eax,%eax
   11085:	89 45 fc             	mov    %eax,-0x4(%ebp)
   11088:	8b 15 d4 b6 01 00    	mov    0x1b6d4,%edx
   1108e:	a1 c0 b6 01 00       	mov    0x1b6c0,%eax
   11093:	29 c2                	sub    %eax,%edx
   11095:	89 d0                	mov    %edx,%eax
   11097:	8d 48 01             	lea    0x1(%eax),%ecx
   1109a:	8b 15 b8 b6 01 00    	mov    0x1b6b8,%edx
   110a0:	a1 cc b6 01 00       	mov    0x1b6cc,%eax
   110a5:	29 c2                	sub    %eax,%edx
   110a7:	89 d0                	mov    %edx,%eax
   110a9:	83 c0 01             	add    $0x1,%eax
   110ac:	0f af c1             	imul   %ecx,%eax
   110af:	89 45 f8             	mov    %eax,-0x8(%ebp)
   110b2:	eb 12                	jmp    110c6 <__cio_clearscreen+0x67>
   110b4:	8b 45 fc             	mov    -0x4(%ebp),%eax
   110b7:	8d 50 02             	lea    0x2(%eax),%edx
   110ba:	89 55 fc             	mov    %edx,-0x4(%ebp)
   110bd:	66 c7 00 20 07       	movw   $0x720,(%eax)
   110c2:	83 6d f8 01          	subl   $0x1,-0x8(%ebp)
   110c6:	83 7d f8 00          	cmpl   $0x0,-0x8(%ebp)
   110ca:	75 e8                	jne    110b4 <__cio_clearscreen+0x55>
   110cc:	90                   	nop
   110cd:	c9                   	leave  
   110ce:	c3                   	ret    

000110cf <__cio_scroll>:
   110cf:	55                   	push   %ebp
   110d0:	89 e5                	mov    %esp,%ebp
   110d2:	83 ec 28             	sub    $0x28,%esp
   110d5:	8b 15 b4 b6 01 00    	mov    0x1b6b4,%edx
   110db:	a1 d8 b6 01 00       	mov    0x1b6d8,%eax
   110e0:	29 c2                	sub    %eax,%edx
   110e2:	89 d0                	mov    %edx,%eax
   110e4:	83 c0 01             	add    $0x1,%eax
   110e7:	89 45 e4             	mov    %eax,-0x1c(%ebp)
   110ea:	8b 15 c4 b6 01 00    	mov    0x1b6c4,%edx
   110f0:	a1 c8 b6 01 00       	mov    0x1b6c8,%eax
   110f5:	29 c2                	sub    %eax,%edx
   110f7:	89 d0                	mov    %edx,%eax
   110f9:	39 45 08             	cmp    %eax,0x8(%ebp)
   110fc:	76 23                	jbe    11121 <__cio_scroll+0x52>
   110fe:	e8 e3 fe ff ff       	call   10fe6 <__cio_clearscroll>
   11103:	a1 d8 b6 01 00       	mov    0x1b6d8,%eax
   11108:	a3 bc b6 01 00       	mov    %eax,0x1b6bc
   1110d:	a1 c8 b6 01 00       	mov    0x1b6c8,%eax
   11112:	a3 d0 b6 01 00       	mov    %eax,0x1b6d0
   11117:	e8 b7 fa ff ff       	call   10bd3 <__c_setcursor>
   1111c:	e9 ea 00 00 00       	jmp    1120b <__cio_scroll+0x13c>
   11121:	a1 c8 b6 01 00       	mov    0x1b6c8,%eax
   11126:	89 45 ec             	mov    %eax,-0x14(%ebp)
   11129:	eb 76                	jmp    111a1 <__cio_scroll+0xd2>
   1112b:	8b 55 ec             	mov    -0x14(%ebp),%edx
   1112e:	8b 45 08             	mov    0x8(%ebp),%eax
   11131:	01 c2                	add    %eax,%edx
   11133:	89 d0                	mov    %edx,%eax
   11135:	c1 e0 02             	shl    $0x2,%eax
   11138:	01 d0                	add    %edx,%eax
   1113a:	c1 e0 04             	shl    $0x4,%eax
   1113d:	89 c2                	mov    %eax,%edx
   1113f:	a1 d8 b6 01 00       	mov    0x1b6d8,%eax
   11144:	01 d0                	add    %edx,%eax
   11146:	05 00 c0 05 00       	add    $0x5c000,%eax
   1114b:	01 c0                	add    %eax,%eax
   1114d:	89 45 f4             	mov    %eax,-0xc(%ebp)
   11150:	8b 55 ec             	mov    -0x14(%ebp),%edx
   11153:	89 d0                	mov    %edx,%eax
   11155:	c1 e0 02             	shl    $0x2,%eax
   11158:	01 d0                	add    %edx,%eax
   1115a:	c1 e0 04             	shl    $0x4,%eax
   1115d:	89 c2                	mov    %eax,%edx
   1115f:	a1 d8 b6 01 00       	mov    0x1b6d8,%eax
   11164:	01 d0                	add    %edx,%eax
   11166:	05 00 c0 05 00       	add    $0x5c000,%eax
   1116b:	01 c0                	add    %eax,%eax
   1116d:	89 45 f0             	mov    %eax,-0x10(%ebp)
   11170:	c7 45 e8 00 00 00 00 	movl   $0x0,-0x18(%ebp)
   11177:	eb 1c                	jmp    11195 <__cio_scroll+0xc6>
   11179:	8b 55 f4             	mov    -0xc(%ebp),%edx
   1117c:	8d 42 02             	lea    0x2(%edx),%eax
   1117f:	89 45 f4             	mov    %eax,-0xc(%ebp)
   11182:	8b 45 f0             	mov    -0x10(%ebp),%eax
   11185:	8d 48 02             	lea    0x2(%eax),%ecx
   11188:	89 4d f0             	mov    %ecx,-0x10(%ebp)
   1118b:	0f b7 12             	movzwl (%edx),%edx
   1118e:	66 89 10             	mov    %dx,(%eax)
   11191:	83 45 e8 01          	addl   $0x1,-0x18(%ebp)
   11195:	8b 45 e8             	mov    -0x18(%ebp),%eax
   11198:	3b 45 e4             	cmp    -0x1c(%ebp),%eax
   1119b:	7c dc                	jl     11179 <__cio_scroll+0xaa>
   1119d:	83 45 ec 01          	addl   $0x1,-0x14(%ebp)
   111a1:	a1 c4 b6 01 00       	mov    0x1b6c4,%eax
   111a6:	2b 45 08             	sub    0x8(%ebp),%eax
   111a9:	89 c2                	mov    %eax,%edx
   111ab:	8b 45 ec             	mov    -0x14(%ebp),%eax
   111ae:	39 c2                	cmp    %eax,%edx
   111b0:	0f 83 75 ff ff ff    	jae    1112b <__cio_scroll+0x5c>
   111b6:	eb 47                	jmp    111ff <__cio_scroll+0x130>
   111b8:	8b 55 ec             	mov    -0x14(%ebp),%edx
   111bb:	89 d0                	mov    %edx,%eax
   111bd:	c1 e0 02             	shl    $0x2,%eax
   111c0:	01 d0                	add    %edx,%eax
   111c2:	c1 e0 04             	shl    $0x4,%eax
   111c5:	89 c2                	mov    %eax,%edx
   111c7:	a1 d8 b6 01 00       	mov    0x1b6d8,%eax
   111cc:	01 d0                	add    %edx,%eax
   111ce:	05 00 c0 05 00       	add    $0x5c000,%eax
   111d3:	01 c0                	add    %eax,%eax
   111d5:	89 45 f0             	mov    %eax,-0x10(%ebp)
   111d8:	c7 45 e8 00 00 00 00 	movl   $0x0,-0x18(%ebp)
   111df:	eb 12                	jmp    111f3 <__cio_scroll+0x124>
   111e1:	8b 45 f0             	mov    -0x10(%ebp),%eax
   111e4:	8d 50 02             	lea    0x2(%eax),%edx
   111e7:	89 55 f0             	mov    %edx,-0x10(%ebp)
   111ea:	66 c7 00 20 07       	movw   $0x720,(%eax)
   111ef:	83 45 e8 01          	addl   $0x1,-0x18(%ebp)
   111f3:	8b 45 e8             	mov    -0x18(%ebp),%eax
   111f6:	3b 45 e4             	cmp    -0x1c(%ebp),%eax
   111f9:	7c e6                	jl     111e1 <__cio_scroll+0x112>
   111fb:	83 45 ec 01          	addl   $0x1,-0x14(%ebp)
   111ff:	8b 55 ec             	mov    -0x14(%ebp),%edx
   11202:	a1 c4 b6 01 00       	mov    0x1b6c4,%eax
   11207:	39 c2                	cmp    %eax,%edx
   11209:	76 ad                	jbe    111b8 <__cio_scroll+0xe9>
   1120b:	c9                   	leave  
   1120c:	c3                   	ret    

0001120d <pad>:
   1120d:	55                   	push   %ebp
   1120e:	89 e5                	mov    %esp,%ebp
   11210:	83 ec 08             	sub    $0x8,%esp
   11213:	eb 39                	jmp    1124e <pad+0x41>
   11215:	83 7d 08 ff          	cmpl   $0xffffffff,0x8(%ebp)
   11219:	75 06                	jne    11221 <pad+0x14>
   1121b:	83 7d 0c ff          	cmpl   $0xffffffff,0xc(%ebp)
   1121f:	74 1a                	je     1123b <pad+0x2e>
   11221:	8b 4d 14             	mov    0x14(%ebp),%ecx
   11224:	8b 55 0c             	mov    0xc(%ebp),%edx
   11227:	8b 45 08             	mov    0x8(%ebp),%eax
   1122a:	51                   	push   %ecx
   1122b:	52                   	push   %edx
   1122c:	50                   	push   %eax
   1122d:	e8 93 fb ff ff       	call   10dc5 <__cio_putchar_at>
   11232:	83 c4 0c             	add    $0xc,%esp
   11235:	83 45 08 01          	addl   $0x1,0x8(%ebp)
   11239:	eb 0f                	jmp    1124a <pad+0x3d>
   1123b:	8b 45 14             	mov    0x14(%ebp),%eax
   1123e:	83 ec 0c             	sub    $0xc,%esp
   11241:	50                   	push   %eax
   11242:	e8 f6 fb ff ff       	call   10e3d <__cio_putchar>
   11247:	83 c4 10             	add    $0x10,%esp
   1124a:	83 6d 10 01          	subl   $0x1,0x10(%ebp)
   1124e:	83 7d 10 00          	cmpl   $0x0,0x10(%ebp)
   11252:	7f c1                	jg     11215 <pad+0x8>
   11254:	8b 45 08             	mov    0x8(%ebp),%eax
   11257:	c9                   	leave  
   11258:	c3                   	ret    

00011259 <padstr>:
   11259:	55                   	push   %ebp
   1125a:	89 e5                	mov    %esp,%ebp
   1125c:	83 ec 18             	sub    $0x18,%esp
   1125f:	83 7d 14 00          	cmpl   $0x0,0x14(%ebp)
   11263:	79 11                	jns    11276 <padstr+0x1d>
   11265:	83 ec 0c             	sub    $0xc,%esp
   11268:	ff 75 10             	pushl  0x10(%ebp)
   1126b:	e8 54 10 00 00       	call   122c4 <__strlen>
   11270:	83 c4 10             	add    $0x10,%esp
   11273:	89 45 14             	mov    %eax,0x14(%ebp)
   11276:	8b 45 18             	mov    0x18(%ebp),%eax
   11279:	2b 45 14             	sub    0x14(%ebp),%eax
   1127c:	89 45 f4             	mov    %eax,-0xc(%ebp)
   1127f:	83 7d f4 00          	cmpl   $0x0,-0xc(%ebp)
   11283:	7e 1d                	jle    112a2 <padstr+0x49>
   11285:	83 7d 1c 00          	cmpl   $0x0,0x1c(%ebp)
   11289:	75 17                	jne    112a2 <padstr+0x49>
   1128b:	ff 75 20             	pushl  0x20(%ebp)
   1128e:	ff 75 f4             	pushl  -0xc(%ebp)
   11291:	ff 75 0c             	pushl  0xc(%ebp)
   11294:	ff 75 08             	pushl  0x8(%ebp)
   11297:	e8 71 ff ff ff       	call   1120d <pad>
   1129c:	83 c4 10             	add    $0x10,%esp
   1129f:	89 45 08             	mov    %eax,0x8(%ebp)
   112a2:	83 7d 08 ff          	cmpl   $0xffffffff,0x8(%ebp)
   112a6:	75 06                	jne    112ae <padstr+0x55>
   112a8:	83 7d 0c ff          	cmpl   $0xffffffff,0xc(%ebp)
   112ac:	74 1e                	je     112cc <padstr+0x73>
   112ae:	8b 55 0c             	mov    0xc(%ebp),%edx
   112b1:	8b 45 08             	mov    0x8(%ebp),%eax
   112b4:	83 ec 04             	sub    $0x4,%esp
   112b7:	ff 75 10             	pushl  0x10(%ebp)
   112ba:	52                   	push   %edx
   112bb:	50                   	push   %eax
   112bc:	e8 7a fc ff ff       	call   10f3b <__cio_puts_at>
   112c1:	83 c4 10             	add    $0x10,%esp
   112c4:	8b 45 14             	mov    0x14(%ebp),%eax
   112c7:	01 45 08             	add    %eax,0x8(%ebp)
   112ca:	eb 0e                	jmp    112da <padstr+0x81>
   112cc:	83 ec 0c             	sub    $0xc,%esp
   112cf:	ff 75 10             	pushl  0x10(%ebp)
   112d2:	e8 a6 fc ff ff       	call   10f7d <__cio_puts>
   112d7:	83 c4 10             	add    $0x10,%esp
   112da:	83 7d f4 00          	cmpl   $0x0,-0xc(%ebp)
   112de:	7e 1d                	jle    112fd <padstr+0xa4>
   112e0:	83 7d 1c 00          	cmpl   $0x0,0x1c(%ebp)
   112e4:	74 17                	je     112fd <padstr+0xa4>
   112e6:	ff 75 20             	pushl  0x20(%ebp)
   112e9:	ff 75 f4             	pushl  -0xc(%ebp)
   112ec:	ff 75 0c             	pushl  0xc(%ebp)
   112ef:	ff 75 08             	pushl  0x8(%ebp)
   112f2:	e8 16 ff ff ff       	call   1120d <pad>
   112f7:	83 c4 10             	add    $0x10,%esp
   112fa:	89 45 08             	mov    %eax,0x8(%ebp)
   112fd:	8b 45 08             	mov    0x8(%ebp),%eax
   11300:	c9                   	leave  
   11301:	c3                   	ret    

00011302 <__c_do_printf>:
   11302:	55                   	push   %ebp
   11303:	89 e5                	mov    %esp,%ebp
   11305:	83 ec 38             	sub    $0x38,%esp
   11308:	8b 45 10             	mov    0x10(%ebp),%eax
   1130b:	8b 00                	mov    (%eax),%eax
   1130d:	89 45 f4             	mov    %eax,-0xc(%ebp)
   11310:	8b 45 10             	mov    0x10(%ebp),%eax
   11313:	83 c0 04             	add    $0x4,%eax
   11316:	89 45 f0             	mov    %eax,-0x10(%ebp)
   11319:	e9 56 02 00 00       	jmp    11574 <__c_do_printf+0x272>
   1131e:	80 7d ef 25          	cmpb   $0x25,-0x11(%ebp)
   11322:	0f 85 f4 01 00 00    	jne    1151c <__c_do_printf+0x21a>
   11328:	c7 45 e8 00 00 00 00 	movl   $0x0,-0x18(%ebp)
   1132f:	c7 45 e0 20 00 00 00 	movl   $0x20,-0x20(%ebp)
   11336:	c7 45 e4 00 00 00 00 	movl   $0x0,-0x1c(%ebp)
   1133d:	8b 45 f4             	mov    -0xc(%ebp),%eax
   11340:	8d 50 01             	lea    0x1(%eax),%edx
   11343:	89 55 f4             	mov    %edx,-0xc(%ebp)
   11346:	0f b6 00             	movzbl (%eax),%eax
   11349:	88 45 ef             	mov    %al,-0x11(%ebp)
   1134c:	80 7d ef 2d          	cmpb   $0x2d,-0x11(%ebp)
   11350:	75 16                	jne    11368 <__c_do_printf+0x66>
   11352:	c7 45 e8 01 00 00 00 	movl   $0x1,-0x18(%ebp)
   11359:	8b 45 f4             	mov    -0xc(%ebp),%eax
   1135c:	8d 50 01             	lea    0x1(%eax),%edx
   1135f:	89 55 f4             	mov    %edx,-0xc(%ebp)
   11362:	0f b6 00             	movzbl (%eax),%eax
   11365:	88 45 ef             	mov    %al,-0x11(%ebp)
   11368:	80 7d ef 30          	cmpb   $0x30,-0x11(%ebp)
   1136c:	75 40                	jne    113ae <__c_do_printf+0xac>
   1136e:	c7 45 e0 30 00 00 00 	movl   $0x30,-0x20(%ebp)
   11375:	8b 45 f4             	mov    -0xc(%ebp),%eax
   11378:	8d 50 01             	lea    0x1(%eax),%edx
   1137b:	89 55 f4             	mov    %edx,-0xc(%ebp)
   1137e:	0f b6 00             	movzbl (%eax),%eax
   11381:	88 45 ef             	mov    %al,-0x11(%ebp)
   11384:	eb 28                	jmp    113ae <__c_do_printf+0xac>
   11386:	8b 55 e4             	mov    -0x1c(%ebp),%edx
   11389:	89 d0                	mov    %edx,%eax
   1138b:	c1 e0 02             	shl    $0x2,%eax
   1138e:	01 d0                	add    %edx,%eax
   11390:	01 c0                	add    %eax,%eax
   11392:	89 45 e4             	mov    %eax,-0x1c(%ebp)
   11395:	0f be 45 ef          	movsbl -0x11(%ebp),%eax
   11399:	83 e8 30             	sub    $0x30,%eax
   1139c:	01 45 e4             	add    %eax,-0x1c(%ebp)
   1139f:	8b 45 f4             	mov    -0xc(%ebp),%eax
   113a2:	8d 50 01             	lea    0x1(%eax),%edx
   113a5:	89 55 f4             	mov    %edx,-0xc(%ebp)
   113a8:	0f b6 00             	movzbl (%eax),%eax
   113ab:	88 45 ef             	mov    %al,-0x11(%ebp)
   113ae:	80 7d ef 2f          	cmpb   $0x2f,-0x11(%ebp)
   113b2:	7e 06                	jle    113ba <__c_do_printf+0xb8>
   113b4:	80 7d ef 39          	cmpb   $0x39,-0x11(%ebp)
   113b8:	7e cc                	jle    11386 <__c_do_printf+0x84>
   113ba:	0f be 45 ef          	movsbl -0x11(%ebp),%eax
   113be:	83 e8 63             	sub    $0x63,%eax
   113c1:	83 f8 15             	cmp    $0x15,%eax
   113c4:	0f 87 aa 01 00 00    	ja     11574 <__c_do_printf+0x272>
   113ca:	8b 04 85 80 6b 01 00 	mov    0x16b80(,%eax,4),%eax
   113d1:	ff e0                	jmp    *%eax
   113d3:	8b 45 f0             	mov    -0x10(%ebp),%eax
   113d6:	8d 50 04             	lea    0x4(%eax),%edx
   113d9:	89 55 f0             	mov    %edx,-0x10(%ebp)
   113dc:	8b 00                	mov    (%eax),%eax
   113de:	88 45 ef             	mov    %al,-0x11(%ebp)
   113e1:	0f b6 45 ef          	movzbl -0x11(%ebp),%eax
   113e5:	88 45 cc             	mov    %al,-0x34(%ebp)
   113e8:	c6 45 cd 00          	movb   $0x0,-0x33(%ebp)
   113ec:	83 ec 04             	sub    $0x4,%esp
   113ef:	ff 75 e0             	pushl  -0x20(%ebp)
   113f2:	ff 75 e8             	pushl  -0x18(%ebp)
   113f5:	ff 75 e4             	pushl  -0x1c(%ebp)
   113f8:	6a 01                	push   $0x1
   113fa:	8d 45 cc             	lea    -0x34(%ebp),%eax
   113fd:	50                   	push   %eax
   113fe:	ff 75 0c             	pushl  0xc(%ebp)
   11401:	ff 75 08             	pushl  0x8(%ebp)
   11404:	e8 50 fe ff ff       	call   11259 <padstr>
   11409:	83 c4 20             	add    $0x20,%esp
   1140c:	89 45 08             	mov    %eax,0x8(%ebp)
   1140f:	e9 60 01 00 00       	jmp    11574 <__c_do_printf+0x272>
   11414:	8b 45 f0             	mov    -0x10(%ebp),%eax
   11417:	8d 50 04             	lea    0x4(%eax),%edx
   1141a:	89 55 f0             	mov    %edx,-0x10(%ebp)
   1141d:	8b 00                	mov    (%eax),%eax
   1141f:	83 ec 08             	sub    $0x8,%esp
   11422:	50                   	push   %eax
   11423:	8d 45 cc             	lea    -0x34(%ebp),%eax
   11426:	50                   	push   %eax
   11427:	e8 c6 12 00 00       	call   126f2 <__cvtdec>
   1142c:	83 c4 10             	add    $0x10,%esp
   1142f:	89 45 dc             	mov    %eax,-0x24(%ebp)
   11432:	83 ec 04             	sub    $0x4,%esp
   11435:	ff 75 e0             	pushl  -0x20(%ebp)
   11438:	ff 75 e8             	pushl  -0x18(%ebp)
   1143b:	ff 75 e4             	pushl  -0x1c(%ebp)
   1143e:	ff 75 dc             	pushl  -0x24(%ebp)
   11441:	8d 45 cc             	lea    -0x34(%ebp),%eax
   11444:	50                   	push   %eax
   11445:	ff 75 0c             	pushl  0xc(%ebp)
   11448:	ff 75 08             	pushl  0x8(%ebp)
   1144b:	e8 09 fe ff ff       	call   11259 <padstr>
   11450:	83 c4 20             	add    $0x20,%esp
   11453:	89 45 08             	mov    %eax,0x8(%ebp)
   11456:	e9 19 01 00 00       	jmp    11574 <__c_do_printf+0x272>
   1145b:	8b 45 f0             	mov    -0x10(%ebp),%eax
   1145e:	8d 50 04             	lea    0x4(%eax),%edx
   11461:	89 55 f0             	mov    %edx,-0x10(%ebp)
   11464:	8b 00                	mov    (%eax),%eax
   11466:	89 45 d8             	mov    %eax,-0x28(%ebp)
   11469:	83 ec 04             	sub    $0x4,%esp
   1146c:	ff 75 e0             	pushl  -0x20(%ebp)
   1146f:	ff 75 e8             	pushl  -0x18(%ebp)
   11472:	ff 75 e4             	pushl  -0x1c(%ebp)
   11475:	6a ff                	push   $0xffffffff
   11477:	ff 75 d8             	pushl  -0x28(%ebp)
   1147a:	ff 75 0c             	pushl  0xc(%ebp)
   1147d:	ff 75 08             	pushl  0x8(%ebp)
   11480:	e8 d4 fd ff ff       	call   11259 <padstr>
   11485:	83 c4 20             	add    $0x20,%esp
   11488:	89 45 08             	mov    %eax,0x8(%ebp)
   1148b:	e9 e4 00 00 00       	jmp    11574 <__c_do_printf+0x272>
   11490:	8b 45 f0             	mov    -0x10(%ebp),%eax
   11493:	8d 50 04             	lea    0x4(%eax),%edx
   11496:	89 55 f0             	mov    %edx,-0x10(%ebp)
   11499:	8b 00                	mov    (%eax),%eax
   1149b:	83 ec 08             	sub    $0x8,%esp
   1149e:	50                   	push   %eax
   1149f:	8d 45 cc             	lea    -0x34(%ebp),%eax
   114a2:	50                   	push   %eax
   114a3:	e8 91 12 00 00       	call   12739 <__cvthex>
   114a8:	83 c4 10             	add    $0x10,%esp
   114ab:	89 45 dc             	mov    %eax,-0x24(%ebp)
   114ae:	83 ec 04             	sub    $0x4,%esp
   114b1:	ff 75 e0             	pushl  -0x20(%ebp)
   114b4:	ff 75 e8             	pushl  -0x18(%ebp)
   114b7:	ff 75 e4             	pushl  -0x1c(%ebp)
   114ba:	ff 75 dc             	pushl  -0x24(%ebp)
   114bd:	8d 45 cc             	lea    -0x34(%ebp),%eax
   114c0:	50                   	push   %eax
   114c1:	ff 75 0c             	pushl  0xc(%ebp)
   114c4:	ff 75 08             	pushl  0x8(%ebp)
   114c7:	e8 8d fd ff ff       	call   11259 <padstr>
   114cc:	83 c4 20             	add    $0x20,%esp
   114cf:	89 45 08             	mov    %eax,0x8(%ebp)
   114d2:	e9 9d 00 00 00       	jmp    11574 <__c_do_printf+0x272>
   114d7:	8b 45 f0             	mov    -0x10(%ebp),%eax
   114da:	8d 50 04             	lea    0x4(%eax),%edx
   114dd:	89 55 f0             	mov    %edx,-0x10(%ebp)
   114e0:	8b 00                	mov    (%eax),%eax
   114e2:	83 ec 08             	sub    $0x8,%esp
   114e5:	50                   	push   %eax
   114e6:	8d 45 cc             	lea    -0x34(%ebp),%eax
   114e9:	50                   	push   %eax
   114ea:	e8 c9 12 00 00       	call   127b8 <__cvtoct>
   114ef:	83 c4 10             	add    $0x10,%esp
   114f2:	89 45 dc             	mov    %eax,-0x24(%ebp)
   114f5:	83 ec 04             	sub    $0x4,%esp
   114f8:	ff 75 e0             	pushl  -0x20(%ebp)
   114fb:	ff 75 e8             	pushl  -0x18(%ebp)
   114fe:	ff 75 e4             	pushl  -0x1c(%ebp)
   11501:	ff 75 dc             	pushl  -0x24(%ebp)
   11504:	8d 45 cc             	lea    -0x34(%ebp),%eax
   11507:	50                   	push   %eax
   11508:	ff 75 0c             	pushl  0xc(%ebp)
   1150b:	ff 75 08             	pushl  0x8(%ebp)
   1150e:	e8 46 fd ff ff       	call   11259 <padstr>
   11513:	83 c4 20             	add    $0x20,%esp
   11516:	89 45 08             	mov    %eax,0x8(%ebp)
   11519:	90                   	nop
   1151a:	eb 58                	jmp    11574 <__c_do_printf+0x272>
   1151c:	83 7d 08 ff          	cmpl   $0xffffffff,0x8(%ebp)
   11520:	75 06                	jne    11528 <__c_do_printf+0x226>
   11522:	83 7d 0c ff          	cmpl   $0xffffffff,0xc(%ebp)
   11526:	74 3c                	je     11564 <__c_do_printf+0x262>
   11528:	0f be 4d ef          	movsbl -0x11(%ebp),%ecx
   1152c:	8b 55 0c             	mov    0xc(%ebp),%edx
   1152f:	8b 45 08             	mov    0x8(%ebp),%eax
   11532:	83 ec 04             	sub    $0x4,%esp
   11535:	51                   	push   %ecx
   11536:	52                   	push   %edx
   11537:	50                   	push   %eax
   11538:	e8 88 f8 ff ff       	call   10dc5 <__cio_putchar_at>
   1153d:	83 c4 10             	add    $0x10,%esp
   11540:	0f be 45 ef          	movsbl -0x11(%ebp),%eax
   11544:	83 f8 0a             	cmp    $0xa,%eax
   11547:	74 07                	je     11550 <__c_do_printf+0x24e>
   11549:	83 f8 0d             	cmp    $0xd,%eax
   1154c:	74 06                	je     11554 <__c_do_printf+0x252>
   1154e:	eb 0e                	jmp    1155e <__c_do_printf+0x25c>
   11550:	83 45 0c 01          	addl   $0x1,0xc(%ebp)
   11554:	a1 d8 b6 01 00       	mov    0x1b6d8,%eax
   11559:	89 45 08             	mov    %eax,0x8(%ebp)
   1155c:	eb 04                	jmp    11562 <__c_do_printf+0x260>
   1155e:	83 45 08 01          	addl   $0x1,0x8(%ebp)
   11562:	eb 10                	jmp    11574 <__c_do_printf+0x272>
   11564:	0f be 45 ef          	movsbl -0x11(%ebp),%eax
   11568:	83 ec 0c             	sub    $0xc,%esp
   1156b:	50                   	push   %eax
   1156c:	e8 cc f8 ff ff       	call   10e3d <__cio_putchar>
   11571:	83 c4 10             	add    $0x10,%esp
   11574:	8b 45 f4             	mov    -0xc(%ebp),%eax
   11577:	8d 50 01             	lea    0x1(%eax),%edx
   1157a:	89 55 f4             	mov    %edx,-0xc(%ebp)
   1157d:	0f b6 00             	movzbl (%eax),%eax
   11580:	88 45 ef             	mov    %al,-0x11(%ebp)
   11583:	80 7d ef 00          	cmpb   $0x0,-0x11(%ebp)
   11587:	0f 85 91 fd ff ff    	jne    1131e <__c_do_printf+0x1c>
   1158d:	90                   	nop
   1158e:	c9                   	leave  
   1158f:	c3                   	ret    

00011590 <__cio_printf_at>:
   11590:	55                   	push   %ebp
   11591:	89 e5                	mov    %esp,%ebp
   11593:	83 ec 08             	sub    $0x8,%esp
   11596:	8b 55 0c             	mov    0xc(%ebp),%edx
   11599:	8b 45 08             	mov    0x8(%ebp),%eax
   1159c:	83 ec 04             	sub    $0x4,%esp
   1159f:	8d 4d 10             	lea    0x10(%ebp),%ecx
   115a2:	51                   	push   %ecx
   115a3:	52                   	push   %edx
   115a4:	50                   	push   %eax
   115a5:	e8 58 fd ff ff       	call   11302 <__c_do_printf>
   115aa:	83 c4 10             	add    $0x10,%esp
   115ad:	90                   	nop
   115ae:	c9                   	leave  
   115af:	c3                   	ret    

000115b0 <__cio_printf>:
   115b0:	55                   	push   %ebp
   115b1:	89 e5                	mov    %esp,%ebp
   115b3:	83 ec 08             	sub    $0x8,%esp
   115b6:	83 ec 04             	sub    $0x4,%esp
   115b9:	8d 45 08             	lea    0x8(%ebp),%eax
   115bc:	50                   	push   %eax
   115bd:	6a ff                	push   $0xffffffff
   115bf:	6a ff                	push   $0xffffffff
   115c1:	e8 3c fd ff ff       	call   11302 <__c_do_printf>
   115c6:	83 c4 10             	add    $0x10,%esp
   115c9:	90                   	nop
   115ca:	c9                   	leave  
   115cb:	c3                   	ret    

000115cc <__c_increment>:
   115cc:	55                   	push   %ebp
   115cd:	89 e5                	mov    %esp,%ebp
   115cf:	83 45 08 01          	addl   $0x1,0x8(%ebp)
   115d3:	b8 08 a6 01 00       	mov    $0x1a608,%eax
   115d8:	39 45 08             	cmp    %eax,0x8(%ebp)
   115db:	72 07                	jb     115e4 <__c_increment+0x18>
   115dd:	c7 45 08 40 a5 01 00 	movl   $0x1a540,0x8(%ebp)
   115e4:	8b 45 08             	mov    0x8(%ebp),%eax
   115e7:	5d                   	pop    %ebp
   115e8:	c3                   	ret    

000115e9 <__c_input_scan_code>:
   115e9:	55                   	push   %ebp
   115ea:	89 e5                	mov    %esp,%ebp
   115ec:	83 ec 10             	sub    $0x10,%esp
   115ef:	c7 45 fc ff ff ff ff 	movl   $0xffffffff,-0x4(%ebp)
   115f6:	81 65 08 ff 00 00 00 	andl   $0xff,0x8(%ebp)
   115fd:	8b 45 08             	mov    0x8(%ebp),%eax
   11600:	83 f8 36             	cmp    $0x36,%eax
   11603:	74 28                	je     1162d <__c_input_scan_code+0x44>
   11605:	83 f8 36             	cmp    $0x36,%eax
   11608:	7f 0c                	jg     11616 <__c_input_scan_code+0x2d>
   1160a:	83 f8 1d             	cmp    $0x1d,%eax
   1160d:	74 3c                	je     1164b <__c_input_scan_code+0x62>
   1160f:	83 f8 2a             	cmp    $0x2a,%eax
   11612:	74 19                	je     1162d <__c_input_scan_code+0x44>
   11614:	eb 4d                	jmp    11663 <__c_input_scan_code+0x7a>
   11616:	3d aa 00 00 00       	cmp    $0xaa,%eax
   1161b:	74 1f                	je     1163c <__c_input_scan_code+0x53>
   1161d:	3d b6 00 00 00       	cmp    $0xb6,%eax
   11622:	74 18                	je     1163c <__c_input_scan_code+0x53>
   11624:	3d 9d 00 00 00       	cmp    $0x9d,%eax
   11629:	74 2c                	je     11657 <__c_input_scan_code+0x6e>
   1162b:	eb 36                	jmp    11663 <__c_input_scan_code+0x7a>
   1162d:	c7 05 08 a6 01 00 01 	movl   $0x1,0x1a608
   11634:	00 00 00 
   11637:	e9 99 00 00 00       	jmp    116d5 <__c_input_scan_code+0xec>
   1163c:	c7 05 08 a6 01 00 00 	movl   $0x0,0x1a608
   11643:	00 00 00 
   11646:	e9 8a 00 00 00       	jmp    116d5 <__c_input_scan_code+0xec>
   1164b:	c7 05 08 a5 01 00 1f 	movl   $0x1f,0x1a508
   11652:	00 00 00 
   11655:	eb 7e                	jmp    116d5 <__c_input_scan_code+0xec>
   11657:	c7 05 08 a5 01 00 ff 	movl   $0xff,0x1a508
   1165e:	00 00 00 
   11661:	eb 72                	jmp    116d5 <__c_input_scan_code+0xec>
   11663:	8b 45 08             	mov    0x8(%ebp),%eax
   11666:	25 80 00 00 00       	and    $0x80,%eax
   1166b:	85 c0                	test   %eax,%eax
   1166d:	75 66                	jne    116d5 <__c_input_scan_code+0xec>
   1166f:	a1 08 a6 01 00       	mov    0x1a608,%eax
   11674:	c1 e0 07             	shl    $0x7,%eax
   11677:	89 c2                	mov    %eax,%edx
   11679:	8b 45 08             	mov    0x8(%ebp),%eax
   1167c:	01 d0                	add    %edx,%eax
   1167e:	05 00 a4 01 00       	add    $0x1a400,%eax
   11683:	0f b6 00             	movzbl (%eax),%eax
   11686:	0f b6 c0             	movzbl %al,%eax
   11689:	89 45 08             	mov    %eax,0x8(%ebp)
   1168c:	83 7d 08 ff          	cmpl   $0xffffffff,0x8(%ebp)
   11690:	74 43                	je     116d5 <__c_input_scan_code+0xec>
   11692:	a1 04 a5 01 00       	mov    0x1a504,%eax
   11697:	50                   	push   %eax
   11698:	e8 2f ff ff ff       	call   115cc <__c_increment>
   1169d:	83 c4 04             	add    $0x4,%esp
   116a0:	89 45 f8             	mov    %eax,-0x8(%ebp)
   116a3:	a1 08 a5 01 00       	mov    0x1a508,%eax
   116a8:	23 45 08             	and    0x8(%ebp),%eax
   116ab:	89 45 fc             	mov    %eax,-0x4(%ebp)
   116ae:	a1 00 a5 01 00       	mov    0x1a500,%eax
   116b3:	39 45 f8             	cmp    %eax,-0x8(%ebp)
   116b6:	74 1d                	je     116d5 <__c_input_scan_code+0xec>
   116b8:	8b 45 08             	mov    0x8(%ebp),%eax
   116bb:	89 c1                	mov    %eax,%ecx
   116bd:	a1 08 a5 01 00       	mov    0x1a508,%eax
   116c2:	89 c2                	mov    %eax,%edx
   116c4:	a1 04 a5 01 00       	mov    0x1a504,%eax
   116c9:	21 ca                	and    %ecx,%edx
   116cb:	88 10                	mov    %dl,(%eax)
   116cd:	8b 45 f8             	mov    -0x8(%ebp),%eax
   116d0:	a3 04 a5 01 00       	mov    %eax,0x1a504
   116d5:	8b 45 fc             	mov    -0x4(%ebp),%eax
   116d8:	c9                   	leave  
   116d9:	c3                   	ret    

000116da <__c_keyboard_isr>:
   116da:	55                   	push   %ebp
   116db:	89 e5                	mov    %esp,%ebp
   116dd:	83 ec 18             	sub    $0x18,%esp
   116e0:	83 ec 0c             	sub    $0xc,%esp
   116e3:	6a 60                	push   $0x60
   116e5:	e8 e3 4a 00 00       	call   161cd <__inb>
   116ea:	83 c4 10             	add    $0x10,%esp
   116ed:	83 ec 0c             	sub    $0xc,%esp
   116f0:	50                   	push   %eax
   116f1:	e8 f3 fe ff ff       	call   115e9 <__c_input_scan_code>
   116f6:	83 c4 10             	add    $0x10,%esp
   116f9:	89 45 f4             	mov    %eax,-0xc(%ebp)
   116fc:	83 7d f4 ff          	cmpl   $0xffffffff,-0xc(%ebp)
   11700:	74 19                	je     1171b <__c_keyboard_isr+0x41>
   11702:	a1 20 a5 01 00       	mov    0x1a520,%eax
   11707:	85 c0                	test   %eax,%eax
   11709:	74 10                	je     1171b <__c_keyboard_isr+0x41>
   1170b:	a1 20 a5 01 00       	mov    0x1a520,%eax
   11710:	83 ec 0c             	sub    $0xc,%esp
   11713:	ff 75 f4             	pushl  -0xc(%ebp)
   11716:	ff d0                	call   *%eax
   11718:	83 c4 10             	add    $0x10,%esp
   1171b:	83 ec 08             	sub    $0x8,%esp
   1171e:	6a 20                	push   $0x20
   11720:	6a 20                	push   $0x20
   11722:	e8 c8 4a 00 00       	call   161ef <__outb>
   11727:	83 c4 10             	add    $0x10,%esp
   1172a:	90                   	nop
   1172b:	c9                   	leave  
   1172c:	c3                   	ret    

0001172d <__cio_getchar>:
   1172d:	55                   	push   %ebp
   1172e:	89 e5                	mov    %esp,%ebp
   11730:	83 ec 18             	sub    $0x18,%esp
   11733:	e8 dc 4a 00 00       	call   16214 <__get_flags>
   11738:	25 00 02 00 00       	and    $0x200,%eax
   1173d:	89 45 f4             	mov    %eax,-0xc(%ebp)
   11740:	eb 34                	jmp    11776 <__cio_getchar+0x49>
   11742:	83 7d f4 00          	cmpl   $0x0,-0xc(%ebp)
   11746:	75 2e                	jne    11776 <__cio_getchar+0x49>
   11748:	90                   	nop
   11749:	83 ec 0c             	sub    $0xc,%esp
   1174c:	6a 64                	push   $0x64
   1174e:	e8 7a 4a 00 00       	call   161cd <__inb>
   11753:	83 c4 10             	add    $0x10,%esp
   11756:	83 e0 01             	and    $0x1,%eax
   11759:	85 c0                	test   %eax,%eax
   1175b:	74 ec                	je     11749 <__cio_getchar+0x1c>
   1175d:	83 ec 0c             	sub    $0xc,%esp
   11760:	6a 60                	push   $0x60
   11762:	e8 66 4a 00 00       	call   161cd <__inb>
   11767:	83 c4 10             	add    $0x10,%esp
   1176a:	83 ec 0c             	sub    $0xc,%esp
   1176d:	50                   	push   %eax
   1176e:	e8 76 fe ff ff       	call   115e9 <__c_input_scan_code>
   11773:	83 c4 10             	add    $0x10,%esp
   11776:	8b 15 00 a5 01 00    	mov    0x1a500,%edx
   1177c:	a1 04 a5 01 00       	mov    0x1a504,%eax
   11781:	39 c2                	cmp    %eax,%edx
   11783:	74 bd                	je     11742 <__cio_getchar+0x15>
   11785:	a1 00 a5 01 00       	mov    0x1a500,%eax
   1178a:	0f b6 00             	movzbl (%eax),%eax
   1178d:	88 45 f3             	mov    %al,-0xd(%ebp)
   11790:	a1 00 a5 01 00       	mov    0x1a500,%eax
   11795:	83 ec 0c             	sub    $0xc,%esp
   11798:	50                   	push   %eax
   11799:	e8 2e fe ff ff       	call   115cc <__c_increment>
   1179e:	83 c4 10             	add    $0x10,%esp
   117a1:	a3 00 a5 01 00       	mov    %eax,0x1a500
   117a6:	80 7d f3 04          	cmpb   $0x4,-0xd(%ebp)
   117aa:	74 10                	je     117bc <__cio_getchar+0x8f>
   117ac:	0f be 45 f3          	movsbl -0xd(%ebp),%eax
   117b0:	83 ec 0c             	sub    $0xc,%esp
   117b3:	50                   	push   %eax
   117b4:	e8 84 f6 ff ff       	call   10e3d <__cio_putchar>
   117b9:	83 c4 10             	add    $0x10,%esp
   117bc:	0f be 45 f3          	movsbl -0xd(%ebp),%eax
   117c0:	c9                   	leave  
   117c1:	c3                   	ret    

000117c2 <__cio_gets>:
   117c2:	55                   	push   %ebp
   117c3:	89 e5                	mov    %esp,%ebp
   117c5:	83 ec 18             	sub    $0x18,%esp
   117c8:	c7 45 f4 00 00 00 00 	movl   $0x0,-0xc(%ebp)
   117cf:	eb 2b                	jmp    117fc <__cio_gets+0x3a>
   117d1:	e8 57 ff ff ff       	call   1172d <__cio_getchar>
   117d6:	88 45 f3             	mov    %al,-0xd(%ebp)
   117d9:	80 7d f3 04          	cmpb   $0x4,-0xd(%ebp)
   117dd:	74 25                	je     11804 <__cio_gets+0x42>
   117df:	8b 45 08             	mov    0x8(%ebp),%eax
   117e2:	8d 50 01             	lea    0x1(%eax),%edx
   117e5:	89 55 08             	mov    %edx,0x8(%ebp)
   117e8:	0f b6 55 f3          	movzbl -0xd(%ebp),%edx
   117ec:	88 10                	mov    %dl,(%eax)
   117ee:	83 45 f4 01          	addl   $0x1,-0xc(%ebp)
   117f2:	83 6d 0c 01          	subl   $0x1,0xc(%ebp)
   117f6:	80 7d f3 0a          	cmpb   $0xa,-0xd(%ebp)
   117fa:	74 0b                	je     11807 <__cio_gets+0x45>
   117fc:	83 7d 0c 01          	cmpl   $0x1,0xc(%ebp)
   11800:	77 cf                	ja     117d1 <__cio_gets+0xf>
   11802:	eb 04                	jmp    11808 <__cio_gets+0x46>
   11804:	90                   	nop
   11805:	eb 01                	jmp    11808 <__cio_gets+0x46>
   11807:	90                   	nop
   11808:	8b 45 08             	mov    0x8(%ebp),%eax
   1180b:	c6 00 00             	movb   $0x0,(%eax)
   1180e:	8b 45 f4             	mov    -0xc(%ebp),%eax
   11811:	c9                   	leave  
   11812:	c3                   	ret    

00011813 <__cio_input_queue>:
   11813:	55                   	push   %ebp
   11814:	89 e5                	mov    %esp,%ebp
   11816:	83 ec 10             	sub    $0x10,%esp
   11819:	a1 04 a5 01 00       	mov    0x1a504,%eax
   1181e:	89 c2                	mov    %eax,%edx
   11820:	a1 00 a5 01 00       	mov    0x1a500,%eax
   11825:	29 c2                	sub    %eax,%edx
   11827:	89 d0                	mov    %edx,%eax
   11829:	89 45 fc             	mov    %eax,-0x4(%ebp)
   1182c:	83 7d fc 00          	cmpl   $0x0,-0x4(%ebp)
   11830:	79 07                	jns    11839 <__cio_input_queue+0x26>
   11832:	81 45 fc c8 00 00 00 	addl   $0xc8,-0x4(%ebp)
   11839:	8b 45 fc             	mov    -0x4(%ebp),%eax
   1183c:	c9                   	leave  
   1183d:	c3                   	ret    

0001183e <__cio_init>:
   1183e:	55                   	push   %ebp
   1183f:	89 e5                	mov    %esp,%ebp
   11841:	83 ec 08             	sub    $0x8,%esp
   11844:	c7 05 cc b6 01 00 00 	movl   $0x0,0x1b6cc
   1184b:	00 00 00 
   1184e:	c7 05 c0 b6 01 00 00 	movl   $0x0,0x1b6c0
   11855:	00 00 00 
   11858:	c7 05 b8 b6 01 00 4f 	movl   $0x4f,0x1b6b8
   1185f:	00 00 00 
   11862:	c7 05 d4 b6 01 00 18 	movl   $0x18,0x1b6d4
   11869:	00 00 00 
   1186c:	c7 05 d8 b6 01 00 00 	movl   $0x0,0x1b6d8
   11873:	00 00 00 
   11876:	c7 05 c8 b6 01 00 00 	movl   $0x0,0x1b6c8
   1187d:	00 00 00 
   11880:	c7 05 b4 b6 01 00 4f 	movl   $0x4f,0x1b6b4
   11887:	00 00 00 
   1188a:	c7 05 c4 b6 01 00 18 	movl   $0x18,0x1b6c4
   11891:	00 00 00 
   11894:	a1 c0 b6 01 00       	mov    0x1b6c0,%eax
   11899:	a3 d0 b6 01 00       	mov    %eax,0x1b6d0
   1189e:	a1 cc b6 01 00       	mov    0x1b6cc,%eax
   118a3:	a3 bc b6 01 00       	mov    %eax,0x1b6bc
   118a8:	e8 26 f3 ff ff       	call   10bd3 <__c_setcursor>
   118ad:	8b 45 08             	mov    0x8(%ebp),%eax
   118b0:	a3 20 a5 01 00       	mov    %eax,0x1a520
   118b5:	83 ec 08             	sub    $0x8,%esp
   118b8:	68 da 16 01 00       	push   $0x116da
   118bd:	6a 21                	push   $0x21
   118bf:	e8 4f 02 00 00       	call   11b13 <__install_isr>
   118c4:	83 c4 10             	add    $0x10,%esp
   118c7:	90                   	nop
   118c8:	c9                   	leave  
   118c9:	c3                   	ret    

000118ca <__default_unexpected_handler>:
   118ca:	55                   	push   %ebp
   118cb:	89 e5                	mov    %esp,%ebp
   118cd:	83 ec 08             	sub    $0x8,%esp
   118d0:	83 ec 04             	sub    $0x4,%esp
   118d3:	ff 75 0c             	pushl  0xc(%ebp)
   118d6:	ff 75 08             	pushl  0x8(%ebp)
   118d9:	68 d8 6b 01 00       	push   $0x16bd8
   118de:	e8 cd fc ff ff       	call   115b0 <__cio_printf>
   118e3:	83 c4 10             	add    $0x10,%esp
   118e6:	83 ec 0c             	sub    $0xc,%esp
   118e9:	68 fa 6b 01 00       	push   $0x16bfa
   118ee:	e8 f1 01 00 00       	call   11ae4 <__panic>
   118f3:	83 c4 10             	add    $0x10,%esp
   118f6:	90                   	nop
   118f7:	c9                   	leave  
   118f8:	c3                   	ret    

000118f9 <__default_expected_handler>:
   118f9:	55                   	push   %ebp
   118fa:	89 e5                	mov    %esp,%ebp
   118fc:	83 ec 08             	sub    $0x8,%esp
   118ff:	83 ec 04             	sub    $0x4,%esp
   11902:	ff 75 0c             	pushl  0xc(%ebp)
   11905:	ff 75 08             	pushl  0x8(%ebp)
   11908:	68 10 6c 01 00       	push   $0x16c10
   1190d:	e8 9e fc ff ff       	call   115b0 <__cio_printf>
   11912:	83 c4 10             	add    $0x10,%esp
   11915:	83 7d 08 1f          	cmpl   $0x1f,0x8(%ebp)
   11919:	7e 2f                	jle    1194a <__default_expected_handler+0x51>
   1191b:	83 7d 08 2f          	cmpl   $0x2f,0x8(%ebp)
   1191f:	7f 29                	jg     1194a <__default_expected_handler+0x51>
   11921:	83 ec 08             	sub    $0x8,%esp
   11924:	6a 20                	push   $0x20
   11926:	6a 20                	push   $0x20
   11928:	e8 c2 48 00 00       	call   161ef <__outb>
   1192d:	83 c4 10             	add    $0x10,%esp
   11930:	83 7d 08 27          	cmpl   $0x27,0x8(%ebp)
   11934:	7e 24                	jle    1195a <__default_expected_handler+0x61>
   11936:	83 ec 08             	sub    $0x8,%esp
   11939:	6a 20                	push   $0x20
   1193b:	68 a0 00 00 00       	push   $0xa0
   11940:	e8 aa 48 00 00       	call   161ef <__outb>
   11945:	83 c4 10             	add    $0x10,%esp
   11948:	eb 10                	jmp    1195a <__default_expected_handler+0x61>
   1194a:	83 ec 0c             	sub    $0xc,%esp
   1194d:	68 30 6c 01 00       	push   $0x16c30
   11952:	e8 8d 01 00 00       	call   11ae4 <__panic>
   11957:	83 c4 10             	add    $0x10,%esp
   1195a:	90                   	nop
   1195b:	c9                   	leave  
   1195c:	c3                   	ret    

0001195d <__default_mystery_handler>:
   1195d:	55                   	push   %ebp
   1195e:	89 e5                	mov    %esp,%ebp
   11960:	83 ec 08             	sub    $0x8,%esp
   11963:	83 ec 08             	sub    $0x8,%esp
   11966:	6a 20                	push   $0x20
   11968:	6a 20                	push   $0x20
   1196a:	e8 80 48 00 00       	call   161ef <__outb>
   1196f:	83 c4 10             	add    $0x10,%esp
   11972:	90                   	nop
   11973:	c9                   	leave  
   11974:	c3                   	ret    

00011975 <init_pic>:
   11975:	55                   	push   %ebp
   11976:	89 e5                	mov    %esp,%ebp
   11978:	83 ec 08             	sub    $0x8,%esp
   1197b:	83 ec 08             	sub    $0x8,%esp
   1197e:	6a 11                	push   $0x11
   11980:	6a 20                	push   $0x20
   11982:	e8 68 48 00 00       	call   161ef <__outb>
   11987:	83 c4 10             	add    $0x10,%esp
   1198a:	83 ec 08             	sub    $0x8,%esp
   1198d:	6a 11                	push   $0x11
   1198f:	68 a0 00 00 00       	push   $0xa0
   11994:	e8 56 48 00 00       	call   161ef <__outb>
   11999:	83 c4 10             	add    $0x10,%esp
   1199c:	83 ec 08             	sub    $0x8,%esp
   1199f:	6a 20                	push   $0x20
   119a1:	6a 21                	push   $0x21
   119a3:	e8 47 48 00 00       	call   161ef <__outb>
   119a8:	83 c4 10             	add    $0x10,%esp
   119ab:	83 ec 08             	sub    $0x8,%esp
   119ae:	6a 28                	push   $0x28
   119b0:	68 a1 00 00 00       	push   $0xa1
   119b5:	e8 35 48 00 00       	call   161ef <__outb>
   119ba:	83 c4 10             	add    $0x10,%esp
   119bd:	83 ec 08             	sub    $0x8,%esp
   119c0:	6a 04                	push   $0x4
   119c2:	6a 21                	push   $0x21
   119c4:	e8 26 48 00 00       	call   161ef <__outb>
   119c9:	83 c4 10             	add    $0x10,%esp
   119cc:	83 ec 08             	sub    $0x8,%esp
   119cf:	6a 02                	push   $0x2
   119d1:	68 a1 00 00 00       	push   $0xa1
   119d6:	e8 14 48 00 00       	call   161ef <__outb>
   119db:	83 c4 10             	add    $0x10,%esp
   119de:	83 ec 08             	sub    $0x8,%esp
   119e1:	6a 01                	push   $0x1
   119e3:	6a 21                	push   $0x21
   119e5:	e8 05 48 00 00       	call   161ef <__outb>
   119ea:	83 c4 10             	add    $0x10,%esp
   119ed:	83 ec 08             	sub    $0x8,%esp
   119f0:	6a 01                	push   $0x1
   119f2:	68 a1 00 00 00       	push   $0xa1
   119f7:	e8 f3 47 00 00       	call   161ef <__outb>
   119fc:	83 c4 10             	add    $0x10,%esp
   119ff:	83 ec 08             	sub    $0x8,%esp
   11a02:	6a 00                	push   $0x0
   11a04:	6a 21                	push   $0x21
   11a06:	e8 e4 47 00 00       	call   161ef <__outb>
   11a0b:	83 c4 10             	add    $0x10,%esp
   11a0e:	83 ec 08             	sub    $0x8,%esp
   11a11:	6a 00                	push   $0x0
   11a13:	68 a1 00 00 00       	push   $0xa1
   11a18:	e8 d2 47 00 00       	call   161ef <__outb>
   11a1d:	83 c4 10             	add    $0x10,%esp
   11a20:	90                   	nop
   11a21:	c9                   	leave  
   11a22:	c3                   	ret    

00011a23 <set_idt_entry>:
   11a23:	55                   	push   %ebp
   11a24:	89 e5                	mov    %esp,%ebp
   11a26:	83 ec 10             	sub    $0x10,%esp
   11a29:	8b 45 08             	mov    0x8(%ebp),%eax
   11a2c:	c1 e0 03             	shl    $0x3,%eax
   11a2f:	05 00 25 00 00       	add    $0x2500,%eax
   11a34:	89 45 fc             	mov    %eax,-0x4(%ebp)
   11a37:	8b 45 0c             	mov    0xc(%ebp),%eax
   11a3a:	89 c2                	mov    %eax,%edx
   11a3c:	8b 45 fc             	mov    -0x4(%ebp),%eax
   11a3f:	66 89 10             	mov    %dx,(%eax)
   11a42:	8b 45 fc             	mov    -0x4(%ebp),%eax
   11a45:	66 c7 40 02 10 00    	movw   $0x10,0x2(%eax)
   11a4b:	8b 45 fc             	mov    -0x4(%ebp),%eax
   11a4e:	66 c7 40 04 00 8e    	movw   $0x8e00,0x4(%eax)
   11a54:	8b 45 0c             	mov    0xc(%ebp),%eax
   11a57:	c1 e8 10             	shr    $0x10,%eax
   11a5a:	89 c2                	mov    %eax,%edx
   11a5c:	8b 45 fc             	mov    -0x4(%ebp),%eax
   11a5f:	66 89 50 06          	mov    %dx,0x6(%eax)
   11a63:	90                   	nop
   11a64:	c9                   	leave  
   11a65:	c3                   	ret    

00011a66 <init_idt>:
   11a66:	55                   	push   %ebp
   11a67:	89 e5                	mov    %esp,%ebp
   11a69:	83 ec 18             	sub    $0x18,%esp
   11a6c:	c7 45 f4 00 00 00 00 	movl   $0x0,-0xc(%ebp)
   11a73:	eb 2d                	jmp    11aa2 <init_idt+0x3c>
   11a75:	8b 45 f4             	mov    -0xc(%ebp),%eax
   11a78:	8b 04 85 00 a0 01 00 	mov    0x1a000(,%eax,4),%eax
   11a7f:	50                   	push   %eax
   11a80:	ff 75 f4             	pushl  -0xc(%ebp)
   11a83:	e8 9b ff ff ff       	call   11a23 <set_idt_entry>
   11a88:	83 c4 08             	add    $0x8,%esp
   11a8b:	83 ec 08             	sub    $0x8,%esp
   11a8e:	68 ca 18 01 00       	push   $0x118ca
   11a93:	ff 75 f4             	pushl  -0xc(%ebp)
   11a96:	e8 78 00 00 00       	call   11b13 <__install_isr>
   11a9b:	83 c4 10             	add    $0x10,%esp
   11a9e:	83 45 f4 01          	addl   $0x1,-0xc(%ebp)
   11aa2:	81 7d f4 ff 00 00 00 	cmpl   $0xff,-0xc(%ebp)
   11aa9:	7e ca                	jle    11a75 <init_idt+0xf>
   11aab:	83 ec 08             	sub    $0x8,%esp
   11aae:	68 f9 18 01 00       	push   $0x118f9
   11ab3:	6a 21                	push   $0x21
   11ab5:	e8 59 00 00 00       	call   11b13 <__install_isr>
   11aba:	83 c4 10             	add    $0x10,%esp
   11abd:	83 ec 08             	sub    $0x8,%esp
   11ac0:	68 f9 18 01 00       	push   $0x118f9
   11ac5:	6a 20                	push   $0x20
   11ac7:	e8 47 00 00 00       	call   11b13 <__install_isr>
   11acc:	83 c4 10             	add    $0x10,%esp
   11acf:	83 ec 08             	sub    $0x8,%esp
   11ad2:	68 5d 19 01 00       	push   $0x1195d
   11ad7:	6a 27                	push   $0x27
   11ad9:	e8 35 00 00 00       	call   11b13 <__install_isr>
   11ade:	83 c4 10             	add    $0x10,%esp
   11ae1:	90                   	nop
   11ae2:	c9                   	leave  
   11ae3:	c3                   	ret    

00011ae4 <__panic>:
   11ae4:	55                   	push   %ebp
   11ae5:	89 e5                	mov    %esp,%ebp
   11ae7:	83 ec 08             	sub    $0x8,%esp
   11aea:	fa                   	cli    
   11aeb:	83 ec 08             	sub    $0x8,%esp
   11aee:	ff 75 08             	pushl  0x8(%ebp)
   11af1:	68 51 6c 01 00       	push   $0x16c51
   11af6:	e8 b5 fa ff ff       	call   115b0 <__cio_printf>
   11afb:	83 c4 10             	add    $0x10,%esp
   11afe:	eb fe                	jmp    11afe <__panic+0x1a>

00011b00 <__init_interrupts>:
   11b00:	55                   	push   %ebp
   11b01:	89 e5                	mov    %esp,%ebp
   11b03:	83 ec 08             	sub    $0x8,%esp
   11b06:	e8 5b ff ff ff       	call   11a66 <init_idt>
   11b0b:	e8 65 fe ff ff       	call   11975 <init_pic>
   11b10:	90                   	nop
   11b11:	c9                   	leave  
   11b12:	c3                   	ret    

00011b13 <__install_isr>:
   11b13:	55                   	push   %ebp
   11b14:	89 e5                	mov    %esp,%ebp
   11b16:	83 ec 10             	sub    $0x10,%esp
   11b19:	8b 45 08             	mov    0x8(%ebp),%eax
   11b1c:	8b 04 85 e0 b6 01 00 	mov    0x1b6e0(,%eax,4),%eax
   11b23:	89 45 fc             	mov    %eax,-0x4(%ebp)
   11b26:	8b 45 08             	mov    0x8(%ebp),%eax
   11b29:	8b 55 0c             	mov    0xc(%ebp),%edx
   11b2c:	89 14 85 e0 b6 01 00 	mov    %edx,0x1b6e0(,%eax,4)
   11b33:	8b 45 fc             	mov    -0x4(%ebp),%eax
   11b36:	c9                   	leave  
   11b37:	c3                   	ret    

00011b38 <__delay>:
   11b38:	55                   	push   %ebp
   11b39:	89 e5                	mov    %esp,%ebp
   11b3b:	83 ec 10             	sub    $0x10,%esp
   11b3e:	eb 16                	jmp    11b56 <__delay+0x1e>
   11b40:	c7 45 fc 00 00 00 00 	movl   $0x0,-0x4(%ebp)
   11b47:	eb 04                	jmp    11b4d <__delay+0x15>
   11b49:	83 45 fc 01          	addl   $0x1,-0x4(%ebp)
   11b4d:	81 7d fc 7f 96 98 00 	cmpl   $0x98967f,-0x4(%ebp)
   11b54:	7e f3                	jle    11b49 <__delay+0x11>
   11b56:	83 6d 08 01          	subl   $0x1,0x8(%ebp)
   11b5a:	83 7d 08 00          	cmpl   $0x0,0x8(%ebp)
   11b5e:	79 e0                	jns    11b40 <__delay+0x8>
   11b60:	90                   	nop
   11b61:	c9                   	leave  
   11b62:	c3                   	ret    

00011b63 <_cmp_wakeup>:
   11b63:	55                   	push   %ebp
   11b64:	89 e5                	mov    %esp,%ebp
   11b66:	8b 45 08             	mov    0x8(%ebp),%eax
   11b69:	3b 45 0c             	cmp    0xc(%ebp),%eax
   11b6c:	73 07                	jae    11b75 <_cmp_wakeup+0x12>
   11b6e:	b8 ff ff ff ff       	mov    $0xffffffff,%eax
   11b73:	eb 14                	jmp    11b89 <_cmp_wakeup+0x26>
   11b75:	8b 45 08             	mov    0x8(%ebp),%eax
   11b78:	3b 45 0c             	cmp    0xc(%ebp),%eax
   11b7b:	75 07                	jne    11b84 <_cmp_wakeup+0x21>
   11b7d:	b8 00 00 00 00       	mov    $0x0,%eax
   11b82:	eb 05                	jmp    11b89 <_cmp_wakeup+0x26>
   11b84:	b8 01 00 00 00       	mov    $0x1,%eax
   11b89:	5d                   	pop    %ebp
   11b8a:	c3                   	ret    

00011b8b <_clk_isr>:
   11b8b:	55                   	push   %ebp
   11b8c:	89 e5                	mov    %esp,%ebp
   11b8e:	83 ec 18             	sub    $0x18,%esp
   11b91:	a1 0c a6 01 00       	mov    0x1a60c,%eax
   11b96:	83 c0 01             	add    $0x1,%eax
   11b99:	a3 0c a6 01 00       	mov    %eax,0x1a60c
   11b9e:	a1 0c a6 01 00       	mov    0x1a60c,%eax
   11ba3:	83 f8 64             	cmp    $0x64,%eax
   11ba6:	75 39                	jne    11be1 <_clk_isr+0x56>
   11ba8:	c7 05 0c a6 01 00 00 	movl   $0x0,0x1a60c
   11baf:	00 00 00 
   11bb2:	a1 10 a6 01 00       	mov    0x1a610,%eax
   11bb7:	83 c0 01             	add    $0x1,%eax
   11bba:	a3 10 a6 01 00       	mov    %eax,0x1a610
   11bbf:	a1 10 a6 01 00       	mov    0x1a610,%eax
   11bc4:	83 e0 03             	and    $0x3,%eax
   11bc7:	0f b6 80 68 6c 01 00 	movzbl 0x16c68(%eax),%eax
   11bce:	0f be c0             	movsbl %al,%eax
   11bd1:	83 ec 04             	sub    $0x4,%esp
   11bd4:	50                   	push   %eax
   11bd5:	6a 00                	push   $0x0
   11bd7:	6a 00                	push   $0x0
   11bd9:	e8 e7 f1 ff ff       	call   10dc5 <__cio_putchar_at>
   11bde:	83 c4 10             	add    $0x10,%esp
   11be1:	a1 e4 ba 01 00       	mov    0x1bae4,%eax
   11be6:	83 c0 01             	add    $0x1,%eax
   11be9:	a3 e4 ba 01 00       	mov    %eax,0x1bae4
   11bee:	a1 e0 ba 01 00       	mov    0x1bae0,%eax
   11bf3:	83 ec 0c             	sub    $0xc,%esp
   11bf6:	50                   	push   %eax
   11bf7:	e8 e7 20 00 00       	call   13ce3 <_que_peek>
   11bfc:	83 c4 10             	add    $0x10,%esp
   11bff:	89 45 f4             	mov    %eax,-0xc(%ebp)
   11c02:	eb 36                	jmp    11c3a <_clk_isr+0xaf>
   11c04:	a1 e0 ba 01 00       	mov    0x1bae0,%eax
   11c09:	83 ec 0c             	sub    $0xc,%esp
   11c0c:	50                   	push   %eax
   11c0d:	e8 1b 20 00 00       	call   13c2d <_que_deque>
   11c12:	83 c4 10             	add    $0x10,%esp
   11c15:	89 45 f4             	mov    %eax,-0xc(%ebp)
   11c18:	83 ec 0c             	sub    $0xc,%esp
   11c1b:	ff 75 f4             	pushl  -0xc(%ebp)
   11c1e:	e8 d1 22 00 00       	call   13ef4 <_schedule>
   11c23:	83 c4 10             	add    $0x10,%esp
   11c26:	a1 e0 ba 01 00       	mov    0x1bae0,%eax
   11c2b:	83 ec 0c             	sub    $0xc,%esp
   11c2e:	50                   	push   %eax
   11c2f:	e8 af 20 00 00       	call   13ce3 <_que_peek>
   11c34:	83 c4 10             	add    $0x10,%esp
   11c37:	89 45 f4             	mov    %eax,-0xc(%ebp)
   11c3a:	83 7d f4 00          	cmpl   $0x0,-0xc(%ebp)
   11c3e:	74 0f                	je     11c4f <_clk_isr+0xc4>
   11c40:	8b 45 f4             	mov    -0xc(%ebp),%eax
   11c43:	8b 50 0c             	mov    0xc(%eax),%edx
   11c46:	a1 e4 ba 01 00       	mov    0x1bae4,%eax
   11c4b:	39 c2                	cmp    %eax,%edx
   11c4d:	76 b5                	jbe    11c04 <_clk_isr+0x79>
   11c4f:	a1 d4 be 01 00       	mov    0x1bed4,%eax
   11c54:	0f b6 50 17          	movzbl 0x17(%eax),%edx
   11c58:	a1 d4 be 01 00       	mov    0x1bed4,%eax
   11c5d:	83 ea 01             	sub    $0x1,%edx
   11c60:	88 50 17             	mov    %dl,0x17(%eax)
   11c63:	a1 d4 be 01 00       	mov    0x1bed4,%eax
   11c68:	0f b6 40 17          	movzbl 0x17(%eax),%eax
   11c6c:	84 c0                	test   %al,%al
   11c6e:	75 16                	jne    11c86 <_clk_isr+0xfb>
   11c70:	a1 d4 be 01 00       	mov    0x1bed4,%eax
   11c75:	83 ec 0c             	sub    $0xc,%esp
   11c78:	50                   	push   %eax
   11c79:	e8 76 22 00 00       	call   13ef4 <_schedule>
   11c7e:	83 c4 10             	add    $0x10,%esp
   11c81:	e8 81 23 00 00       	call   14007 <_dispatch>
   11c86:	83 ec 08             	sub    $0x8,%esp
   11c89:	6a 20                	push   $0x20
   11c8b:	6a 20                	push   $0x20
   11c8d:	e8 5d 45 00 00       	call   161ef <__outb>
   11c92:	83 c4 10             	add    $0x10,%esp
   11c95:	90                   	nop
   11c96:	c9                   	leave  
   11c97:	c3                   	ret    

00011c98 <_clk_init>:
   11c98:	55                   	push   %ebp
   11c99:	89 e5                	mov    %esp,%ebp
   11c9b:	83 ec 18             	sub    $0x18,%esp
   11c9e:	83 ec 0c             	sub    $0xc,%esp
   11ca1:	68 6d 6c 01 00       	push   $0x16c6d
   11ca6:	e8 d2 f2 ff ff       	call   10f7d <__cio_puts>
   11cab:	83 c4 10             	add    $0x10,%esp
   11cae:	c7 05 0c a6 01 00 63 	movl   $0x63,0x1a60c
   11cb5:	00 00 00 
   11cb8:	c7 05 10 a6 01 00 00 	movl   $0x0,0x1a610
   11cbf:	00 00 00 
   11cc2:	c7 05 e4 ba 01 00 00 	movl   $0x0,0x1bae4
   11cc9:	00 00 00 
   11ccc:	c7 45 f4 a9 04 00 00 	movl   $0x4a9,-0xc(%ebp)
   11cd3:	83 ec 08             	sub    $0x8,%esp
   11cd6:	6a 36                	push   $0x36
   11cd8:	6a 43                	push   $0x43
   11cda:	e8 10 45 00 00       	call   161ef <__outb>
   11cdf:	83 c4 10             	add    $0x10,%esp
   11ce2:	8b 45 f4             	mov    -0xc(%ebp),%eax
   11ce5:	0f b6 c0             	movzbl %al,%eax
   11ce8:	83 ec 08             	sub    $0x8,%esp
   11ceb:	50                   	push   %eax
   11cec:	6a 40                	push   $0x40
   11cee:	e8 fc 44 00 00       	call   161ef <__outb>
   11cf3:	83 c4 10             	add    $0x10,%esp
   11cf6:	8b 45 f4             	mov    -0xc(%ebp),%eax
   11cf9:	c1 e8 08             	shr    $0x8,%eax
   11cfc:	0f b6 c0             	movzbl %al,%eax
   11cff:	83 ec 08             	sub    $0x8,%esp
   11d02:	50                   	push   %eax
   11d03:	6a 40                	push   $0x40
   11d05:	e8 e5 44 00 00       	call   161ef <__outb>
   11d0a:	83 c4 10             	add    $0x10,%esp
   11d0d:	83 ec 0c             	sub    $0xc,%esp
   11d10:	68 63 1b 01 00       	push   $0x11b63
   11d15:	e8 6c 1c 00 00       	call   13986 <_que_alloc>
   11d1a:	83 c4 10             	add    $0x10,%esp
   11d1d:	a3 e0 ba 01 00       	mov    %eax,0x1bae0
   11d22:	a1 e0 ba 01 00       	mov    0x1bae0,%eax
   11d27:	85 c0                	test   %eax,%eax
   11d29:	75 3b                	jne    11d66 <_clk_init+0xce>
   11d2b:	83 ec 08             	sub    $0x8,%esp
   11d2e:	6a 00                	push   $0x0
   11d30:	68 b9 00 00 00       	push   $0xb9
   11d35:	68 75 6c 01 00       	push   $0x16c75
   11d3a:	68 ac 6c 01 00       	push   $0x16cac
   11d3f:	68 7d 6c 01 00       	push   $0x16c7d
   11d44:	68 00 bb 01 00       	push   $0x1bb00
   11d49:	e8 ea 06 00 00       	call   12438 <__sprint>
   11d4e:	83 c4 20             	add    $0x20,%esp
   11d51:	83 ec 08             	sub    $0x8,%esp
   11d54:	68 97 6c 01 00       	push   $0x16c97
   11d59:	68 00 bb 01 00       	push   $0x1bb00
   11d5e:	e8 e3 0a 00 00       	call   12846 <_kpanic>
   11d63:	83 c4 10             	add    $0x10,%esp
   11d66:	83 ec 08             	sub    $0x8,%esp
   11d69:	68 8b 1b 01 00       	push   $0x11b8b
   11d6e:	6a 20                	push   $0x20
   11d70:	e8 9e fd ff ff       	call   11b13 <__install_isr>
   11d75:	83 c4 10             	add    $0x10,%esp
   11d78:	83 ec 0c             	sub    $0xc,%esp
   11d7b:	68 a6 6c 01 00       	push   $0x16ca6
   11d80:	e8 f8 f1 ff ff       	call   10f7d <__cio_puts>
   11d85:	83 c4 10             	add    $0x10,%esp
   11d88:	90                   	nop
   11d89:	c9                   	leave  
   11d8a:	c3                   	ret    

00011d8b <_init>:
   11d8b:	55                   	push   %ebp
   11d8c:	89 e5                	mov    %esp,%ebp
   11d8e:	83 ec 28             	sub    $0x28,%esp
   11d91:	e8 6a fd ff ff       	call   11b00 <__init_interrupts>
   11d96:	83 ec 0c             	sub    $0xc,%esp
   11d99:	6a 00                	push   $0x0
   11d9b:	e8 9e fa ff ff       	call   1183e <__cio_init>
   11da0:	83 c4 10             	add    $0x10,%esp
   11da3:	6a 63                	push   $0x63
   11da5:	6a 63                	push   $0x63
   11da7:	6a 07                	push   $0x7
   11da9:	6a 00                	push   $0x0
   11dab:	e8 13 ef ff ff       	call   10cc3 <__cio_setscroll>
   11db0:	83 c4 10             	add    $0x10,%esp
   11db3:	83 ec 04             	sub    $0x4,%esp
   11db6:	68 b8 6c 01 00       	push   $0x16cb8
   11dbb:	6a 06                	push   $0x6
   11dbd:	6a 00                	push   $0x0
   11dbf:	e8 77 f1 ff ff       	call   10f3b <__cio_puts_at>
   11dc4:	83 c4 10             	add    $0x10,%esp
   11dc7:	83 ec 0c             	sub    $0xc,%esp
   11dca:	68 0c 6d 01 00       	push   $0x16d0c
   11dcf:	e8 a9 f1 ff ff       	call   10f7d <__cio_puts>
   11dd4:	83 c4 10             	add    $0x10,%esp
   11dd7:	83 ec 0c             	sub    $0xc,%esp
   11dda:	68 30 6d 01 00       	push   $0x16d30
   11ddf:	e8 99 f1 ff ff       	call   10f7d <__cio_puts>
   11de4:	83 c4 10             	add    $0x10,%esp
   11de7:	83 ec 0c             	sub    $0xc,%esp
   11dea:	68 51 6d 01 00       	push   $0x16d51
   11def:	e8 89 f1 ff ff       	call   10f7d <__cio_puts>
   11df4:	83 c4 10             	add    $0x10,%esp
   11df7:	e8 86 0b 00 00       	call   12982 <_km_init>
   11dfc:	e8 2e 1b 00 00       	call   1392f <_que_init>
   11e01:	e8 af 13 00 00       	call   131b5 <_proc_init>
   11e06:	e8 75 2c 00 00       	call   14a80 <_stk_init>
   11e0b:	e8 b5 37 00 00       	call   155c5 <_sys_init>
   11e10:	e8 3a 20 00 00       	call   13e4f <_sched_init>
   11e15:	e8 7e fe ff ff       	call   11c98 <_clk_init>
   11e1a:	e8 0b 26 00 00       	call   1442a <_sio_init>
   11e1f:	e8 6a 3d 00 00       	call   15b8e <__eth_init>
   11e24:	83 ec 0c             	sub    $0xc,%esp
   11e27:	68 f0 f0 f0 f0       	push   $0xf0f0f0f0
   11e2c:	e8 ac 3c 00 00       	call   15add <__eth_loadaddr>
   11e31:	83 c4 10             	add    $0x10,%esp
   11e34:	83 ec 0c             	sub    $0xc,%esp
   11e37:	68 5c 6d 01 00       	push   $0x16d5c
   11e3c:	e8 3c f1 ff ff       	call   10f7d <__cio_puts>
   11e41:	83 c4 10             	add    $0x10,%esp
   11e44:	83 ec 0c             	sub    $0xc,%esp
   11e47:	68 30 6d 01 00       	push   $0x16d30
   11e4c:	e8 2c f1 ff ff       	call   10f7d <__cio_puts>
   11e51:	83 c4 10             	add    $0x10,%esp
   11e54:	83 ec 0c             	sub    $0xc,%esp
   11e57:	68 c8 00 00 00       	push   $0xc8
   11e5c:	e8 d7 fc ff ff       	call   11b38 <__delay>
   11e61:	83 c4 10             	add    $0x10,%esp
   11e64:	b8 22 62 01 00       	mov    $0x16222,%eax
   11e69:	89 45 e4             	mov    %eax,-0x1c(%ebp)
   11e6c:	c7 45 e8 00 00 00 00 	movl   $0x0,-0x18(%ebp)
   11e73:	c7 45 f0 00 00 00 00 	movl   $0x0,-0x10(%ebp)
   11e7a:	8b 45 f0             	mov    -0x10(%ebp),%eax
   11e7d:	89 45 ec             	mov    %eax,-0x14(%ebp)
   11e80:	83 ec 04             	sub    $0x4,%esp
   11e83:	6a 01                	push   $0x1
   11e85:	6a 01                	push   $0x1
   11e87:	8d 45 e4             	lea    -0x1c(%ebp),%eax
   11e8a:	50                   	push   %eax
   11e8b:	e8 99 13 00 00       	call   13229 <_proc_create>
   11e90:	83 c4 10             	add    $0x10,%esp
   11e93:	89 45 f4             	mov    %eax,-0xc(%ebp)
   11e96:	83 7d f4 00          	cmpl   $0x0,-0xc(%ebp)
   11e9a:	75 3b                	jne    11ed7 <_init+0x14c>
   11e9c:	83 ec 08             	sub    $0x8,%esp
   11e9f:	6a 00                	push   $0x0
   11ea1:	68 a3 00 00 00       	push   $0xa3
   11ea6:	68 7e 6d 01 00       	push   $0x16d7e
   11eab:	68 d4 6f 01 00       	push   $0x16fd4
   11eb0:	68 87 6d 01 00       	push   $0x16d87
   11eb5:	68 00 bb 01 00       	push   $0x1bb00
   11eba:	e8 79 05 00 00       	call   12438 <__sprint>
   11ebf:	83 c4 20             	add    $0x20,%esp
   11ec2:	83 ec 08             	sub    $0x8,%esp
   11ec5:	68 a1 6d 01 00       	push   $0x16da1
   11eca:	68 00 bb 01 00       	push   $0x1bb00
   11ecf:	e8 72 09 00 00       	call   12846 <_kpanic>
   11ed4:	83 c4 10             	add    $0x10,%esp
   11ed7:	83 ec 0c             	sub    $0xc,%esp
   11eda:	ff 75 f4             	pushl  -0xc(%ebp)
   11edd:	e8 12 20 00 00       	call   13ef4 <_schedule>
   11ee2:	83 c4 10             	add    $0x10,%esp
   11ee5:	8b 45 f4             	mov    -0xc(%ebp),%eax
   11ee8:	a3 60 be 01 00       	mov    %eax,0x1be60
   11eed:	c7 05 44 be 01 00 01 	movl   $0x1,0x1be44
   11ef4:	00 00 00 
   11ef7:	83 ec 0c             	sub    $0xc,%esp
   11efa:	6a 02                	push   $0x2
   11efc:	e8 ba 26 00 00       	call   145bb <_sio_enable>
   11f01:	83 c4 10             	add    $0x10,%esp
   11f04:	e8 fe 20 00 00       	call   14007 <_dispatch>
   11f09:	83 ec 0c             	sub    $0xc,%esp
   11f0c:	68 ac 6d 01 00       	push   $0x16dac
   11f11:	e8 67 f0 ff ff       	call   10f7d <__cio_puts>
   11f16:	83 c4 10             	add    $0x10,%esp
   11f19:	83 ec 0c             	sub    $0xc,%esp
   11f1c:	68 30 6d 01 00       	push   $0x16d30
   11f21:	e8 57 f0 ff ff       	call   10f7d <__cio_puts>
   11f26:	83 c4 10             	add    $0x10,%esp
   11f29:	90                   	nop
   11f2a:	c9                   	leave  
   11f2b:	c3                   	ret    

00011f2c <_shell>:
   11f2c:	55                   	push   %ebp
   11f2d:	89 e5                	mov    %esp,%ebp
   11f2f:	83 ec 18             	sub    $0x18,%esp
   11f32:	e8 f6 f7 ff ff       	call   1172d <__cio_getchar>
   11f37:	83 ec 0c             	sub    $0xc,%esp
   11f3a:	68 d0 6d 01 00       	push   $0x16dd0
   11f3f:	e8 39 f0 ff ff       	call   10f7d <__cio_puts>
   11f44:	83 c4 10             	add    $0x10,%esp
   11f47:	83 7d 08 78          	cmpl   $0x78,0x8(%ebp)
   11f4b:	0f 84 8c 02 00 00    	je     121dd <_shell+0x2b1>
   11f51:	83 7d 08 04          	cmpl   $0x4,0x8(%ebp)
   11f55:	0f 84 82 02 00 00    	je     121dd <_shell+0x2b1>
   11f5b:	8b 45 08             	mov    0x8(%ebp),%eax
   11f5e:	83 f8 63             	cmp    $0x63,%eax
   11f61:	0f 84 0b 01 00 00    	je     12072 <_shell+0x146>
   11f67:	83 f8 63             	cmp    $0x63,%eax
   11f6a:	7f 20                	jg     11f8c <_shell+0x60>
   11f6c:	83 f8 0d             	cmp    $0xd,%eax
   11f6f:	0f 84 4a 02 00 00    	je     121bf <_shell+0x293>
   11f75:	83 f8 61             	cmp    $0x61,%eax
   11f78:	0f 84 c6 00 00 00    	je     12044 <_shell+0x118>
   11f7e:	83 f8 0a             	cmp    $0xa,%eax
   11f81:	0f 84 38 02 00 00    	je     121bf <_shell+0x293>
   11f87:	e9 9e 01 00 00       	jmp    1212a <_shell+0x1fe>
   11f8c:	83 f8 70             	cmp    $0x70,%eax
   11f8f:	0f 84 c6 00 00 00    	je     1205b <_shell+0x12f>
   11f95:	83 f8 70             	cmp    $0x70,%eax
   11f98:	7f 0e                	jg     11fa8 <_shell+0x7c>
   11f9a:	83 f8 68             	cmp    $0x68,%eax
   11f9d:	0f 84 9a 01 00 00    	je     1213d <_shell+0x211>
   11fa3:	e9 82 01 00 00       	jmp    1212a <_shell+0x1fe>
   11fa8:	83 f8 71             	cmp    $0x71,%eax
   11fab:	74 0e                	je     11fbb <_shell+0x8f>
   11fad:	83 f8 73             	cmp    $0x73,%eax
   11fb0:	0f 84 d1 00 00 00    	je     12087 <_shell+0x15b>
   11fb6:	e9 6f 01 00 00       	jmp    1212a <_shell+0x1fe>
   11fbb:	a1 e0 ba 01 00       	mov    0x1bae0,%eax
   11fc0:	83 ec 08             	sub    $0x8,%esp
   11fc3:	50                   	push   %eax
   11fc4:	68 f1 6d 01 00       	push   $0x16df1
   11fc9:	e8 77 1d 00 00       	call   13d45 <_que_dump>
   11fce:	83 c4 10             	add    $0x10,%esp
   11fd1:	a1 d8 be 01 00       	mov    0x1bed8,%eax
   11fd6:	83 ec 08             	sub    $0x8,%esp
   11fd9:	50                   	push   %eax
   11fda:	68 fd 6d 01 00       	push   $0x16dfd
   11fdf:	e8 61 1d 00 00       	call   13d45 <_que_dump>
   11fe4:	83 c4 10             	add    $0x10,%esp
   11fe7:	a1 c4 be 01 00       	mov    0x1bec4,%eax
   11fec:	83 ec 08             	sub    $0x8,%esp
   11fef:	50                   	push   %eax
   11ff0:	68 0b 6e 01 00       	push   $0x16e0b
   11ff5:	e8 4b 1d 00 00       	call   13d45 <_que_dump>
   11ffa:	83 c4 10             	add    $0x10,%esp
   11ffd:	a1 c8 be 01 00       	mov    0x1bec8,%eax
   12002:	83 ec 08             	sub    $0x8,%esp
   12005:	50                   	push   %eax
   12006:	68 19 6e 01 00       	push   $0x16e19
   1200b:	e8 35 1d 00 00       	call   13d45 <_que_dump>
   12010:	83 c4 10             	add    $0x10,%esp
   12013:	a1 cc be 01 00       	mov    0x1becc,%eax
   12018:	83 ec 08             	sub    $0x8,%esp
   1201b:	50                   	push   %eax
   1201c:	68 27 6e 01 00       	push   $0x16e27
   12021:	e8 1f 1d 00 00       	call   13d45 <_que_dump>
   12026:	83 c4 10             	add    $0x10,%esp
   12029:	a1 d0 be 01 00       	mov    0x1bed0,%eax
   1202e:	83 ec 08             	sub    $0x8,%esp
   12031:	50                   	push   %eax
   12032:	68 35 6e 01 00       	push   $0x16e35
   12037:	e8 09 1d 00 00       	call   13d45 <_que_dump>
   1203c:	83 c4 10             	add    $0x10,%esp
   1203f:	e9 7c 01 00 00       	jmp    121c0 <_shell+0x294>
   12044:	83 ec 08             	sub    $0x8,%esp
   12047:	6a 00                	push   $0x0
   12049:	68 43 6e 01 00       	push   $0x16e43
   1204e:	e8 ea 15 00 00       	call   1363d <_active_dump>
   12053:	83 c4 10             	add    $0x10,%esp
   12056:	e9 65 01 00 00       	jmp    121c0 <_shell+0x294>
   1205b:	83 ec 08             	sub    $0x8,%esp
   1205e:	6a 01                	push   $0x1
   12060:	68 43 6e 01 00       	push   $0x16e43
   12065:	e8 d3 15 00 00       	call   1363d <_active_dump>
   1206a:	83 c4 10             	add    $0x10,%esp
   1206d:	e9 4e 01 00 00       	jmp    121c0 <_shell+0x294>
   12072:	83 ec 0c             	sub    $0xc,%esp
   12075:	68 55 6e 01 00       	push   $0x16e55
   1207a:	e8 1c 15 00 00       	call   1359b <_context_dump_all>
   1207f:	83 c4 10             	add    $0x10,%esp
   12082:	e9 39 01 00 00       	jmp    121c0 <_shell+0x294>
   12087:	83 ec 0c             	sub    $0xc,%esp
   1208a:	68 64 6e 01 00       	push   $0x16e64
   1208f:	e8 e9 ee ff ff       	call   10f7d <__cio_puts>
   12094:	83 c4 10             	add    $0x10,%esp
   12097:	c7 45 f4 00 00 00 00 	movl   $0x0,-0xc(%ebp)
   1209e:	eb 7b                	jmp    1211b <_shell+0x1ef>
   120a0:	8b 45 f4             	mov    -0xc(%ebp),%eax
   120a3:	8b 04 85 60 be 01 00 	mov    0x1be60(,%eax,4),%eax
   120aa:	0f b6 40 14          	movzbl 0x14(%eax),%eax
   120ae:	84 c0                	test   %al,%al
   120b0:	74 65                	je     12117 <_shell+0x1eb>
   120b2:	8b 45 f4             	mov    -0xc(%ebp),%eax
   120b5:	8b 04 85 60 be 01 00 	mov    0x1be60(,%eax,4),%eax
   120bc:	89 45 f0             	mov    %eax,-0x10(%ebp)
   120bf:	8b 45 f0             	mov    -0x10(%ebp),%eax
   120c2:	0f b7 40 10          	movzwl 0x10(%eax),%eax
   120c6:	98                   	cwtl   
   120c7:	83 ec 08             	sub    $0x8,%esp
   120ca:	50                   	push   %eax
   120cb:	68 87 6e 01 00       	push   $0x16e87
   120d0:	e8 db f4 ff ff       	call   115b0 <__cio_printf>
   120d5:	83 c4 10             	add    $0x10,%esp
   120d8:	8b 45 f0             	mov    -0x10(%ebp),%eax
   120db:	8b 00                	mov    (%eax),%eax
   120dd:	8b 40 3c             	mov    0x3c(%eax),%eax
   120e0:	83 ec 08             	sub    $0x8,%esp
   120e3:	50                   	push   %eax
   120e4:	68 91 6e 01 00       	push   $0x16e91
   120e9:	e8 c2 f4 ff ff       	call   115b0 <__cio_printf>
   120ee:	83 c4 10             	add    $0x10,%esp
   120f1:	8b 45 f0             	mov    -0x10(%ebp),%eax
   120f4:	8b 40 04             	mov    0x4(%eax),%eax
   120f7:	83 ec 04             	sub    $0x4,%esp
   120fa:	6a 0c                	push   $0xc
   120fc:	50                   	push   %eax
   120fd:	6a 00                	push   $0x0
   120ff:	e8 79 2a 00 00       	call   14b7d <_stk_dump>
   12104:	83 c4 10             	add    $0x10,%esp
   12107:	83 ec 0c             	sub    $0xc,%esp
   1210a:	68 c8 00 00 00       	push   $0xc8
   1210f:	e8 24 fa ff ff       	call   11b38 <__delay>
   12114:	83 c4 10             	add    $0x10,%esp
   12117:	83 45 f4 01          	addl   $0x1,-0xc(%ebp)
   1211b:	83 7d f4 18          	cmpl   $0x18,-0xc(%ebp)
   1211f:	0f 8e 7b ff ff ff    	jle    120a0 <_shell+0x174>
   12125:	e9 96 00 00 00       	jmp    121c0 <_shell+0x294>
   1212a:	83 ec 08             	sub    $0x8,%esp
   1212d:	ff 75 08             	pushl  0x8(%ebp)
   12130:	68 9c 6e 01 00       	push   $0x16e9c
   12135:	e8 76 f4 ff ff       	call   115b0 <__cio_printf>
   1213a:	83 c4 10             	add    $0x10,%esp
   1213d:	83 ec 0c             	sub    $0xc,%esp
   12140:	68 bd 6e 01 00       	push   $0x16ebd
   12145:	e8 33 ee ff ff       	call   10f7d <__cio_puts>
   1214a:	83 c4 10             	add    $0x10,%esp
   1214d:	83 ec 0c             	sub    $0xc,%esp
   12150:	68 cc 6e 01 00       	push   $0x16ecc
   12155:	e8 23 ee ff ff       	call   10f7d <__cio_puts>
   1215a:	83 c4 10             	add    $0x10,%esp
   1215d:	83 ec 0c             	sub    $0xc,%esp
   12160:	68 ec 6e 01 00       	push   $0x16eec
   12165:	e8 13 ee ff ff       	call   10f7d <__cio_puts>
   1216a:	83 c4 10             	add    $0x10,%esp
   1216d:	83 ec 0c             	sub    $0xc,%esp
   12170:	68 19 6f 01 00       	push   $0x16f19
   12175:	e8 03 ee ff ff       	call   10f7d <__cio_puts>
   1217a:	83 c4 10             	add    $0x10,%esp
   1217d:	83 ec 0c             	sub    $0xc,%esp
   12180:	68 30 6f 01 00       	push   $0x16f30
   12185:	e8 f3 ed ff ff       	call   10f7d <__cio_puts>
   1218a:	83 c4 10             	add    $0x10,%esp
   1218d:	83 ec 0c             	sub    $0xc,%esp
   12190:	68 5d 6f 01 00       	push   $0x16f5d
   12195:	e8 e3 ed ff ff       	call   10f7d <__cio_puts>
   1219a:	83 c4 10             	add    $0x10,%esp
   1219d:	83 ec 0c             	sub    $0xc,%esp
   121a0:	68 78 6f 01 00       	push   $0x16f78
   121a5:	e8 d3 ed ff ff       	call   10f7d <__cio_puts>
   121aa:	83 c4 10             	add    $0x10,%esp
   121ad:	83 ec 0c             	sub    $0xc,%esp
   121b0:	68 a3 6f 01 00       	push   $0x16fa3
   121b5:	e8 c3 ed ff ff       	call   10f7d <__cio_puts>
   121ba:	83 c4 10             	add    $0x10,%esp
   121bd:	eb 01                	jmp    121c0 <_shell+0x294>
   121bf:	90                   	nop
   121c0:	83 ec 0c             	sub    $0xc,%esp
   121c3:	68 b2 6f 01 00       	push   $0x16fb2
   121c8:	e8 b0 ed ff ff       	call   10f7d <__cio_puts>
   121cd:	83 c4 10             	add    $0x10,%esp
   121d0:	e8 58 f5 ff ff       	call   1172d <__cio_getchar>
   121d5:	89 45 08             	mov    %eax,0x8(%ebp)
   121d8:	e9 6a fd ff ff       	jmp    11f47 <_shell+0x1b>
   121dd:	83 ec 0c             	sub    $0xc,%esp
   121e0:	68 b6 6f 01 00       	push   $0x16fb6
   121e5:	e8 93 ed ff ff       	call   10f7d <__cio_puts>
   121ea:	83 c4 10             	add    $0x10,%esp
   121ed:	e8 3b f5 ff ff       	call   1172d <__cio_getchar>
   121f2:	90                   	nop
   121f3:	c9                   	leave  
   121f4:	c3                   	ret    

000121f5 <__put_char_or_code>:
   121f5:	55                   	push   %ebp
   121f6:	89 e5                	mov    %esp,%ebp
   121f8:	83 ec 08             	sub    $0x8,%esp
   121fb:	83 7d 08 1f          	cmpl   $0x1f,0x8(%ebp)
   121ff:	7e 17                	jle    12218 <__put_char_or_code+0x23>
   12201:	83 7d 08 7e          	cmpl   $0x7e,0x8(%ebp)
   12205:	7f 11                	jg     12218 <__put_char_or_code+0x23>
   12207:	8b 45 08             	mov    0x8(%ebp),%eax
   1220a:	83 ec 0c             	sub    $0xc,%esp
   1220d:	50                   	push   %eax
   1220e:	e8 2a ec ff ff       	call   10e3d <__cio_putchar>
   12213:	83 c4 10             	add    $0x10,%esp
   12216:	eb 13                	jmp    1222b <__put_char_or_code+0x36>
   12218:	83 ec 08             	sub    $0x8,%esp
   1221b:	ff 75 08             	pushl  0x8(%ebp)
   1221e:	68 dc 6f 01 00       	push   $0x16fdc
   12223:	e8 88 f3 ff ff       	call   115b0 <__cio_printf>
   12228:	83 c4 10             	add    $0x10,%esp
   1222b:	90                   	nop
   1222c:	c9                   	leave  
   1222d:	c3                   	ret    

0001222e <__bound>:
   1222e:	55                   	push   %ebp
   1222f:	89 e5                	mov    %esp,%ebp
   12231:	8b 45 0c             	mov    0xc(%ebp),%eax
   12234:	3b 45 08             	cmp    0x8(%ebp),%eax
   12237:	73 06                	jae    1223f <__bound+0x11>
   12239:	8b 45 08             	mov    0x8(%ebp),%eax
   1223c:	89 45 0c             	mov    %eax,0xc(%ebp)
   1223f:	8b 45 0c             	mov    0xc(%ebp),%eax
   12242:	3b 45 10             	cmp    0x10(%ebp),%eax
   12245:	76 06                	jbe    1224d <__bound+0x1f>
   12247:	8b 45 10             	mov    0x10(%ebp),%eax
   1224a:	89 45 0c             	mov    %eax,0xc(%ebp)
   1224d:	8b 45 0c             	mov    0xc(%ebp),%eax
   12250:	5d                   	pop    %ebp
   12251:	c3                   	ret    

00012252 <__memset>:
   12252:	55                   	push   %ebp
   12253:	89 e5                	mov    %esp,%ebp
   12255:	53                   	push   %ebx
   12256:	8b 4d 0c             	mov    0xc(%ebp),%ecx
   12259:	8b 5d 08             	mov    0x8(%ebp),%ebx
   1225c:	eb 0b                	jmp    12269 <__memset+0x17>
   1225e:	89 d8                	mov    %ebx,%eax
   12260:	8d 58 01             	lea    0x1(%eax),%ebx
   12263:	0f b6 55 10          	movzbl 0x10(%ebp),%edx
   12267:	88 10                	mov    %dl,(%eax)
   12269:	89 c8                	mov    %ecx,%eax
   1226b:	8d 48 ff             	lea    -0x1(%eax),%ecx
   1226e:	85 c0                	test   %eax,%eax
   12270:	75 ec                	jne    1225e <__memset+0xc>
   12272:	90                   	nop
   12273:	5b                   	pop    %ebx
   12274:	5d                   	pop    %ebp
   12275:	c3                   	ret    

00012276 <__memclr>:
   12276:	55                   	push   %ebp
   12277:	89 e5                	mov    %esp,%ebp
   12279:	53                   	push   %ebx
   1227a:	8b 55 0c             	mov    0xc(%ebp),%edx
   1227d:	8b 5d 08             	mov    0x8(%ebp),%ebx
   12280:	eb 08                	jmp    1228a <__memclr+0x14>
   12282:	89 d8                	mov    %ebx,%eax
   12284:	8d 58 01             	lea    0x1(%eax),%ebx
   12287:	c6 00 00             	movb   $0x0,(%eax)
   1228a:	89 d0                	mov    %edx,%eax
   1228c:	8d 50 ff             	lea    -0x1(%eax),%edx
   1228f:	85 c0                	test   %eax,%eax
   12291:	75 ef                	jne    12282 <__memclr+0xc>
   12293:	90                   	nop
   12294:	5b                   	pop    %ebx
   12295:	5d                   	pop    %ebp
   12296:	c3                   	ret    

00012297 <__memcpy>:
   12297:	55                   	push   %ebp
   12298:	89 e5                	mov    %esp,%ebp
   1229a:	56                   	push   %esi
   1229b:	53                   	push   %ebx
   1229c:	8b 4d 10             	mov    0x10(%ebp),%ecx
   1229f:	8b 5d 08             	mov    0x8(%ebp),%ebx
   122a2:	8b 75 0c             	mov    0xc(%ebp),%esi
   122a5:	eb 0f                	jmp    122b6 <__memcpy+0x1f>
   122a7:	89 f2                	mov    %esi,%edx
   122a9:	8d 72 01             	lea    0x1(%edx),%esi
   122ac:	89 d8                	mov    %ebx,%eax
   122ae:	8d 58 01             	lea    0x1(%eax),%ebx
   122b1:	0f b6 12             	movzbl (%edx),%edx
   122b4:	88 10                	mov    %dl,(%eax)
   122b6:	89 c8                	mov    %ecx,%eax
   122b8:	8d 48 ff             	lea    -0x1(%eax),%ecx
   122bb:	85 c0                	test   %eax,%eax
   122bd:	75 e8                	jne    122a7 <__memcpy+0x10>
   122bf:	90                   	nop
   122c0:	5b                   	pop    %ebx
   122c1:	5e                   	pop    %esi
   122c2:	5d                   	pop    %ebp
   122c3:	c3                   	ret    

000122c4 <__strlen>:
   122c4:	55                   	push   %ebp
   122c5:	89 e5                	mov    %esp,%ebp
   122c7:	53                   	push   %ebx
   122c8:	8b 55 08             	mov    0x8(%ebp),%edx
   122cb:	bb 00 00 00 00       	mov    $0x0,%ebx
   122d0:	eb 03                	jmp    122d5 <__strlen+0x11>
   122d2:	83 c3 01             	add    $0x1,%ebx
   122d5:	89 d0                	mov    %edx,%eax
   122d7:	8d 50 01             	lea    0x1(%eax),%edx
   122da:	0f b6 00             	movzbl (%eax),%eax
   122dd:	84 c0                	test   %al,%al
   122df:	75 f1                	jne    122d2 <__strlen+0xe>
   122e1:	89 d8                	mov    %ebx,%eax
   122e3:	5b                   	pop    %ebx
   122e4:	5d                   	pop    %ebp
   122e5:	c3                   	ret    

000122e6 <__strcmp>:
   122e6:	55                   	push   %ebp
   122e7:	89 e5                	mov    %esp,%ebp
   122e9:	53                   	push   %ebx
   122ea:	8b 45 08             	mov    0x8(%ebp),%eax
   122ed:	8b 55 0c             	mov    0xc(%ebp),%edx
   122f0:	eb 06                	jmp    122f8 <__strcmp+0x12>
   122f2:	83 c0 01             	add    $0x1,%eax
   122f5:	83 c2 01             	add    $0x1,%edx
   122f8:	0f b6 08             	movzbl (%eax),%ecx
   122fb:	84 c9                	test   %cl,%cl
   122fd:	74 0a                	je     12309 <__strcmp+0x23>
   122ff:	0f b6 18             	movzbl (%eax),%ebx
   12302:	0f b6 0a             	movzbl (%edx),%ecx
   12305:	38 cb                	cmp    %cl,%bl
   12307:	74 e9                	je     122f2 <__strcmp+0xc>
   12309:	0f b6 00             	movzbl (%eax),%eax
   1230c:	0f be c8             	movsbl %al,%ecx
   1230f:	0f b6 02             	movzbl (%edx),%eax
   12312:	0f be c0             	movsbl %al,%eax
   12315:	29 c1                	sub    %eax,%ecx
   12317:	89 c8                	mov    %ecx,%eax
   12319:	5b                   	pop    %ebx
   1231a:	5d                   	pop    %ebp
   1231b:	c3                   	ret    

0001231c <__strcpy>:
   1231c:	55                   	push   %ebp
   1231d:	89 e5                	mov    %esp,%ebp
   1231f:	53                   	push   %ebx
   12320:	83 ec 10             	sub    $0x10,%esp
   12323:	8b 55 08             	mov    0x8(%ebp),%edx
   12326:	8b 5d 0c             	mov    0xc(%ebp),%ebx
   12329:	89 55 f8             	mov    %edx,-0x8(%ebp)
   1232c:	90                   	nop
   1232d:	89 d9                	mov    %ebx,%ecx
   1232f:	8d 59 01             	lea    0x1(%ecx),%ebx
   12332:	89 d0                	mov    %edx,%eax
   12334:	8d 50 01             	lea    0x1(%eax),%edx
   12337:	0f b6 09             	movzbl (%ecx),%ecx
   1233a:	88 08                	mov    %cl,(%eax)
   1233c:	0f b6 00             	movzbl (%eax),%eax
   1233f:	84 c0                	test   %al,%al
   12341:	75 ea                	jne    1232d <__strcpy+0x11>
   12343:	8b 45 f8             	mov    -0x8(%ebp),%eax
   12346:	83 c4 10             	add    $0x10,%esp
   12349:	5b                   	pop    %ebx
   1234a:	5d                   	pop    %ebp
   1234b:	c3                   	ret    

0001234c <__strcat>:
   1234c:	55                   	push   %ebp
   1234d:	89 e5                	mov    %esp,%ebp
   1234f:	56                   	push   %esi
   12350:	53                   	push   %ebx
   12351:	8b 45 08             	mov    0x8(%ebp),%eax
   12354:	8b 75 0c             	mov    0xc(%ebp),%esi
   12357:	89 c3                	mov    %eax,%ebx
   12359:	eb 03                	jmp    1235e <__strcat+0x12>
   1235b:	83 c0 01             	add    $0x1,%eax
   1235e:	0f b6 10             	movzbl (%eax),%edx
   12361:	84 d2                	test   %dl,%dl
   12363:	75 f6                	jne    1235b <__strcat+0xf>
   12365:	90                   	nop
   12366:	89 f1                	mov    %esi,%ecx
   12368:	8d 71 01             	lea    0x1(%ecx),%esi
   1236b:	89 c2                	mov    %eax,%edx
   1236d:	8d 42 01             	lea    0x1(%edx),%eax
   12370:	0f b6 09             	movzbl (%ecx),%ecx
   12373:	88 0a                	mov    %cl,(%edx)
   12375:	0f b6 12             	movzbl (%edx),%edx
   12378:	84 d2                	test   %dl,%dl
   1237a:	75 ea                	jne    12366 <__strcat+0x1a>
   1237c:	89 d8                	mov    %ebx,%eax
   1237e:	5b                   	pop    %ebx
   1237f:	5e                   	pop    %esi
   12380:	5d                   	pop    %ebp
   12381:	c3                   	ret    

00012382 <__pad>:
   12382:	55                   	push   %ebp
   12383:	89 e5                	mov    %esp,%ebp
   12385:	eb 12                	jmp    12399 <__pad+0x17>
   12387:	8b 45 08             	mov    0x8(%ebp),%eax
   1238a:	8d 50 01             	lea    0x1(%eax),%edx
   1238d:	89 55 08             	mov    %edx,0x8(%ebp)
   12390:	8b 55 10             	mov    0x10(%ebp),%edx
   12393:	88 10                	mov    %dl,(%eax)
   12395:	83 6d 0c 01          	subl   $0x1,0xc(%ebp)
   12399:	83 7d 0c 00          	cmpl   $0x0,0xc(%ebp)
   1239d:	7f e8                	jg     12387 <__pad+0x5>
   1239f:	8b 45 08             	mov    0x8(%ebp),%eax
   123a2:	5d                   	pop    %ebp
   123a3:	c3                   	ret    

000123a4 <__padstr>:
   123a4:	55                   	push   %ebp
   123a5:	89 e5                	mov    %esp,%ebp
   123a7:	83 ec 10             	sub    $0x10,%esp
   123aa:	83 7d 10 00          	cmpl   $0x0,0x10(%ebp)
   123ae:	79 0e                	jns    123be <__padstr+0x1a>
   123b0:	ff 75 0c             	pushl  0xc(%ebp)
   123b3:	e8 0c ff ff ff       	call   122c4 <__strlen>
   123b8:	83 c4 04             	add    $0x4,%esp
   123bb:	89 45 10             	mov    %eax,0x10(%ebp)
   123be:	8b 45 14             	mov    0x14(%ebp),%eax
   123c1:	2b 45 10             	sub    0x10(%ebp),%eax
   123c4:	89 45 f8             	mov    %eax,-0x8(%ebp)
   123c7:	83 7d f8 00          	cmpl   $0x0,-0x8(%ebp)
   123cb:	7e 1a                	jle    123e7 <__padstr+0x43>
   123cd:	83 7d 18 00          	cmpl   $0x0,0x18(%ebp)
   123d1:	75 14                	jne    123e7 <__padstr+0x43>
   123d3:	ff 75 1c             	pushl  0x1c(%ebp)
   123d6:	ff 75 f8             	pushl  -0x8(%ebp)
   123d9:	ff 75 08             	pushl  0x8(%ebp)
   123dc:	e8 a1 ff ff ff       	call   12382 <__pad>
   123e1:	83 c4 0c             	add    $0xc,%esp
   123e4:	89 45 08             	mov    %eax,0x8(%ebp)
   123e7:	c7 45 fc 00 00 00 00 	movl   $0x0,-0x4(%ebp)
   123ee:	eb 1b                	jmp    1240b <__padstr+0x67>
   123f0:	8b 55 fc             	mov    -0x4(%ebp),%edx
   123f3:	8b 45 0c             	mov    0xc(%ebp),%eax
   123f6:	8d 0c 02             	lea    (%edx,%eax,1),%ecx
   123f9:	8b 45 08             	mov    0x8(%ebp),%eax
   123fc:	8d 50 01             	lea    0x1(%eax),%edx
   123ff:	89 55 08             	mov    %edx,0x8(%ebp)
   12402:	0f b6 11             	movzbl (%ecx),%edx
   12405:	88 10                	mov    %dl,(%eax)
   12407:	83 45 fc 01          	addl   $0x1,-0x4(%ebp)
   1240b:	8b 45 fc             	mov    -0x4(%ebp),%eax
   1240e:	3b 45 10             	cmp    0x10(%ebp),%eax
   12411:	7c dd                	jl     123f0 <__padstr+0x4c>
   12413:	83 7d f8 00          	cmpl   $0x0,-0x8(%ebp)
   12417:	7e 1a                	jle    12433 <__padstr+0x8f>
   12419:	83 7d 18 00          	cmpl   $0x0,0x18(%ebp)
   1241d:	74 14                	je     12433 <__padstr+0x8f>
   1241f:	ff 75 1c             	pushl  0x1c(%ebp)
   12422:	ff 75 f8             	pushl  -0x8(%ebp)
   12425:	ff 75 08             	pushl  0x8(%ebp)
   12428:	e8 55 ff ff ff       	call   12382 <__pad>
   1242d:	83 c4 0c             	add    $0xc,%esp
   12430:	89 45 08             	mov    %eax,0x8(%ebp)
   12433:	8b 45 08             	mov    0x8(%ebp),%eax
   12436:	c9                   	leave  
   12437:	c3                   	ret    

00012438 <__sprint>:
   12438:	55                   	push   %ebp
   12439:	89 e5                	mov    %esp,%ebp
   1243b:	83 ec 38             	sub    $0x38,%esp
   1243e:	8d 45 0c             	lea    0xc(%ebp),%eax
   12441:	83 c0 04             	add    $0x4,%eax
   12444:	89 45 f4             	mov    %eax,-0xc(%ebp)
   12447:	e9 fb 01 00 00       	jmp    12647 <__sprint+0x20f>
   1244c:	80 7d f3 25          	cmpb   $0x25,-0xd(%ebp)
   12450:	0f 85 e2 01 00 00    	jne    12638 <__sprint+0x200>
   12456:	c7 45 ec 00 00 00 00 	movl   $0x0,-0x14(%ebp)
   1245d:	c7 45 e4 20 00 00 00 	movl   $0x20,-0x1c(%ebp)
   12464:	c7 45 e8 00 00 00 00 	movl   $0x0,-0x18(%ebp)
   1246b:	8b 45 0c             	mov    0xc(%ebp),%eax
   1246e:	8d 50 01             	lea    0x1(%eax),%edx
   12471:	89 55 0c             	mov    %edx,0xc(%ebp)
   12474:	0f b6 00             	movzbl (%eax),%eax
   12477:	88 45 f3             	mov    %al,-0xd(%ebp)
   1247a:	80 7d f3 2d          	cmpb   $0x2d,-0xd(%ebp)
   1247e:	75 16                	jne    12496 <__sprint+0x5e>
   12480:	c7 45 ec 01 00 00 00 	movl   $0x1,-0x14(%ebp)
   12487:	8b 45 0c             	mov    0xc(%ebp),%eax
   1248a:	8d 50 01             	lea    0x1(%eax),%edx
   1248d:	89 55 0c             	mov    %edx,0xc(%ebp)
   12490:	0f b6 00             	movzbl (%eax),%eax
   12493:	88 45 f3             	mov    %al,-0xd(%ebp)
   12496:	80 7d f3 30          	cmpb   $0x30,-0xd(%ebp)
   1249a:	75 40                	jne    124dc <__sprint+0xa4>
   1249c:	c7 45 e4 30 00 00 00 	movl   $0x30,-0x1c(%ebp)
   124a3:	8b 45 0c             	mov    0xc(%ebp),%eax
   124a6:	8d 50 01             	lea    0x1(%eax),%edx
   124a9:	89 55 0c             	mov    %edx,0xc(%ebp)
   124ac:	0f b6 00             	movzbl (%eax),%eax
   124af:	88 45 f3             	mov    %al,-0xd(%ebp)
   124b2:	eb 28                	jmp    124dc <__sprint+0xa4>
   124b4:	8b 55 e8             	mov    -0x18(%ebp),%edx
   124b7:	89 d0                	mov    %edx,%eax
   124b9:	c1 e0 02             	shl    $0x2,%eax
   124bc:	01 d0                	add    %edx,%eax
   124be:	01 c0                	add    %eax,%eax
   124c0:	89 45 e8             	mov    %eax,-0x18(%ebp)
   124c3:	0f be 45 f3          	movsbl -0xd(%ebp),%eax
   124c7:	83 e8 30             	sub    $0x30,%eax
   124ca:	01 45 e8             	add    %eax,-0x18(%ebp)
   124cd:	8b 45 0c             	mov    0xc(%ebp),%eax
   124d0:	8d 50 01             	lea    0x1(%eax),%edx
   124d3:	89 55 0c             	mov    %edx,0xc(%ebp)
   124d6:	0f b6 00             	movzbl (%eax),%eax
   124d9:	88 45 f3             	mov    %al,-0xd(%ebp)
   124dc:	80 7d f3 2f          	cmpb   $0x2f,-0xd(%ebp)
   124e0:	7e 06                	jle    124e8 <__sprint+0xb0>
   124e2:	80 7d f3 39          	cmpb   $0x39,-0xd(%ebp)
   124e6:	7e cc                	jle    124b4 <__sprint+0x7c>
   124e8:	0f be 45 f3          	movsbl -0xd(%ebp),%eax
   124ec:	83 e8 63             	sub    $0x63,%eax
   124ef:	83 f8 15             	cmp    $0x15,%eax
   124f2:	0f 87 4f 01 00 00    	ja     12647 <__sprint+0x20f>
   124f8:	8b 04 85 e4 6f 01 00 	mov    0x16fe4(,%eax,4),%eax
   124ff:	ff e0                	jmp    *%eax
   12501:	8b 45 f4             	mov    -0xc(%ebp),%eax
   12504:	8d 50 04             	lea    0x4(%eax),%edx
   12507:	89 55 f4             	mov    %edx,-0xc(%ebp)
   1250a:	8b 00                	mov    (%eax),%eax
   1250c:	88 45 f3             	mov    %al,-0xd(%ebp)
   1250f:	0f b6 45 f3          	movzbl -0xd(%ebp),%eax
   12513:	88 45 d0             	mov    %al,-0x30(%ebp)
   12516:	c6 45 d1 00          	movb   $0x0,-0x2f(%ebp)
   1251a:	ff 75 e4             	pushl  -0x1c(%ebp)
   1251d:	ff 75 ec             	pushl  -0x14(%ebp)
   12520:	ff 75 e8             	pushl  -0x18(%ebp)
   12523:	6a 01                	push   $0x1
   12525:	8d 45 d0             	lea    -0x30(%ebp),%eax
   12528:	50                   	push   %eax
   12529:	ff 75 08             	pushl  0x8(%ebp)
   1252c:	e8 73 fe ff ff       	call   123a4 <__padstr>
   12531:	83 c4 18             	add    $0x18,%esp
   12534:	89 45 08             	mov    %eax,0x8(%ebp)
   12537:	e9 0b 01 00 00       	jmp    12647 <__sprint+0x20f>
   1253c:	8b 45 f4             	mov    -0xc(%ebp),%eax
   1253f:	8d 50 04             	lea    0x4(%eax),%edx
   12542:	89 55 f4             	mov    %edx,-0xc(%ebp)
   12545:	8b 00                	mov    (%eax),%eax
   12547:	83 ec 08             	sub    $0x8,%esp
   1254a:	50                   	push   %eax
   1254b:	8d 45 d0             	lea    -0x30(%ebp),%eax
   1254e:	50                   	push   %eax
   1254f:	e8 9e 01 00 00       	call   126f2 <__cvtdec>
   12554:	83 c4 10             	add    $0x10,%esp
   12557:	89 45 e0             	mov    %eax,-0x20(%ebp)
   1255a:	83 ec 08             	sub    $0x8,%esp
   1255d:	ff 75 e4             	pushl  -0x1c(%ebp)
   12560:	ff 75 ec             	pushl  -0x14(%ebp)
   12563:	ff 75 e8             	pushl  -0x18(%ebp)
   12566:	ff 75 e0             	pushl  -0x20(%ebp)
   12569:	8d 45 d0             	lea    -0x30(%ebp),%eax
   1256c:	50                   	push   %eax
   1256d:	ff 75 08             	pushl  0x8(%ebp)
   12570:	e8 2f fe ff ff       	call   123a4 <__padstr>
   12575:	83 c4 20             	add    $0x20,%esp
   12578:	89 45 08             	mov    %eax,0x8(%ebp)
   1257b:	e9 c7 00 00 00       	jmp    12647 <__sprint+0x20f>
   12580:	8b 45 f4             	mov    -0xc(%ebp),%eax
   12583:	8d 50 04             	lea    0x4(%eax),%edx
   12586:	89 55 f4             	mov    %edx,-0xc(%ebp)
   12589:	8b 00                	mov    (%eax),%eax
   1258b:	89 45 dc             	mov    %eax,-0x24(%ebp)
   1258e:	83 ec 08             	sub    $0x8,%esp
   12591:	ff 75 e4             	pushl  -0x1c(%ebp)
   12594:	ff 75 ec             	pushl  -0x14(%ebp)
   12597:	ff 75 e8             	pushl  -0x18(%ebp)
   1259a:	6a ff                	push   $0xffffffff
   1259c:	ff 75 dc             	pushl  -0x24(%ebp)
   1259f:	ff 75 08             	pushl  0x8(%ebp)
   125a2:	e8 fd fd ff ff       	call   123a4 <__padstr>
   125a7:	83 c4 20             	add    $0x20,%esp
   125aa:	89 45 08             	mov    %eax,0x8(%ebp)
   125ad:	e9 95 00 00 00       	jmp    12647 <__sprint+0x20f>
   125b2:	8b 45 f4             	mov    -0xc(%ebp),%eax
   125b5:	8d 50 04             	lea    0x4(%eax),%edx
   125b8:	89 55 f4             	mov    %edx,-0xc(%ebp)
   125bb:	8b 00                	mov    (%eax),%eax
   125bd:	83 ec 08             	sub    $0x8,%esp
   125c0:	50                   	push   %eax
   125c1:	8d 45 d0             	lea    -0x30(%ebp),%eax
   125c4:	50                   	push   %eax
   125c5:	e8 6f 01 00 00       	call   12739 <__cvthex>
   125ca:	83 c4 10             	add    $0x10,%esp
   125cd:	83 c0 02             	add    $0x2,%eax
   125d0:	89 45 e0             	mov    %eax,-0x20(%ebp)
   125d3:	83 ec 08             	sub    $0x8,%esp
   125d6:	ff 75 e4             	pushl  -0x1c(%ebp)
   125d9:	ff 75 ec             	pushl  -0x14(%ebp)
   125dc:	ff 75 e8             	pushl  -0x18(%ebp)
   125df:	ff 75 e0             	pushl  -0x20(%ebp)
   125e2:	8d 45 d0             	lea    -0x30(%ebp),%eax
   125e5:	50                   	push   %eax
   125e6:	ff 75 08             	pushl  0x8(%ebp)
   125e9:	e8 b6 fd ff ff       	call   123a4 <__padstr>
   125ee:	83 c4 20             	add    $0x20,%esp
   125f1:	89 45 08             	mov    %eax,0x8(%ebp)
   125f4:	eb 51                	jmp    12647 <__sprint+0x20f>
   125f6:	8b 45 f4             	mov    -0xc(%ebp),%eax
   125f9:	8d 50 04             	lea    0x4(%eax),%edx
   125fc:	89 55 f4             	mov    %edx,-0xc(%ebp)
   125ff:	8b 00                	mov    (%eax),%eax
   12601:	83 ec 08             	sub    $0x8,%esp
   12604:	50                   	push   %eax
   12605:	8d 45 d0             	lea    -0x30(%ebp),%eax
   12608:	50                   	push   %eax
   12609:	e8 aa 01 00 00       	call   127b8 <__cvtoct>
   1260e:	83 c4 10             	add    $0x10,%esp
   12611:	89 45 e0             	mov    %eax,-0x20(%ebp)
   12614:	83 ec 08             	sub    $0x8,%esp
   12617:	ff 75 e4             	pushl  -0x1c(%ebp)
   1261a:	ff 75 ec             	pushl  -0x14(%ebp)
   1261d:	ff 75 e8             	pushl  -0x18(%ebp)
   12620:	ff 75 e0             	pushl  -0x20(%ebp)
   12623:	8d 45 d0             	lea    -0x30(%ebp),%eax
   12626:	50                   	push   %eax
   12627:	ff 75 08             	pushl  0x8(%ebp)
   1262a:	e8 75 fd ff ff       	call   123a4 <__padstr>
   1262f:	83 c4 20             	add    $0x20,%esp
   12632:	89 45 08             	mov    %eax,0x8(%ebp)
   12635:	90                   	nop
   12636:	eb 0f                	jmp    12647 <__sprint+0x20f>
   12638:	8b 45 08             	mov    0x8(%ebp),%eax
   1263b:	8d 50 01             	lea    0x1(%eax),%edx
   1263e:	89 55 08             	mov    %edx,0x8(%ebp)
   12641:	0f b6 55 f3          	movzbl -0xd(%ebp),%edx
   12645:	88 10                	mov    %dl,(%eax)
   12647:	8b 45 0c             	mov    0xc(%ebp),%eax
   1264a:	8d 50 01             	lea    0x1(%eax),%edx
   1264d:	89 55 0c             	mov    %edx,0xc(%ebp)
   12650:	0f b6 00             	movzbl (%eax),%eax
   12653:	88 45 f3             	mov    %al,-0xd(%ebp)
   12656:	80 7d f3 00          	cmpb   $0x0,-0xd(%ebp)
   1265a:	0f 85 ec fd ff ff    	jne    1244c <__sprint+0x14>
   12660:	8b 45 08             	mov    0x8(%ebp),%eax
   12663:	c6 00 00             	movb   $0x0,(%eax)
   12666:	90                   	nop
   12667:	c9                   	leave  
   12668:	c3                   	ret    

00012669 <__cvtdec0>:
   12669:	55                   	push   %ebp
   1266a:	89 e5                	mov    %esp,%ebp
   1266c:	83 ec 18             	sub    $0x18,%esp
   1266f:	8b 4d 0c             	mov    0xc(%ebp),%ecx
   12672:	ba 67 66 66 66       	mov    $0x66666667,%edx
   12677:	89 c8                	mov    %ecx,%eax
   12679:	f7 ea                	imul   %edx
   1267b:	c1 fa 02             	sar    $0x2,%edx
   1267e:	89 c8                	mov    %ecx,%eax
   12680:	c1 f8 1f             	sar    $0x1f,%eax
   12683:	29 c2                	sub    %eax,%edx
   12685:	89 d0                	mov    %edx,%eax
   12687:	89 45 f4             	mov    %eax,-0xc(%ebp)
   1268a:	83 7d f4 00          	cmpl   $0x0,-0xc(%ebp)
   1268e:	79 0e                	jns    1269e <__cvtdec0+0x35>
   12690:	c7 45 f4 cc cc cc 0c 	movl   $0xccccccc,-0xc(%ebp)
   12697:	c7 45 0c 08 00 00 00 	movl   $0x8,0xc(%ebp)
   1269e:	83 7d f4 00          	cmpl   $0x0,-0xc(%ebp)
   126a2:	74 14                	je     126b8 <__cvtdec0+0x4f>
   126a4:	83 ec 08             	sub    $0x8,%esp
   126a7:	ff 75 f4             	pushl  -0xc(%ebp)
   126aa:	ff 75 08             	pushl  0x8(%ebp)
   126ad:	e8 b7 ff ff ff       	call   12669 <__cvtdec0>
   126b2:	83 c4 10             	add    $0x10,%esp
   126b5:	89 45 08             	mov    %eax,0x8(%ebp)
   126b8:	8b 4d 0c             	mov    0xc(%ebp),%ecx
   126bb:	ba 67 66 66 66       	mov    $0x66666667,%edx
   126c0:	89 c8                	mov    %ecx,%eax
   126c2:	f7 ea                	imul   %edx
   126c4:	c1 fa 02             	sar    $0x2,%edx
   126c7:	89 c8                	mov    %ecx,%eax
   126c9:	c1 f8 1f             	sar    $0x1f,%eax
   126cc:	29 c2                	sub    %eax,%edx
   126ce:	89 d0                	mov    %edx,%eax
   126d0:	c1 e0 02             	shl    $0x2,%eax
   126d3:	01 d0                	add    %edx,%eax
   126d5:	01 c0                	add    %eax,%eax
   126d7:	29 c1                	sub    %eax,%ecx
   126d9:	89 ca                	mov    %ecx,%edx
   126db:	89 d0                	mov    %edx,%eax
   126dd:	8d 48 30             	lea    0x30(%eax),%ecx
   126e0:	8b 45 08             	mov    0x8(%ebp),%eax
   126e3:	8d 50 01             	lea    0x1(%eax),%edx
   126e6:	89 55 08             	mov    %edx,0x8(%ebp)
   126e9:	89 ca                	mov    %ecx,%edx
   126eb:	88 10                	mov    %dl,(%eax)
   126ed:	8b 45 08             	mov    0x8(%ebp),%eax
   126f0:	c9                   	leave  
   126f1:	c3                   	ret    

000126f2 <__cvtdec>:
   126f2:	55                   	push   %ebp
   126f3:	89 e5                	mov    %esp,%ebp
   126f5:	83 ec 18             	sub    $0x18,%esp
   126f8:	8b 45 08             	mov    0x8(%ebp),%eax
   126fb:	89 45 f4             	mov    %eax,-0xc(%ebp)
   126fe:	83 7d 0c 00          	cmpl   $0x0,0xc(%ebp)
   12702:	79 0f                	jns    12713 <__cvtdec+0x21>
   12704:	8b 45 f4             	mov    -0xc(%ebp),%eax
   12707:	8d 50 01             	lea    0x1(%eax),%edx
   1270a:	89 55 f4             	mov    %edx,-0xc(%ebp)
   1270d:	c6 00 2d             	movb   $0x2d,(%eax)
   12710:	f7 5d 0c             	negl   0xc(%ebp)
   12713:	83 ec 08             	sub    $0x8,%esp
   12716:	ff 75 0c             	pushl  0xc(%ebp)
   12719:	ff 75 f4             	pushl  -0xc(%ebp)
   1271c:	e8 48 ff ff ff       	call   12669 <__cvtdec0>
   12721:	83 c4 10             	add    $0x10,%esp
   12724:	89 45 f4             	mov    %eax,-0xc(%ebp)
   12727:	8b 45 f4             	mov    -0xc(%ebp),%eax
   1272a:	c6 00 00             	movb   $0x0,(%eax)
   1272d:	8b 55 f4             	mov    -0xc(%ebp),%edx
   12730:	8b 45 08             	mov    0x8(%ebp),%eax
   12733:	29 c2                	sub    %eax,%edx
   12735:	89 d0                	mov    %edx,%eax
   12737:	c9                   	leave  
   12738:	c3                   	ret    

00012739 <__cvthex>:
   12739:	55                   	push   %ebp
   1273a:	89 e5                	mov    %esp,%ebp
   1273c:	83 ec 10             	sub    $0x10,%esp
   1273f:	c7 45 f8 00 00 00 00 	movl   $0x0,-0x8(%ebp)
   12746:	8b 45 08             	mov    0x8(%ebp),%eax
   12749:	89 45 f4             	mov    %eax,-0xc(%ebp)
   1274c:	c7 45 fc 00 00 00 00 	movl   $0x0,-0x4(%ebp)
   12753:	eb 4b                	jmp    127a0 <__cvthex+0x67>
   12755:	8b 45 0c             	mov    0xc(%ebp),%eax
   12758:	25 00 00 00 f0       	and    $0xf0000000,%eax
   1275d:	89 45 f0             	mov    %eax,-0x10(%ebp)
   12760:	83 7d fc 07          	cmpl   $0x7,-0x4(%ebp)
   12764:	74 0c                	je     12772 <__cvthex+0x39>
   12766:	83 7d f0 00          	cmpl   $0x0,-0x10(%ebp)
   1276a:	75 06                	jne    12772 <__cvthex+0x39>
   1276c:	83 7d f8 00          	cmpl   $0x0,-0x8(%ebp)
   12770:	74 26                	je     12798 <__cvthex+0x5f>
   12772:	c7 45 f8 01 00 00 00 	movl   $0x1,-0x8(%ebp)
   12779:	c1 7d f0 1c          	sarl   $0x1c,-0x10(%ebp)
   1277d:	83 65 f0 0f          	andl   $0xf,-0x10(%ebp)
   12781:	8b 45 f4             	mov    -0xc(%ebp),%eax
   12784:	8d 50 01             	lea    0x1(%eax),%edx
   12787:	89 55 f4             	mov    %edx,-0xc(%ebp)
   1278a:	8b 55 f0             	mov    -0x10(%ebp),%edx
   1278d:	81 c2 0c a5 01 00    	add    $0x1a50c,%edx
   12793:	0f b6 12             	movzbl (%edx),%edx
   12796:	88 10                	mov    %dl,(%eax)
   12798:	c1 65 0c 04          	shll   $0x4,0xc(%ebp)
   1279c:	83 45 fc 01          	addl   $0x1,-0x4(%ebp)
   127a0:	83 7d fc 07          	cmpl   $0x7,-0x4(%ebp)
   127a4:	7e af                	jle    12755 <__cvthex+0x1c>
   127a6:	8b 45 f4             	mov    -0xc(%ebp),%eax
   127a9:	c6 00 00             	movb   $0x0,(%eax)
   127ac:	8b 55 f4             	mov    -0xc(%ebp),%edx
   127af:	8b 45 08             	mov    0x8(%ebp),%eax
   127b2:	29 c2                	sub    %eax,%edx
   127b4:	89 d0                	mov    %edx,%eax
   127b6:	c9                   	leave  
   127b7:	c3                   	ret    

000127b8 <__cvtoct>:
   127b8:	55                   	push   %ebp
   127b9:	89 e5                	mov    %esp,%ebp
   127bb:	83 ec 10             	sub    $0x10,%esp
   127be:	c7 45 f8 00 00 00 00 	movl   $0x0,-0x8(%ebp)
   127c5:	8b 45 08             	mov    0x8(%ebp),%eax
   127c8:	89 45 f4             	mov    %eax,-0xc(%ebp)
   127cb:	8b 45 0c             	mov    0xc(%ebp),%eax
   127ce:	25 00 00 00 c0       	and    $0xc0000000,%eax
   127d3:	89 45 f0             	mov    %eax,-0x10(%ebp)
   127d6:	c1 7d f0 1e          	sarl   $0x1e,-0x10(%ebp)
   127da:	c7 45 fc 00 00 00 00 	movl   $0x0,-0x4(%ebp)
   127e1:	eb 4b                	jmp    1282e <__cvtoct+0x76>
   127e3:	83 7d fc 0a          	cmpl   $0xa,-0x4(%ebp)
   127e7:	74 0c                	je     127f5 <__cvtoct+0x3d>
   127e9:	83 7d f0 00          	cmpl   $0x0,-0x10(%ebp)
   127ed:	75 06                	jne    127f5 <__cvtoct+0x3d>
   127ef:	83 7d f8 00          	cmpl   $0x0,-0x8(%ebp)
   127f3:	74 22                	je     12817 <__cvtoct+0x5f>
   127f5:	c7 45 f8 01 00 00 00 	movl   $0x1,-0x8(%ebp)
   127fc:	83 65 f0 07          	andl   $0x7,-0x10(%ebp)
   12800:	8b 45 f4             	mov    -0xc(%ebp),%eax
   12803:	8d 50 01             	lea    0x1(%eax),%edx
   12806:	89 55 f4             	mov    %edx,-0xc(%ebp)
   12809:	8b 55 f0             	mov    -0x10(%ebp),%edx
   1280c:	81 c2 0c a5 01 00    	add    $0x1a50c,%edx
   12812:	0f b6 12             	movzbl (%edx),%edx
   12815:	88 10                	mov    %dl,(%eax)
   12817:	c1 65 0c 03          	shll   $0x3,0xc(%ebp)
   1281b:	8b 45 0c             	mov    0xc(%ebp),%eax
   1281e:	25 00 00 00 e0       	and    $0xe0000000,%eax
   12823:	89 45 f0             	mov    %eax,-0x10(%ebp)
   12826:	c1 7d f0 1d          	sarl   $0x1d,-0x10(%ebp)
   1282a:	83 45 fc 01          	addl   $0x1,-0x4(%ebp)
   1282e:	83 7d fc 0a          	cmpl   $0xa,-0x4(%ebp)
   12832:	7e af                	jle    127e3 <__cvtoct+0x2b>
   12834:	8b 45 f4             	mov    -0xc(%ebp),%eax
   12837:	c6 00 00             	movb   $0x0,(%eax)
   1283a:	8b 55 f4             	mov    -0xc(%ebp),%edx
   1283d:	8b 45 08             	mov    0x8(%ebp),%eax
   12840:	29 c2                	sub    %eax,%edx
   12842:	89 d0                	mov    %edx,%eax
   12844:	c9                   	leave  
   12845:	c3                   	ret    

00012846 <_kpanic>:
   12846:	55                   	push   %ebp
   12847:	89 e5                	mov    %esp,%ebp
   12849:	83 ec 08             	sub    $0x8,%esp
   1284c:	83 ec 0c             	sub    $0xc,%esp
   1284f:	68 3c 70 01 00       	push   $0x1703c
   12854:	e8 24 e7 ff ff       	call   10f7d <__cio_puts>
   12859:	83 c4 10             	add    $0x10,%esp
   1285c:	83 7d 0c 00          	cmpl   $0x0,0xc(%ebp)
   12860:	74 05                	je     12867 <_kpanic+0x21>
   12862:	8b 45 0c             	mov    0xc(%ebp),%eax
   12865:	eb 05                	jmp    1286c <_kpanic+0x26>
   12867:	b8 59 70 01 00       	mov    $0x17059,%eax
   1286c:	83 ec 04             	sub    $0x4,%esp
   1286f:	50                   	push   %eax
   12870:	ff 75 08             	pushl  0x8(%ebp)
   12873:	68 60 70 01 00       	push   $0x17060
   12878:	e8 33 ed ff ff       	call   115b0 <__cio_printf>
   1287d:	83 c4 10             	add    $0x10,%esp
   12880:	83 ec 0c             	sub    $0xc,%esp
   12883:	68 74 70 01 00       	push   $0x17074
   12888:	e8 57 f2 ff ff       	call   11ae4 <__panic>
   1288d:	83 c4 10             	add    $0x10,%esp
   12890:	90                   	nop
   12891:	c9                   	leave  
   12892:	c3                   	ret    

00012893 <_add_block>:
   12893:	55                   	push   %ebp
   12894:	89 e5                	mov    %esp,%ebp
   12896:	83 ec 18             	sub    $0x18,%esp
   12899:	81 7d 0c ff 0f 00 00 	cmpl   $0xfff,0xc(%ebp)
   128a0:	0f 86 d9 00 00 00    	jbe    1297f <_add_block+0xec>
   128a6:	8b 45 0c             	mov    0xc(%ebp),%eax
   128a9:	25 ff 0f 00 00       	and    $0xfff,%eax
   128ae:	85 c0                	test   %eax,%eax
   128b0:	74 07                	je     128b9 <_add_block+0x26>
   128b2:	81 65 0c 00 f0 ff ff 	andl   $0xfffff000,0xc(%ebp)
   128b9:	8b 45 08             	mov    0x8(%ebp),%eax
   128bc:	89 45 ec             	mov    %eax,-0x14(%ebp)
   128bf:	8b 45 0c             	mov    0xc(%ebp),%eax
   128c2:	c1 e8 0c             	shr    $0xc,%eax
   128c5:	89 c2                	mov    %eax,%edx
   128c7:	8b 45 ec             	mov    -0x14(%ebp),%eax
   128ca:	89 10                	mov    %edx,(%eax)
   128cc:	8b 45 ec             	mov    -0x14(%ebp),%eax
   128cf:	c7 40 04 00 00 00 00 	movl   $0x0,0x4(%eax)
   128d6:	a1 14 a6 01 00       	mov    0x1a614,%eax
   128db:	85 c0                	test   %eax,%eax
   128dd:	75 0d                	jne    128ec <_add_block+0x59>
   128df:	8b 45 ec             	mov    -0x14(%ebp),%eax
   128e2:	a3 14 a6 01 00       	mov    %eax,0x1a614
   128e7:	e9 94 00 00 00       	jmp    12980 <_add_block+0xed>
   128ec:	c7 45 f4 00 00 00 00 	movl   $0x0,-0xc(%ebp)
   128f3:	a1 14 a6 01 00       	mov    0x1a614,%eax
   128f8:	89 45 f0             	mov    %eax,-0x10(%ebp)
   128fb:	eb 0f                	jmp    1290c <_add_block+0x79>
   128fd:	8b 45 f0             	mov    -0x10(%ebp),%eax
   12900:	89 45 f4             	mov    %eax,-0xc(%ebp)
   12903:	8b 45 f0             	mov    -0x10(%ebp),%eax
   12906:	8b 40 04             	mov    0x4(%eax),%eax
   12909:	89 45 f0             	mov    %eax,-0x10(%ebp)
   1290c:	83 7d f0 00          	cmpl   $0x0,-0x10(%ebp)
   12910:	74 08                	je     1291a <_add_block+0x87>
   12912:	8b 45 f0             	mov    -0x10(%ebp),%eax
   12915:	3b 45 ec             	cmp    -0x14(%ebp),%eax
   12918:	72 e3                	jb     128fd <_add_block+0x6a>
   1291a:	8b 45 ec             	mov    -0x14(%ebp),%eax
   1291d:	8b 55 f0             	mov    -0x10(%ebp),%edx
   12920:	89 50 04             	mov    %edx,0x4(%eax)
   12923:	83 7d f4 00          	cmpl   $0x0,-0xc(%ebp)
   12927:	75 4b                	jne    12974 <_add_block+0xe1>
   12929:	83 7d f0 00          	cmpl   $0x0,-0x10(%ebp)
   1292d:	75 3b                	jne    1296a <_add_block+0xd7>
   1292f:	83 ec 08             	sub    $0x8,%esp
   12932:	6a 00                	push   $0x0
   12934:	68 f5 00 00 00       	push   $0xf5
   12939:	68 84 70 01 00       	push   $0x17084
   1293e:	68 24 71 01 00       	push   $0x17124
   12943:	68 8b 70 01 00       	push   $0x1708b
   12948:	68 00 bb 01 00       	push   $0x1bb00
   1294d:	e8 e6 fa ff ff       	call   12438 <__sprint>
   12952:	83 c4 20             	add    $0x20,%esp
   12955:	83 ec 08             	sub    $0x8,%esp
   12958:	68 a5 70 01 00       	push   $0x170a5
   1295d:	68 00 bb 01 00       	push   $0x1bb00
   12962:	e8 df fe ff ff       	call   12846 <_kpanic>
   12967:	83 c4 10             	add    $0x10,%esp
   1296a:	8b 45 ec             	mov    -0x14(%ebp),%eax
   1296d:	a3 14 a6 01 00       	mov    %eax,0x1a614
   12972:	eb 0c                	jmp    12980 <_add_block+0xed>
   12974:	8b 45 f4             	mov    -0xc(%ebp),%eax
   12977:	8b 55 ec             	mov    -0x14(%ebp),%edx
   1297a:	89 50 04             	mov    %edx,0x4(%eax)
   1297d:	eb 01                	jmp    12980 <_add_block+0xed>
   1297f:	90                   	nop
   12980:	c9                   	leave  
   12981:	c3                   	ret    

00012982 <_km_init>:
   12982:	55                   	push   %ebp
   12983:	89 e5                	mov    %esp,%ebp
   12985:	56                   	push   %esi
   12986:	53                   	push   %ebx
   12987:	83 ec 60             	sub    $0x60,%esp
   1298a:	83 ec 0c             	sub    $0xc,%esp
   1298d:	68 aa 70 01 00       	push   $0x170aa
   12992:	e8 e6 e5 ff ff       	call   10f7d <__cio_puts>
   12997:	83 c4 10             	add    $0x10,%esp
   1299a:	c7 05 18 a6 01 00 00 	movl   $0x0,0x1a618
   129a1:	00 00 00 
   129a4:	c7 05 14 a6 01 00 00 	movl   $0x0,0x1a614
   129ab:	00 00 00 
   129ae:	b8 04 c7 01 00       	mov    $0x1c704,%eax
   129b3:	89 45 e8             	mov    %eax,-0x18(%ebp)
   129b6:	c7 45 ec 00 00 00 00 	movl   $0x0,-0x14(%ebp)
   129bd:	8b 45 e8             	mov    -0x18(%ebp),%eax
   129c0:	25 ff 0f 00 00       	and    $0xfff,%eax
   129c5:	89 45 a0             	mov    %eax,-0x60(%ebp)
   129c8:	8b 45 ec             	mov    -0x14(%ebp),%eax
   129cb:	83 e0 00             	and    $0x0,%eax
   129ce:	89 45 a4             	mov    %eax,-0x5c(%ebp)
   129d1:	8b 45 a0             	mov    -0x60(%ebp),%eax
   129d4:	8b 55 a4             	mov    -0x5c(%ebp),%edx
   129d7:	89 c1                	mov    %eax,%ecx
   129d9:	80 f5 00             	xor    $0x0,%ch
   129dc:	89 cb                	mov    %ecx,%ebx
   129de:	89 d0                	mov    %edx,%eax
   129e0:	80 f4 00             	xor    $0x0,%ah
   129e3:	89 c6                	mov    %eax,%esi
   129e5:	89 f0                	mov    %esi,%eax
   129e7:	09 d8                	or     %ebx,%eax
   129e9:	85 c0                	test   %eax,%eax
   129eb:	74 16                	je     12a03 <_km_init+0x81>
   129ed:	81 65 e8 00 f0 ff ff 	andl   $0xfffff000,-0x18(%ebp)
   129f4:	83 65 ec 00          	andl   $0x0,-0x14(%ebp)
   129f8:	81 45 e8 00 10 00 00 	addl   $0x1000,-0x18(%ebp)
   129ff:	83 55 ec 00          	adcl   $0x0,-0x14(%ebp)
   12a03:	b8 00 2d 00 00       	mov    $0x2d00,%eax
   12a08:	8b 00                	mov    (%eax),%eax
   12a0a:	89 45 cc             	mov    %eax,-0x34(%ebp)
   12a0d:	83 7d cc 00          	cmpl   $0x0,-0x34(%ebp)
   12a11:	0f 8e 6b 01 00 00    	jle    12b82 <_km_init+0x200>
   12a17:	c7 45 f4 04 2d 00 00 	movl   $0x2d04,-0xc(%ebp)
   12a1e:	c7 45 e4 00 00 00 00 	movl   $0x0,-0x1c(%ebp)
   12a25:	e9 30 01 00 00       	jmp    12b5a <_km_init+0x1d8>
   12a2a:	8b 45 f4             	mov    -0xc(%ebp),%eax
   12a2d:	8b 40 14             	mov    0x14(%eax),%eax
   12a30:	83 e0 01             	and    $0x1,%eax
   12a33:	85 c0                	test   %eax,%eax
   12a35:	0f 84 0a 01 00 00    	je     12b45 <_km_init+0x1c3>
   12a3b:	8b 45 f4             	mov    -0xc(%ebp),%eax
   12a3e:	8b 40 14             	mov    0x14(%eax),%eax
   12a41:	83 e0 02             	and    $0x2,%eax
   12a44:	85 c0                	test   %eax,%eax
   12a46:	0f 85 fc 00 00 00    	jne    12b48 <_km_init+0x1c6>
   12a4c:	8b 45 f4             	mov    -0xc(%ebp),%eax
   12a4f:	8b 40 10             	mov    0x10(%eax),%eax
   12a52:	83 f8 01             	cmp    $0x1,%eax
   12a55:	0f 85 f0 00 00 00    	jne    12b4b <_km_init+0x1c9>
   12a5b:	8b 45 f4             	mov    -0xc(%ebp),%eax
   12a5e:	8b 40 04             	mov    0x4(%eax),%eax
   12a61:	85 c0                	test   %eax,%eax
   12a63:	0f 85 e5 00 00 00    	jne    12b4e <_km_init+0x1cc>
   12a69:	8b 45 f4             	mov    -0xc(%ebp),%eax
   12a6c:	8b 50 04             	mov    0x4(%eax),%edx
   12a6f:	8b 00                	mov    (%eax),%eax
   12a71:	89 45 d8             	mov    %eax,-0x28(%ebp)
   12a74:	89 55 dc             	mov    %edx,-0x24(%ebp)
   12a77:	8b 45 f4             	mov    -0xc(%ebp),%eax
   12a7a:	8b 50 0c             	mov    0xc(%eax),%edx
   12a7d:	8b 40 08             	mov    0x8(%eax),%eax
   12a80:	89 45 d0             	mov    %eax,-0x30(%ebp)
   12a83:	89 55 d4             	mov    %edx,-0x2c(%ebp)
   12a86:	8b 45 d8             	mov    -0x28(%ebp),%eax
   12a89:	8b 55 dc             	mov    -0x24(%ebp),%edx
   12a8c:	3b 55 ec             	cmp    -0x14(%ebp),%edx
   12a8f:	77 5b                	ja     12aec <_km_init+0x16a>
   12a91:	3b 55 ec             	cmp    -0x14(%ebp),%edx
   12a94:	72 05                	jb     12a9b <_km_init+0x119>
   12a96:	3b 45 e8             	cmp    -0x18(%ebp),%eax
   12a99:	73 51                	jae    12aec <_km_init+0x16a>
   12a9b:	8b 4d d8             	mov    -0x28(%ebp),%ecx
   12a9e:	8b 5d dc             	mov    -0x24(%ebp),%ebx
   12aa1:	8b 45 d0             	mov    -0x30(%ebp),%eax
   12aa4:	8b 55 d4             	mov    -0x2c(%ebp),%edx
   12aa7:	01 c8                	add    %ecx,%eax
   12aa9:	11 da                	adc    %ebx,%edx
   12aab:	39 55 ec             	cmp    %edx,-0x14(%ebp)
   12aae:	72 12                	jb     12ac2 <_km_init+0x140>
   12ab0:	39 55 ec             	cmp    %edx,-0x14(%ebp)
   12ab3:	0f 87 98 00 00 00    	ja     12b51 <_km_init+0x1cf>
   12ab9:	39 45 e8             	cmp    %eax,-0x18(%ebp)
   12abc:	0f 87 8f 00 00 00    	ja     12b51 <_km_init+0x1cf>
   12ac2:	8b 45 e8             	mov    -0x18(%ebp),%eax
   12ac5:	8b 55 ec             	mov    -0x14(%ebp),%edx
   12ac8:	2b 45 d8             	sub    -0x28(%ebp),%eax
   12acb:	1b 55 dc             	sbb    -0x24(%ebp),%edx
   12ace:	89 45 c0             	mov    %eax,-0x40(%ebp)
   12ad1:	89 55 c4             	mov    %edx,-0x3c(%ebp)
   12ad4:	8b 45 c0             	mov    -0x40(%ebp),%eax
   12ad7:	8b 55 c4             	mov    -0x3c(%ebp),%edx
   12ada:	29 45 d0             	sub    %eax,-0x30(%ebp)
   12add:	19 55 d4             	sbb    %edx,-0x2c(%ebp)
   12ae0:	8b 45 e8             	mov    -0x18(%ebp),%eax
   12ae3:	8b 55 ec             	mov    -0x14(%ebp),%edx
   12ae6:	89 45 d8             	mov    %eax,-0x28(%ebp)
   12ae9:	89 55 dc             	mov    %edx,-0x24(%ebp)
   12aec:	8b 4d d8             	mov    -0x28(%ebp),%ecx
   12aef:	8b 5d dc             	mov    -0x24(%ebp),%ebx
   12af2:	8b 45 d0             	mov    -0x30(%ebp),%eax
   12af5:	8b 55 d4             	mov    -0x2c(%ebp),%edx
   12af8:	01 c8                	add    %ecx,%eax
   12afa:	11 da                	adc    %ebx,%edx
   12afc:	83 fa 00             	cmp    $0x0,%edx
   12aff:	76 25                	jbe    12b26 <_km_init+0x1a4>
   12b01:	8b 4d d8             	mov    -0x28(%ebp),%ecx
   12b04:	8b 5d dc             	mov    -0x24(%ebp),%ebx
   12b07:	8b 45 d0             	mov    -0x30(%ebp),%eax
   12b0a:	8b 55 d4             	mov    -0x2c(%ebp),%edx
   12b0d:	01 c8                	add    %ecx,%eax
   12b0f:	11 da                	adc    %ebx,%edx
   12b11:	83 ea 01             	sub    $0x1,%edx
   12b14:	89 45 b8             	mov    %eax,-0x48(%ebp)
   12b17:	89 55 bc             	mov    %edx,-0x44(%ebp)
   12b1a:	8b 45 b8             	mov    -0x48(%ebp),%eax
   12b1d:	8b 55 bc             	mov    -0x44(%ebp),%edx
   12b20:	29 45 d0             	sub    %eax,-0x30(%ebp)
   12b23:	19 55 d4             	sbb    %edx,-0x2c(%ebp)
   12b26:	8b 45 d8             	mov    -0x28(%ebp),%eax
   12b29:	89 45 b4             	mov    %eax,-0x4c(%ebp)
   12b2c:	8b 45 d0             	mov    -0x30(%ebp),%eax
   12b2f:	89 45 b0             	mov    %eax,-0x50(%ebp)
   12b32:	83 ec 08             	sub    $0x8,%esp
   12b35:	ff 75 b0             	pushl  -0x50(%ebp)
   12b38:	ff 75 b4             	pushl  -0x4c(%ebp)
   12b3b:	e8 53 fd ff ff       	call   12893 <_add_block>
   12b40:	83 c4 10             	add    $0x10,%esp
   12b43:	eb 0d                	jmp    12b52 <_km_init+0x1d0>
   12b45:	90                   	nop
   12b46:	eb 0a                	jmp    12b52 <_km_init+0x1d0>
   12b48:	90                   	nop
   12b49:	eb 07                	jmp    12b52 <_km_init+0x1d0>
   12b4b:	90                   	nop
   12b4c:	eb 04                	jmp    12b52 <_km_init+0x1d0>
   12b4e:	90                   	nop
   12b4f:	eb 01                	jmp    12b52 <_km_init+0x1d0>
   12b51:	90                   	nop
   12b52:	83 45 e4 01          	addl   $0x1,-0x1c(%ebp)
   12b56:	83 45 f4 18          	addl   $0x18,-0xc(%ebp)
   12b5a:	8b 45 e4             	mov    -0x1c(%ebp),%eax
   12b5d:	3b 45 cc             	cmp    -0x34(%ebp),%eax
   12b60:	0f 8c c4 fe ff ff    	jl     12a2a <_km_init+0xa8>
   12b66:	c7 05 1c a6 01 00 01 	movl   $0x1,0x1a61c
   12b6d:	00 00 00 
   12b70:	83 ec 0c             	sub    $0xc,%esp
   12b73:	68 b1 70 01 00       	push   $0x170b1
   12b78:	e8 00 e4 ff ff       	call   10f7d <__cio_puts>
   12b7d:	83 c4 10             	add    $0x10,%esp
   12b80:	eb 01                	jmp    12b83 <_km_init+0x201>
   12b82:	90                   	nop
   12b83:	8d 65 f8             	lea    -0x8(%ebp),%esp
   12b86:	5b                   	pop    %ebx
   12b87:	5e                   	pop    %esi
   12b88:	5d                   	pop    %ebp
   12b89:	c3                   	ret    

00012b8a <_km_dump>:
   12b8a:	55                   	push   %ebp
   12b8b:	89 e5                	mov    %esp,%ebp
   12b8d:	83 ec 18             	sub    $0x18,%esp
   12b90:	83 ec 08             	sub    $0x8,%esp
   12b93:	68 14 a6 01 00       	push   $0x1a614
   12b98:	68 b7 70 01 00       	push   $0x170b7
   12b9d:	e8 0e ea ff ff       	call   115b0 <__cio_printf>
   12ba2:	83 c4 10             	add    $0x10,%esp
   12ba5:	a1 14 a6 01 00       	mov    0x1a614,%eax
   12baa:	89 45 f4             	mov    %eax,-0xc(%ebp)
   12bad:	eb 39                	jmp    12be8 <_km_dump+0x5e>
   12baf:	8b 45 f4             	mov    -0xc(%ebp),%eax
   12bb2:	8b 50 04             	mov    0x4(%eax),%edx
   12bb5:	8b 45 f4             	mov    -0xc(%ebp),%eax
   12bb8:	8b 00                	mov    (%eax),%eax
   12bba:	c1 e0 0c             	shl    $0xc,%eax
   12bbd:	89 c1                	mov    %eax,%ecx
   12bbf:	8b 45 f4             	mov    -0xc(%ebp),%eax
   12bc2:	01 c1                	add    %eax,%ecx
   12bc4:	8b 45 f4             	mov    -0xc(%ebp),%eax
   12bc7:	8b 00                	mov    (%eax),%eax
   12bc9:	83 ec 0c             	sub    $0xc,%esp
   12bcc:	52                   	push   %edx
   12bcd:	51                   	push   %ecx
   12bce:	50                   	push   %eax
   12bcf:	ff 75 f4             	pushl  -0xc(%ebp)
   12bd2:	68 cc 70 01 00       	push   $0x170cc
   12bd7:	e8 d4 e9 ff ff       	call   115b0 <__cio_printf>
   12bdc:	83 c4 20             	add    $0x20,%esp
   12bdf:	8b 45 f4             	mov    -0xc(%ebp),%eax
   12be2:	8b 40 04             	mov    0x4(%eax),%eax
   12be5:	89 45 f4             	mov    %eax,-0xc(%ebp)
   12be8:	83 7d f4 00          	cmpl   $0x0,-0xc(%ebp)
   12bec:	75 c1                	jne    12baf <_km_dump+0x25>
   12bee:	90                   	nop
   12bef:	c9                   	leave  
   12bf0:	c3                   	ret    

00012bf1 <_km_page_alloc>:
   12bf1:	55                   	push   %ebp
   12bf2:	89 e5                	mov    %esp,%ebp
   12bf4:	83 ec 28             	sub    $0x28,%esp
   12bf7:	a1 1c a6 01 00       	mov    0x1a61c,%eax
   12bfc:	85 c0                	test   %eax,%eax
   12bfe:	75 3b                	jne    12c3b <_km_page_alloc+0x4a>
   12c00:	83 ec 08             	sub    $0x8,%esp
   12c03:	6a 00                	push   $0x0
   12c05:	68 a9 01 00 00       	push   $0x1a9
   12c0a:	68 84 70 01 00       	push   $0x17084
   12c0f:	68 30 71 01 00       	push   $0x17130
   12c14:	68 8b 70 01 00       	push   $0x1708b
   12c19:	68 00 bb 01 00       	push   $0x1bb00
   12c1e:	e8 15 f8 ff ff       	call   12438 <__sprint>
   12c23:	83 c4 20             	add    $0x20,%esp
   12c26:	83 ec 08             	sub    $0x8,%esp
   12c29:	68 08 71 01 00       	push   $0x17108
   12c2e:	68 00 bb 01 00       	push   $0x1bb00
   12c33:	e8 0e fc ff ff       	call   12846 <_kpanic>
   12c38:	83 c4 10             	add    $0x10,%esp
   12c3b:	83 7d 08 00          	cmpl   $0x0,0x8(%ebp)
   12c3f:	75 0a                	jne    12c4b <_km_page_alloc+0x5a>
   12c41:	b8 00 00 00 00       	mov    $0x0,%eax
   12c46:	e9 9c 00 00 00       	jmp    12ce7 <_km_page_alloc+0xf6>
   12c4b:	a1 14 a6 01 00       	mov    0x1a614,%eax
   12c50:	89 45 f4             	mov    %eax,-0xc(%ebp)
   12c53:	c7 45 f0 14 a6 01 00 	movl   $0x1a614,-0x10(%ebp)
   12c5a:	eb 11                	jmp    12c6d <_km_page_alloc+0x7c>
   12c5c:	8b 45 f4             	mov    -0xc(%ebp),%eax
   12c5f:	83 c0 04             	add    $0x4,%eax
   12c62:	89 45 f0             	mov    %eax,-0x10(%ebp)
   12c65:	8b 45 f0             	mov    -0x10(%ebp),%eax
   12c68:	8b 00                	mov    (%eax),%eax
   12c6a:	89 45 f4             	mov    %eax,-0xc(%ebp)
   12c6d:	83 7d f4 00          	cmpl   $0x0,-0xc(%ebp)
   12c71:	74 0a                	je     12c7d <_km_page_alloc+0x8c>
   12c73:	8b 45 f4             	mov    -0xc(%ebp),%eax
   12c76:	8b 00                	mov    (%eax),%eax
   12c78:	39 45 08             	cmp    %eax,0x8(%ebp)
   12c7b:	77 df                	ja     12c5c <_km_page_alloc+0x6b>
   12c7d:	83 7d f4 00          	cmpl   $0x0,-0xc(%ebp)
   12c81:	75 07                	jne    12c8a <_km_page_alloc+0x99>
   12c83:	b8 00 00 00 00       	mov    $0x0,%eax
   12c88:	eb 5d                	jmp    12ce7 <_km_page_alloc+0xf6>
   12c8a:	8b 45 f4             	mov    -0xc(%ebp),%eax
   12c8d:	8b 00                	mov    (%eax),%eax
   12c8f:	39 45 08             	cmp    %eax,0x8(%ebp)
   12c92:	75 0d                	jne    12ca1 <_km_page_alloc+0xb0>
   12c94:	8b 45 f4             	mov    -0xc(%ebp),%eax
   12c97:	8b 50 04             	mov    0x4(%eax),%edx
   12c9a:	8b 45 f0             	mov    -0x10(%ebp),%eax
   12c9d:	89 10                	mov    %edx,(%eax)
   12c9f:	eb 43                	jmp    12ce4 <_km_page_alloc+0xf3>
   12ca1:	8b 45 f4             	mov    -0xc(%ebp),%eax
   12ca4:	89 45 ec             	mov    %eax,-0x14(%ebp)
   12ca7:	8b 45 f4             	mov    -0xc(%ebp),%eax
   12caa:	8b 00                	mov    (%eax),%eax
   12cac:	2b 45 08             	sub    0x8(%ebp),%eax
   12caf:	89 45 e8             	mov    %eax,-0x18(%ebp)
   12cb2:	8b 45 08             	mov    0x8(%ebp),%eax
   12cb5:	c1 e0 0c             	shl    $0xc,%eax
   12cb8:	89 c2                	mov    %eax,%edx
   12cba:	8b 45 f4             	mov    -0xc(%ebp),%eax
   12cbd:	01 d0                	add    %edx,%eax
   12cbf:	89 45 e4             	mov    %eax,-0x1c(%ebp)
   12cc2:	8b 55 e8             	mov    -0x18(%ebp),%edx
   12cc5:	8b 45 e4             	mov    -0x1c(%ebp),%eax
   12cc8:	89 10                	mov    %edx,(%eax)
   12cca:	8b 45 f4             	mov    -0xc(%ebp),%eax
   12ccd:	8b 50 04             	mov    0x4(%eax),%edx
   12cd0:	8b 45 e4             	mov    -0x1c(%ebp),%eax
   12cd3:	89 50 04             	mov    %edx,0x4(%eax)
   12cd6:	8b 45 f0             	mov    -0x10(%ebp),%eax
   12cd9:	8b 55 e4             	mov    -0x1c(%ebp),%edx
   12cdc:	89 10                	mov    %edx,(%eax)
   12cde:	8b 45 ec             	mov    -0x14(%ebp),%eax
   12ce1:	89 45 f4             	mov    %eax,-0xc(%ebp)
   12ce4:	8b 45 f4             	mov    -0xc(%ebp),%eax
   12ce7:	c9                   	leave  
   12ce8:	c3                   	ret    

00012ce9 <_km_page_free>:
   12ce9:	55                   	push   %ebp
   12cea:	89 e5                	mov    %esp,%ebp
   12cec:	83 ec 18             	sub    $0x18,%esp
   12cef:	a1 1c a6 01 00       	mov    0x1a61c,%eax
   12cf4:	85 c0                	test   %eax,%eax
   12cf6:	75 3b                	jne    12d33 <_km_page_free+0x4a>
   12cf8:	83 ec 08             	sub    $0x8,%esp
   12cfb:	6a 00                	push   $0x0
   12cfd:	68 f9 01 00 00       	push   $0x1f9
   12d02:	68 84 70 01 00       	push   $0x17084
   12d07:	68 40 71 01 00       	push   $0x17140
   12d0c:	68 8b 70 01 00       	push   $0x1708b
   12d11:	68 00 bb 01 00       	push   $0x1bb00
   12d16:	e8 1d f7 ff ff       	call   12438 <__sprint>
   12d1b:	83 c4 20             	add    $0x20,%esp
   12d1e:	83 ec 08             	sub    $0x8,%esp
   12d21:	68 08 71 01 00       	push   $0x17108
   12d26:	68 00 bb 01 00       	push   $0x1bb00
   12d2b:	e8 16 fb ff ff       	call   12846 <_kpanic>
   12d30:	83 c4 10             	add    $0x10,%esp
   12d33:	83 7d 08 00          	cmpl   $0x0,0x8(%ebp)
   12d37:	0f 84 d4 00 00 00    	je     12e11 <_km_page_free+0x128>
   12d3d:	8b 45 08             	mov    0x8(%ebp),%eax
   12d40:	89 45 f4             	mov    %eax,-0xc(%ebp)
   12d43:	8b 45 f4             	mov    -0xc(%ebp),%eax
   12d46:	c7 00 01 00 00 00    	movl   $0x1,(%eax)
   12d4c:	c7 45 f0 00 00 00 00 	movl   $0x0,-0x10(%ebp)
   12d53:	a1 14 a6 01 00       	mov    0x1a614,%eax
   12d58:	89 45 ec             	mov    %eax,-0x14(%ebp)
   12d5b:	eb 0f                	jmp    12d6c <_km_page_free+0x83>
   12d5d:	8b 45 ec             	mov    -0x14(%ebp),%eax
   12d60:	89 45 f0             	mov    %eax,-0x10(%ebp)
   12d63:	8b 45 ec             	mov    -0x14(%ebp),%eax
   12d66:	8b 40 04             	mov    0x4(%eax),%eax
   12d69:	89 45 ec             	mov    %eax,-0x14(%ebp)
   12d6c:	83 7d ec 00          	cmpl   $0x0,-0x14(%ebp)
   12d70:	74 08                	je     12d7a <_km_page_free+0x91>
   12d72:	8b 45 ec             	mov    -0x14(%ebp),%eax
   12d75:	3b 45 f4             	cmp    -0xc(%ebp),%eax
   12d78:	72 e3                	jb     12d5d <_km_page_free+0x74>
   12d7a:	83 7d f0 00          	cmpl   $0x0,-0x10(%ebp)
   12d7e:	74 44                	je     12dc4 <_km_page_free+0xdb>
   12d80:	8b 45 f0             	mov    -0x10(%ebp),%eax
   12d83:	8b 00                	mov    (%eax),%eax
   12d85:	c1 e0 0c             	shl    $0xc,%eax
   12d88:	89 c2                	mov    %eax,%edx
   12d8a:	8b 45 f0             	mov    -0x10(%ebp),%eax
   12d8d:	01 d0                	add    %edx,%eax
   12d8f:	39 45 f4             	cmp    %eax,-0xc(%ebp)
   12d92:	75 19                	jne    12dad <_km_page_free+0xc4>
   12d94:	8b 45 f0             	mov    -0x10(%ebp),%eax
   12d97:	8b 10                	mov    (%eax),%edx
   12d99:	8b 45 f4             	mov    -0xc(%ebp),%eax
   12d9c:	8b 00                	mov    (%eax),%eax
   12d9e:	01 c2                	add    %eax,%edx
   12da0:	8b 45 f0             	mov    -0x10(%ebp),%eax
   12da3:	89 10                	mov    %edx,(%eax)
   12da5:	8b 45 f0             	mov    -0x10(%ebp),%eax
   12da8:	89 45 f4             	mov    %eax,-0xc(%ebp)
   12dab:	eb 2b                	jmp    12dd8 <_km_page_free+0xef>
   12dad:	8b 45 f0             	mov    -0x10(%ebp),%eax
   12db0:	8b 50 04             	mov    0x4(%eax),%edx
   12db3:	8b 45 f4             	mov    -0xc(%ebp),%eax
   12db6:	89 50 04             	mov    %edx,0x4(%eax)
   12db9:	8b 45 f0             	mov    -0x10(%ebp),%eax
   12dbc:	8b 55 f4             	mov    -0xc(%ebp),%edx
   12dbf:	89 50 04             	mov    %edx,0x4(%eax)
   12dc2:	eb 14                	jmp    12dd8 <_km_page_free+0xef>
   12dc4:	8b 15 14 a6 01 00    	mov    0x1a614,%edx
   12dca:	8b 45 f4             	mov    -0xc(%ebp),%eax
   12dcd:	89 50 04             	mov    %edx,0x4(%eax)
   12dd0:	8b 45 f4             	mov    -0xc(%ebp),%eax
   12dd3:	a3 14 a6 01 00       	mov    %eax,0x1a614
   12dd8:	83 7d ec 00          	cmpl   $0x0,-0x14(%ebp)
   12ddc:	74 34                	je     12e12 <_km_page_free+0x129>
   12dde:	8b 45 f4             	mov    -0xc(%ebp),%eax
   12de1:	8b 00                	mov    (%eax),%eax
   12de3:	c1 e0 0c             	shl    $0xc,%eax
   12de6:	89 c2                	mov    %eax,%edx
   12de8:	8b 45 f4             	mov    -0xc(%ebp),%eax
   12deb:	01 d0                	add    %edx,%eax
   12ded:	39 45 ec             	cmp    %eax,-0x14(%ebp)
   12df0:	75 20                	jne    12e12 <_km_page_free+0x129>
   12df2:	8b 45 ec             	mov    -0x14(%ebp),%eax
   12df5:	8b 50 04             	mov    0x4(%eax),%edx
   12df8:	8b 45 f4             	mov    -0xc(%ebp),%eax
   12dfb:	89 50 04             	mov    %edx,0x4(%eax)
   12dfe:	8b 45 f4             	mov    -0xc(%ebp),%eax
   12e01:	8b 10                	mov    (%eax),%edx
   12e03:	8b 45 ec             	mov    -0x14(%ebp),%eax
   12e06:	8b 00                	mov    (%eax),%eax
   12e08:	01 c2                	add    %eax,%edx
   12e0a:	8b 45 f4             	mov    -0xc(%ebp),%eax
   12e0d:	89 10                	mov    %edx,(%eax)
   12e0f:	eb 01                	jmp    12e12 <_km_page_free+0x129>
   12e11:	90                   	nop
   12e12:	c9                   	leave  
   12e13:	c3                   	ret    

00012e14 <_carve_slices>:
   12e14:	55                   	push   %ebp
   12e15:	89 e5                	mov    %esp,%ebp
   12e17:	83 ec 18             	sub    $0x18,%esp
   12e1a:	83 ec 0c             	sub    $0xc,%esp
   12e1d:	6a 01                	push   $0x1
   12e1f:	e8 cd fd ff ff       	call   12bf1 <_km_page_alloc>
   12e24:	83 c4 10             	add    $0x10,%esp
   12e27:	89 45 ec             	mov    %eax,-0x14(%ebp)
   12e2a:	83 7d ec 00          	cmpl   $0x0,-0x14(%ebp)
   12e2e:	75 3b                	jne    12e6b <_carve_slices+0x57>
   12e30:	83 ec 08             	sub    $0x8,%esp
   12e33:	6a 00                	push   $0x0
   12e35:	68 7c 02 00 00       	push   $0x27c
   12e3a:	68 84 70 01 00       	push   $0x17084
   12e3f:	68 50 71 01 00       	push   $0x17150
   12e44:	68 8b 70 01 00       	push   $0x1708b
   12e49:	68 00 bb 01 00       	push   $0x1bb00
   12e4e:	e8 e5 f5 ff ff       	call   12438 <__sprint>
   12e53:	83 c4 20             	add    $0x20,%esp
   12e56:	83 ec 08             	sub    $0x8,%esp
   12e59:	68 18 71 01 00       	push   $0x17118
   12e5e:	68 00 bb 01 00       	push   $0x1bb00
   12e63:	e8 de f9 ff ff       	call   12846 <_kpanic>
   12e68:	83 c4 10             	add    $0x10,%esp
   12e6b:	8b 45 ec             	mov    -0x14(%ebp),%eax
   12e6e:	89 45 f4             	mov    %eax,-0xc(%ebp)
   12e71:	c7 45 f0 00 00 00 00 	movl   $0x0,-0x10(%ebp)
   12e78:	eb 19                	jmp    12e93 <_carve_slices+0x7f>
   12e7a:	83 ec 0c             	sub    $0xc,%esp
   12e7d:	ff 75 f4             	pushl  -0xc(%ebp)
   12e80:	e8 db 00 00 00       	call   12f60 <_km_slice_free>
   12e85:	83 c4 10             	add    $0x10,%esp
   12e88:	81 45 f4 00 04 00 00 	addl   $0x400,-0xc(%ebp)
   12e8f:	83 45 f0 01          	addl   $0x1,-0x10(%ebp)
   12e93:	83 7d f0 03          	cmpl   $0x3,-0x10(%ebp)
   12e97:	7e e1                	jle    12e7a <_carve_slices+0x66>
   12e99:	90                   	nop
   12e9a:	c9                   	leave  
   12e9b:	c3                   	ret    

00012e9c <_km_slice_alloc>:
   12e9c:	55                   	push   %ebp
   12e9d:	89 e5                	mov    %esp,%ebp
   12e9f:	83 ec 18             	sub    $0x18,%esp
   12ea2:	a1 1c a6 01 00       	mov    0x1a61c,%eax
   12ea7:	85 c0                	test   %eax,%eax
   12ea9:	75 3b                	jne    12ee6 <_km_slice_alloc+0x4a>
   12eab:	83 ec 08             	sub    $0x8,%esp
   12eae:	6a 00                	push   $0x0
   12eb0:	68 91 02 00 00       	push   $0x291
   12eb5:	68 84 70 01 00       	push   $0x17084
   12eba:	68 60 71 01 00       	push   $0x17160
   12ebf:	68 8b 70 01 00       	push   $0x1708b
   12ec4:	68 00 bb 01 00       	push   $0x1bb00
   12ec9:	e8 6a f5 ff ff       	call   12438 <__sprint>
   12ece:	83 c4 20             	add    $0x20,%esp
   12ed1:	83 ec 08             	sub    $0x8,%esp
   12ed4:	68 08 71 01 00       	push   $0x17108
   12ed9:	68 00 bb 01 00       	push   $0x1bb00
   12ede:	e8 63 f9 ff ff       	call   12846 <_kpanic>
   12ee3:	83 c4 10             	add    $0x10,%esp
   12ee6:	a1 18 a6 01 00       	mov    0x1a618,%eax
   12eeb:	85 c0                	test   %eax,%eax
   12eed:	75 05                	jne    12ef4 <_km_slice_alloc+0x58>
   12eef:	e8 20 ff ff ff       	call   12e14 <_carve_slices>
   12ef4:	a1 18 a6 01 00       	mov    0x1a618,%eax
   12ef9:	89 45 f4             	mov    %eax,-0xc(%ebp)
   12efc:	83 7d f4 00          	cmpl   $0x0,-0xc(%ebp)
   12f00:	75 3b                	jne    12f3d <_km_slice_alloc+0xa1>
   12f02:	83 ec 08             	sub    $0x8,%esp
   12f05:	6a 00                	push   $0x0
   12f07:	68 9a 02 00 00       	push   $0x29a
   12f0c:	68 84 70 01 00       	push   $0x17084
   12f11:	68 60 71 01 00       	push   $0x17160
   12f16:	68 8b 70 01 00       	push   $0x1708b
   12f1b:	68 00 bb 01 00       	push   $0x1bb00
   12f20:	e8 13 f5 ff ff       	call   12438 <__sprint>
   12f25:	83 c4 20             	add    $0x20,%esp
   12f28:	83 ec 08             	sub    $0x8,%esp
   12f2b:	68 1d 71 01 00       	push   $0x1711d
   12f30:	68 00 bb 01 00       	push   $0x1bb00
   12f35:	e8 0c f9 ff ff       	call   12846 <_kpanic>
   12f3a:	83 c4 10             	add    $0x10,%esp
   12f3d:	8b 45 f4             	mov    -0xc(%ebp),%eax
   12f40:	8b 40 04             	mov    0x4(%eax),%eax
   12f43:	a3 18 a6 01 00       	mov    %eax,0x1a618
   12f48:	83 ec 08             	sub    $0x8,%esp
   12f4b:	68 00 04 00 00       	push   $0x400
   12f50:	ff 75 f4             	pushl  -0xc(%ebp)
   12f53:	e8 1e f3 ff ff       	call   12276 <__memclr>
   12f58:	83 c4 10             	add    $0x10,%esp
   12f5b:	8b 45 f4             	mov    -0xc(%ebp),%eax
   12f5e:	c9                   	leave  
   12f5f:	c3                   	ret    

00012f60 <_km_slice_free>:
   12f60:	55                   	push   %ebp
   12f61:	89 e5                	mov    %esp,%ebp
   12f63:	83 ec 18             	sub    $0x18,%esp
   12f66:	8b 45 08             	mov    0x8(%ebp),%eax
   12f69:	89 45 f4             	mov    %eax,-0xc(%ebp)
   12f6c:	a1 1c a6 01 00       	mov    0x1a61c,%eax
   12f71:	85 c0                	test   %eax,%eax
   12f73:	75 3b                	jne    12fb0 <_km_slice_free+0x50>
   12f75:	83 ec 08             	sub    $0x8,%esp
   12f78:	6a 00                	push   $0x0
   12f7a:	68 b2 02 00 00       	push   $0x2b2
   12f7f:	68 84 70 01 00       	push   $0x17084
   12f84:	68 70 71 01 00       	push   $0x17170
   12f89:	68 8b 70 01 00       	push   $0x1708b
   12f8e:	68 00 bb 01 00       	push   $0x1bb00
   12f93:	e8 a0 f4 ff ff       	call   12438 <__sprint>
   12f98:	83 c4 20             	add    $0x20,%esp
   12f9b:	83 ec 08             	sub    $0x8,%esp
   12f9e:	68 08 71 01 00       	push   $0x17108
   12fa3:	68 00 bb 01 00       	push   $0x1bb00
   12fa8:	e8 99 f8 ff ff       	call   12846 <_kpanic>
   12fad:	83 c4 10             	add    $0x10,%esp
   12fb0:	8b 45 f4             	mov    -0xc(%ebp),%eax
   12fb3:	c7 00 00 04 00 00    	movl   $0x400,(%eax)
   12fb9:	8b 15 18 a6 01 00    	mov    0x1a618,%edx
   12fbf:	8b 45 f4             	mov    -0xc(%ebp),%eax
   12fc2:	89 50 04             	mov    %edx,0x4(%eax)
   12fc5:	8b 45 f4             	mov    -0xc(%ebp),%eax
   12fc8:	a3 18 a6 01 00       	mov    %eax,0x1a618
   12fcd:	90                   	nop
   12fce:	c9                   	leave  
   12fcf:	c3                   	ret    

00012fd0 <_new_pcbs>:
   12fd0:	55                   	push   %ebp
   12fd1:	89 e5                	mov    %esp,%ebp
   12fd3:	83 ec 28             	sub    $0x28,%esp
   12fd6:	8b 45 08             	mov    0x8(%ebp),%eax
   12fd9:	88 45 e4             	mov    %al,-0x1c(%ebp)
   12fdc:	e8 bb fe ff ff       	call   12e9c <_km_slice_alloc>
   12fe1:	89 45 f0             	mov    %eax,-0x10(%ebp)
   12fe4:	80 7d e4 00          	cmpb   $0x0,-0x1c(%ebp)
   12fe8:	74 3e                	je     13028 <_new_pcbs+0x58>
   12fea:	83 7d f0 00          	cmpl   $0x0,-0x10(%ebp)
   12fee:	75 38                	jne    13028 <_new_pcbs+0x58>
   12ff0:	83 ec 08             	sub    $0x8,%esp
   12ff3:	6a 00                	push   $0x0
   12ff5:	6a 46                	push   $0x46
   12ff7:	68 80 71 01 00       	push   $0x17180
   12ffc:	68 6c 73 01 00       	push   $0x1736c
   13001:	68 8a 71 01 00       	push   $0x1718a
   13006:	68 00 bb 01 00       	push   $0x1bb00
   1300b:	e8 28 f4 ff ff       	call   12438 <__sprint>
   13010:	83 c4 20             	add    $0x20,%esp
   13013:	83 ec 08             	sub    $0x8,%esp
   13016:	68 a4 71 01 00       	push   $0x171a4
   1301b:	68 00 bb 01 00       	push   $0x1bb00
   13020:	e8 21 f8 ff ff       	call   12846 <_kpanic>
   13025:	83 c4 10             	add    $0x10,%esp
   13028:	83 7d f0 00          	cmpl   $0x0,-0x10(%ebp)
   1302c:	75 07                	jne    13035 <_new_pcbs+0x65>
   1302e:	b8 00 00 00 00       	mov    $0x0,%eax
   13033:	eb 46                	jmp    1307b <_new_pcbs+0xab>
   13035:	83 ec 08             	sub    $0x8,%esp
   13038:	68 00 04 00 00       	push   $0x400
   1303d:	ff 75 f0             	pushl  -0x10(%ebp)
   13040:	e8 31 f2 ff ff       	call   12276 <__memclr>
   13045:	83 c4 10             	add    $0x10,%esp
   13048:	c7 45 f4 00 00 00 00 	movl   $0x0,-0xc(%ebp)
   1304f:	eb 1d                	jmp    1306e <_new_pcbs+0x9e>
   13051:	8b 45 f4             	mov    -0xc(%ebp),%eax
   13054:	c1 e0 05             	shl    $0x5,%eax
   13057:	89 c2                	mov    %eax,%edx
   13059:	8b 45 f0             	mov    -0x10(%ebp),%eax
   1305c:	01 d0                	add    %edx,%eax
   1305e:	83 ec 0c             	sub    $0xc,%esp
   13061:	50                   	push   %eax
   13062:	e8 64 00 00 00       	call   130cb <_pcb_free>
   13067:	83 c4 10             	add    $0x10,%esp
   1306a:	83 45 f4 01          	addl   $0x1,-0xc(%ebp)
   1306e:	8b 45 f4             	mov    -0xc(%ebp),%eax
   13071:	83 f8 1f             	cmp    $0x1f,%eax
   13074:	76 db                	jbe    13051 <_new_pcbs+0x81>
   13076:	b8 01 00 00 00       	mov    $0x1,%eax
   1307b:	c9                   	leave  
   1307c:	c3                   	ret    

0001307d <_pcb_alloc>:
   1307d:	55                   	push   %ebp
   1307e:	89 e5                	mov    %esp,%ebp
   13080:	83 ec 18             	sub    $0x18,%esp
   13083:	a1 20 a6 01 00       	mov    0x1a620,%eax
   13088:	85 c0                	test   %eax,%eax
   1308a:	75 18                	jne    130a4 <_pcb_alloc+0x27>
   1308c:	83 ec 0c             	sub    $0xc,%esp
   1308f:	6a 00                	push   $0x0
   13091:	e8 3a ff ff ff       	call   12fd0 <_new_pcbs>
   13096:	83 c4 10             	add    $0x10,%esp
   13099:	84 c0                	test   %al,%al
   1309b:	75 07                	jne    130a4 <_pcb_alloc+0x27>
   1309d:	b8 00 00 00 00       	mov    $0x0,%eax
   130a2:	eb 25                	jmp    130c9 <_pcb_alloc+0x4c>
   130a4:	a1 20 a6 01 00       	mov    0x1a620,%eax
   130a9:	89 45 f4             	mov    %eax,-0xc(%ebp)
   130ac:	8b 45 f4             	mov    -0xc(%ebp),%eax
   130af:	8b 00                	mov    (%eax),%eax
   130b1:	a3 20 a6 01 00       	mov    %eax,0x1a620
   130b6:	83 ec 08             	sub    $0x8,%esp
   130b9:	6a 20                	push   $0x20
   130bb:	ff 75 f4             	pushl  -0xc(%ebp)
   130be:	e8 b3 f1 ff ff       	call   12276 <__memclr>
   130c3:	83 c4 10             	add    $0x10,%esp
   130c6:	8b 45 f4             	mov    -0xc(%ebp),%eax
   130c9:	c9                   	leave  
   130ca:	c3                   	ret    

000130cb <_pcb_free>:
   130cb:	55                   	push   %ebp
   130cc:	89 e5                	mov    %esp,%ebp
   130ce:	83 7d 08 00          	cmpl   $0x0,0x8(%ebp)
   130d2:	74 1c                	je     130f0 <_pcb_free+0x25>
   130d4:	8b 45 08             	mov    0x8(%ebp),%eax
   130d7:	c6 40 14 00          	movb   $0x0,0x14(%eax)
   130db:	8b 15 20 a6 01 00    	mov    0x1a620,%edx
   130e1:	8b 45 08             	mov    0x8(%ebp),%eax
   130e4:	89 10                	mov    %edx,(%eax)
   130e6:	8b 45 08             	mov    0x8(%ebp),%eax
   130e9:	a3 20 a6 01 00       	mov    %eax,0x1a620
   130ee:	eb 01                	jmp    130f1 <_pcb_free+0x26>
   130f0:	90                   	nop
   130f1:	5d                   	pop    %ebp
   130f2:	c3                   	ret    

000130f3 <_pcb_find_pid>:
   130f3:	55                   	push   %ebp
   130f4:	89 e5                	mov    %esp,%ebp
   130f6:	83 ec 14             	sub    $0x14,%esp
   130f9:	8b 45 08             	mov    0x8(%ebp),%eax
   130fc:	66 89 45 ec          	mov    %ax,-0x14(%ebp)
   13100:	c7 45 fc 00 00 00 00 	movl   $0x0,-0x4(%ebp)
   13107:	eb 32                	jmp    1313b <_pcb_find_pid+0x48>
   13109:	8b 45 fc             	mov    -0x4(%ebp),%eax
   1310c:	8b 04 85 60 be 01 00 	mov    0x1be60(,%eax,4),%eax
   13113:	85 c0                	test   %eax,%eax
   13115:	74 20                	je     13137 <_pcb_find_pid+0x44>
   13117:	8b 45 fc             	mov    -0x4(%ebp),%eax
   1311a:	8b 04 85 60 be 01 00 	mov    0x1be60(,%eax,4),%eax
   13121:	0f b7 40 10          	movzwl 0x10(%eax),%eax
   13125:	66 39 45 ec          	cmp    %ax,-0x14(%ebp)
   13129:	75 0c                	jne    13137 <_pcb_find_pid+0x44>
   1312b:	8b 45 fc             	mov    -0x4(%ebp),%eax
   1312e:	8b 04 85 60 be 01 00 	mov    0x1be60(,%eax,4),%eax
   13135:	eb 0f                	jmp    13146 <_pcb_find_pid+0x53>
   13137:	83 45 fc 01          	addl   $0x1,-0x4(%ebp)
   1313b:	83 7d fc 18          	cmpl   $0x18,-0x4(%ebp)
   1313f:	7e c8                	jle    13109 <_pcb_find_pid+0x16>
   13141:	b8 00 00 00 00       	mov    $0x0,%eax
   13146:	c9                   	leave  
   13147:	c3                   	ret    

00013148 <_pcb_cleanup>:
   13148:	55                   	push   %ebp
   13149:	89 e5                	mov    %esp,%ebp
   1314b:	83 ec 18             	sub    $0x18,%esp
   1314e:	83 7d 08 00          	cmpl   $0x0,0x8(%ebp)
   13152:	74 5e                	je     131b2 <_pcb_cleanup+0x6a>
   13154:	c7 45 f4 00 00 00 00 	movl   $0x0,-0xc(%ebp)
   1315b:	eb 23                	jmp    13180 <_pcb_cleanup+0x38>
   1315d:	8b 45 f4             	mov    -0xc(%ebp),%eax
   13160:	8b 04 85 60 be 01 00 	mov    0x1be60(,%eax,4),%eax
   13167:	39 45 08             	cmp    %eax,0x8(%ebp)
   1316a:	75 10                	jne    1317c <_pcb_cleanup+0x34>
   1316c:	8b 45 f4             	mov    -0xc(%ebp),%eax
   1316f:	c7 04 85 60 be 01 00 	movl   $0x0,0x1be60(,%eax,4)
   13176:	00 00 00 00 
   1317a:	eb 0a                	jmp    13186 <_pcb_cleanup+0x3e>
   1317c:	83 45 f4 01          	addl   $0x1,-0xc(%ebp)
   13180:	83 7d f4 18          	cmpl   $0x18,-0xc(%ebp)
   13184:	7e d7                	jle    1315d <_pcb_cleanup+0x15>
   13186:	8b 45 08             	mov    0x8(%ebp),%eax
   13189:	8b 40 04             	mov    0x4(%eax),%eax
   1318c:	85 c0                	test   %eax,%eax
   1318e:	74 12                	je     131a2 <_pcb_cleanup+0x5a>
   13190:	8b 45 08             	mov    0x8(%ebp),%eax
   13193:	8b 40 04             	mov    0x4(%eax),%eax
   13196:	83 ec 0c             	sub    $0xc,%esp
   13199:	50                   	push   %eax
   1319a:	e8 bc 19 00 00       	call   14b5b <_stk_free>
   1319f:	83 c4 10             	add    $0x10,%esp
   131a2:	83 ec 0c             	sub    $0xc,%esp
   131a5:	ff 75 08             	pushl  0x8(%ebp)
   131a8:	e8 1e ff ff ff       	call   130cb <_pcb_free>
   131ad:	83 c4 10             	add    $0x10,%esp
   131b0:	eb 01                	jmp    131b3 <_pcb_cleanup+0x6b>
   131b2:	90                   	nop
   131b3:	c9                   	leave  
   131b4:	c3                   	ret    

000131b5 <_proc_init>:
   131b5:	55                   	push   %ebp
   131b6:	89 e5                	mov    %esp,%ebp
   131b8:	83 ec 18             	sub    $0x18,%esp
   131bb:	83 ec 0c             	sub    $0xc,%esp
   131be:	68 bc 71 01 00       	push   $0x171bc
   131c3:	e8 b5 dd ff ff       	call   10f7d <__cio_puts>
   131c8:	83 c4 10             	add    $0x10,%esp
   131cb:	c7 05 20 a6 01 00 00 	movl   $0x0,0x1a620
   131d2:	00 00 00 
   131d5:	83 ec 0c             	sub    $0xc,%esp
   131d8:	6a 01                	push   $0x1
   131da:	e8 f1 fd ff ff       	call   12fd0 <_new_pcbs>
   131df:	83 c4 10             	add    $0x10,%esp
   131e2:	c7 05 44 be 01 00 00 	movl   $0x0,0x1be44
   131e9:	00 00 00 
   131ec:	c7 45 f4 00 00 00 00 	movl   $0x0,-0xc(%ebp)
   131f3:	eb 12                	jmp    13207 <_proc_init+0x52>
   131f5:	8b 45 f4             	mov    -0xc(%ebp),%eax
   131f8:	c7 04 85 60 be 01 00 	movl   $0x0,0x1be60(,%eax,4)
   131ff:	00 00 00 00 
   13203:	83 45 f4 01          	addl   $0x1,-0xc(%ebp)
   13207:	83 7d f4 18          	cmpl   $0x18,-0xc(%ebp)
   1320b:	7e e8                	jle    131f5 <_proc_init+0x40>
   1320d:	66 c7 05 40 be 01 00 	movw   $0x2,0x1be40
   13214:	02 00 
   13216:	83 ec 0c             	sub    $0xc,%esp
   13219:	68 c6 71 01 00       	push   $0x171c6
   1321e:	e8 5a dd ff ff       	call   10f7d <__cio_puts>
   13223:	83 c4 10             	add    $0x10,%esp
   13226:	90                   	nop
   13227:	c9                   	leave  
   13228:	c3                   	ret    

00013229 <_proc_create>:
   13229:	55                   	push   %ebp
   1322a:	89 e5                	mov    %esp,%ebp
   1322c:	83 ec 28             	sub    $0x28,%esp
   1322f:	8b 55 0c             	mov    0xc(%ebp),%edx
   13232:	8b 45 10             	mov    0x10(%ebp),%eax
   13235:	66 89 55 e4          	mov    %dx,-0x1c(%ebp)
   13239:	66 89 45 e0          	mov    %ax,-0x20(%ebp)
   1323d:	e8 3b fe ff ff       	call   1307d <_pcb_alloc>
   13242:	89 45 f4             	mov    %eax,-0xc(%ebp)
   13245:	83 7d f4 00          	cmpl   $0x0,-0xc(%ebp)
   13249:	75 0a                	jne    13255 <_proc_create+0x2c>
   1324b:	b8 00 00 00 00       	mov    $0x0,%eax
   13250:	e9 29 01 00 00       	jmp    1337e <_proc_create+0x155>
   13255:	e8 b6 18 00 00       	call   14b10 <_stk_alloc>
   1325a:	89 45 f0             	mov    %eax,-0x10(%ebp)
   1325d:	83 7d f0 00          	cmpl   $0x0,-0x10(%ebp)
   13261:	75 18                	jne    1327b <_proc_create+0x52>
   13263:	83 ec 0c             	sub    $0xc,%esp
   13266:	ff 75 f4             	pushl  -0xc(%ebp)
   13269:	e8 5d fe ff ff       	call   130cb <_pcb_free>
   1326e:	83 c4 10             	add    $0x10,%esp
   13271:	b8 00 00 00 00       	mov    $0x0,%eax
   13276:	e9 03 01 00 00       	jmp    1337e <_proc_create+0x155>
   1327b:	8b 45 f4             	mov    -0xc(%ebp),%eax
   1327e:	8b 55 f0             	mov    -0x10(%ebp),%edx
   13281:	89 50 04             	mov    %edx,0x4(%eax)
   13284:	8b 45 f4             	mov    -0xc(%ebp),%eax
   13287:	0f b7 55 e4          	movzwl -0x1c(%ebp),%edx
   1328b:	66 89 50 10          	mov    %dx,0x10(%eax)
   1328f:	8b 45 f4             	mov    -0xc(%ebp),%eax
   13292:	0f b7 55 e0          	movzwl -0x20(%ebp),%edx
   13296:	66 89 50 12          	mov    %dx,0x12(%eax)
   1329a:	8b 45 f4             	mov    -0xc(%ebp),%eax
   1329d:	c6 40 14 01          	movb   $0x1,0x14(%eax)
   132a1:	8b 45 08             	mov    0x8(%ebp),%eax
   132a4:	83 c0 04             	add    $0x4,%eax
   132a7:	8b 00                	mov    (%eax),%eax
   132a9:	89 c2                	mov    %eax,%edx
   132ab:	8b 45 f4             	mov    -0xc(%ebp),%eax
   132ae:	88 50 15             	mov    %dl,0x15(%eax)
   132b1:	8b 45 f4             	mov    -0xc(%ebp),%eax
   132b4:	c6 40 16 02          	movb   $0x2,0x16(%eax)
   132b8:	8b 45 f0             	mov    -0x10(%ebp),%eax
   132bb:	05 00 40 00 00       	add    $0x4000,%eax
   132c0:	83 e8 04             	sub    $0x4,%eax
   132c3:	89 45 ec             	mov    %eax,-0x14(%ebp)
   132c6:	8b 45 ec             	mov    -0x14(%ebp),%eax
   132c9:	8d 50 fc             	lea    -0x4(%eax),%edx
   132cc:	89 55 ec             	mov    %edx,-0x14(%ebp)
   132cf:	c7 00 00 00 00 00    	movl   $0x0,(%eax)
   132d5:	8b 45 ec             	mov    -0x14(%ebp),%eax
   132d8:	8d 50 fc             	lea    -0x4(%eax),%edx
   132db:	89 55 ec             	mov    %edx,-0x14(%ebp)
   132de:	c7 00 00 00 00 00    	movl   $0x0,(%eax)
   132e4:	8b 45 ec             	mov    -0x14(%ebp),%eax
   132e7:	8d 50 fc             	lea    -0x4(%eax),%edx
   132ea:	89 55 ec             	mov    %edx,-0x14(%ebp)
   132ed:	8b 55 08             	mov    0x8(%ebp),%edx
   132f0:	8b 52 0c             	mov    0xc(%edx),%edx
   132f3:	89 10                	mov    %edx,(%eax)
   132f5:	8b 45 ec             	mov    -0x14(%ebp),%eax
   132f8:	8d 50 fc             	lea    -0x4(%eax),%edx
   132fb:	89 55 ec             	mov    %edx,-0x14(%ebp)
   132fe:	8b 55 08             	mov    0x8(%ebp),%edx
   13301:	8b 52 08             	mov    0x8(%edx),%edx
   13304:	89 10                	mov    %edx,(%eax)
   13306:	ba 77 6b 01 00       	mov    $0x16b77,%edx
   1330b:	8b 45 ec             	mov    -0x14(%ebp),%eax
   1330e:	89 10                	mov    %edx,(%eax)
   13310:	8b 45 ec             	mov    -0x14(%ebp),%eax
   13313:	8d 50 b8             	lea    -0x48(%eax),%edx
   13316:	8b 45 f4             	mov    -0xc(%ebp),%eax
   13319:	89 10                	mov    %edx,(%eax)
   1331b:	8b 45 f4             	mov    -0xc(%ebp),%eax
   1331e:	8b 00                	mov    (%eax),%eax
   13320:	c7 00 20 00 00 00    	movl   $0x20,(%eax)
   13326:	8b 45 f4             	mov    -0xc(%ebp),%eax
   13329:	8b 00                	mov    (%eax),%eax
   1332b:	c7 40 04 18 00 00 00 	movl   $0x18,0x4(%eax)
   13332:	8b 45 f4             	mov    -0xc(%ebp),%eax
   13335:	8b 00                	mov    (%eax),%eax
   13337:	c7 40 08 18 00 00 00 	movl   $0x18,0x8(%eax)
   1333e:	8b 45 f4             	mov    -0xc(%ebp),%eax
   13341:	8b 00                	mov    (%eax),%eax
   13343:	c7 40 0c 18 00 00 00 	movl   $0x18,0xc(%eax)
   1334a:	8b 45 f4             	mov    -0xc(%ebp),%eax
   1334d:	8b 00                	mov    (%eax),%eax
   1334f:	c7 40 10 18 00 00 00 	movl   $0x18,0x10(%eax)
   13356:	8b 45 f4             	mov    -0xc(%ebp),%eax
   13359:	8b 00                	mov    (%eax),%eax
   1335b:	c7 40 40 10 00 00 00 	movl   $0x10,0x40(%eax)
   13362:	8b 45 f4             	mov    -0xc(%ebp),%eax
   13365:	8b 00                	mov    (%eax),%eax
   13367:	8b 55 08             	mov    0x8(%ebp),%edx
   1336a:	8b 12                	mov    (%edx),%edx
   1336c:	89 50 3c             	mov    %edx,0x3c(%eax)
   1336f:	8b 45 f4             	mov    -0xc(%ebp),%eax
   13372:	8b 00                	mov    (%eax),%eax
   13374:	c7 40 44 02 02 00 00 	movl   $0x202,0x44(%eax)
   1337b:	8b 45 f4             	mov    -0xc(%ebp),%eax
   1337e:	c9                   	leave  
   1337f:	c3                   	ret    

00013380 <_pcb_dump>:
   13380:	55                   	push   %ebp
   13381:	89 e5                	mov    %esp,%ebp
   13383:	56                   	push   %esi
   13384:	53                   	push   %ebx
   13385:	83 ec 10             	sub    $0x10,%esp
   13388:	8b 5d 0c             	mov    0xc(%ebp),%ebx
   1338b:	83 7d 08 00          	cmpl   $0x0,0x8(%ebp)
   1338f:	74 13                	je     133a4 <_pcb_dump+0x24>
   13391:	83 ec 08             	sub    $0x8,%esp
   13394:	ff 75 08             	pushl  0x8(%ebp)
   13397:	68 cc 71 01 00       	push   $0x171cc
   1339c:	e8 0f e2 ff ff       	call   115b0 <__cio_printf>
   133a1:	83 c4 10             	add    $0x10,%esp
   133a4:	89 d8                	mov    %ebx,%eax
   133a6:	83 ec 08             	sub    $0x8,%esp
   133a9:	50                   	push   %eax
   133aa:	68 d0 71 01 00       	push   $0x171d0
   133af:	e8 fc e1 ff ff       	call   115b0 <__cio_printf>
   133b4:	83 c4 10             	add    $0x10,%esp
   133b7:	85 db                	test   %ebx,%ebx
   133b9:	75 15                	jne    133d0 <_pcb_dump+0x50>
   133bb:	83 ec 0c             	sub    $0xc,%esp
   133be:	68 d9 71 01 00       	push   $0x171d9
   133c3:	e8 b5 db ff ff       	call   10f7d <__cio_puts>
   133c8:	83 c4 10             	add    $0x10,%esp
   133cb:	e9 cd 00 00 00       	jmp    1349d <_pcb_dump+0x11d>
   133d0:	0f b6 43 15          	movzbl 0x15(%ebx),%eax
   133d4:	0f b6 f0             	movzbl %al,%esi
   133d7:	0f b6 43 14          	movzbl 0x14(%ebx),%eax
   133db:	0f b6 c8             	movzbl %al,%ecx
   133de:	0f b7 43 12          	movzwl 0x12(%ebx),%eax
   133e2:	0f bf d0             	movswl %ax,%edx
   133e5:	0f b7 43 10          	movzwl 0x10(%ebx),%eax
   133e9:	98                   	cwtl   
   133ea:	83 ec 0c             	sub    $0xc,%esp
   133ed:	56                   	push   %esi
   133ee:	51                   	push   %ecx
   133ef:	52                   	push   %edx
   133f0:	50                   	push   %eax
   133f1:	68 e3 71 01 00       	push   $0x171e3
   133f6:	e8 b5 e1 ff ff       	call   115b0 <__cio_printf>
   133fb:	83 c4 20             	add    $0x20,%esp
   133fe:	8b 4b 08             	mov    0x8(%ebx),%ecx
   13401:	0f b6 43 16          	movzbl 0x16(%ebx),%eax
   13405:	0f b6 d0             	movzbl %al,%edx
   13408:	0f b6 43 17          	movzbl 0x17(%ebx),%eax
   1340c:	0f b6 c0             	movzbl %al,%eax
   1340f:	51                   	push   %ecx
   13410:	52                   	push   %edx
   13411:	50                   	push   %eax
   13412:	68 00 72 01 00       	push   $0x17200
   13417:	e8 94 e1 ff ff       	call   115b0 <__cio_printf>
   1341c:	83 c4 10             	add    $0x10,%esp
   1341f:	8b 43 0c             	mov    0xc(%ebx),%eax
   13422:	83 ec 08             	sub    $0x8,%esp
   13425:	50                   	push   %eax
   13426:	68 15 72 01 00       	push   $0x17215
   1342b:	e8 80 e1 ff ff       	call   115b0 <__cio_printf>
   13430:	83 c4 10             	add    $0x10,%esp
   13433:	8b 43 04             	mov    0x4(%ebx),%eax
   13436:	89 c2                	mov    %eax,%edx
   13438:	8b 03                	mov    (%ebx),%eax
   1343a:	83 ec 04             	sub    $0x4,%esp
   1343d:	52                   	push   %edx
   1343e:	50                   	push   %eax
   1343f:	68 21 72 01 00       	push   $0x17221
   13444:	e8 67 e1 ff ff       	call   115b0 <__cio_printf>
   13449:	83 c4 10             	add    $0x10,%esp
   1344c:	83 ec 0c             	sub    $0xc,%esp
   1344f:	68 3b 72 01 00       	push   $0x1723b
   13454:	e8 24 db ff ff       	call   10f7d <__cio_puts>
   13459:	83 c4 10             	add    $0x10,%esp
   1345c:	c7 45 f4 00 00 00 00 	movl   $0x0,-0xc(%ebp)
   13463:	eb 23                	jmp    13488 <_pcb_dump+0x108>
   13465:	8b 45 f4             	mov    -0xc(%ebp),%eax
   13468:	01 d8                	add    %ebx,%eax
   1346a:	83 c0 18             	add    $0x18,%eax
   1346d:	0f b6 00             	movzbl (%eax),%eax
   13470:	0f b6 c0             	movzbl %al,%eax
   13473:	83 ec 08             	sub    $0x8,%esp
   13476:	50                   	push   %eax
   13477:	68 43 72 01 00       	push   $0x17243
   1347c:	e8 2f e1 ff ff       	call   115b0 <__cio_printf>
   13481:	83 c4 10             	add    $0x10,%esp
   13484:	83 45 f4 01          	addl   $0x1,-0xc(%ebp)
   13488:	8b 45 f4             	mov    -0xc(%ebp),%eax
   1348b:	83 f8 07             	cmp    $0x7,%eax
   1348e:	76 d5                	jbe    13465 <_pcb_dump+0xe5>
   13490:	83 ec 0c             	sub    $0xc,%esp
   13493:	6a 0a                	push   $0xa
   13495:	e8 a3 d9 ff ff       	call   10e3d <__cio_putchar>
   1349a:	83 c4 10             	add    $0x10,%esp
   1349d:	8d 65 f8             	lea    -0x8(%ebp),%esp
   134a0:	5b                   	pop    %ebx
   134a1:	5e                   	pop    %esi
   134a2:	5d                   	pop    %ebp
   134a3:	c3                   	ret    

000134a4 <_context_dump>:
   134a4:	55                   	push   %ebp
   134a5:	89 e5                	mov    %esp,%ebp
   134a7:	57                   	push   %edi
   134a8:	56                   	push   %esi
   134a9:	53                   	push   %ebx
   134aa:	83 ec 1c             	sub    $0x1c,%esp
   134ad:	8b 5d 0c             	mov    0xc(%ebp),%ebx
   134b0:	83 7d 08 00          	cmpl   $0x0,0x8(%ebp)
   134b4:	74 13                	je     134c9 <_context_dump+0x25>
   134b6:	83 ec 08             	sub    $0x8,%esp
   134b9:	ff 75 08             	pushl  0x8(%ebp)
   134bc:	68 cc 71 01 00       	push   $0x171cc
   134c1:	e8 ea e0 ff ff       	call   115b0 <__cio_printf>
   134c6:	83 c4 10             	add    $0x10,%esp
   134c9:	89 d8                	mov    %ebx,%eax
   134cb:	83 ec 08             	sub    $0x8,%esp
   134ce:	50                   	push   %eax
   134cf:	68 d0 71 01 00       	push   $0x171d0
   134d4:	e8 d7 e0 ff ff       	call   115b0 <__cio_printf>
   134d9:	83 c4 10             	add    $0x10,%esp
   134dc:	85 db                	test   %ebx,%ebx
   134de:	75 15                	jne    134f5 <_context_dump+0x51>
   134e0:	83 ec 0c             	sub    $0xc,%esp
   134e3:	68 d9 71 01 00       	push   $0x171d9
   134e8:	e8 90 da ff ff       	call   10f7d <__cio_puts>
   134ed:	83 c4 10             	add    $0x10,%esp
   134f0:	e9 9e 00 00 00       	jmp    13593 <_context_dump+0xef>
   134f5:	8b 43 40             	mov    0x40(%ebx),%eax
   134f8:	0f b6 c0             	movzbl %al,%eax
   134fb:	89 45 e4             	mov    %eax,-0x1c(%ebp)
   134fe:	8b 43 10             	mov    0x10(%ebx),%eax
   13501:	0f b6 f8             	movzbl %al,%edi
   13504:	8b 43 0c             	mov    0xc(%ebx),%eax
   13507:	0f b6 f0             	movzbl %al,%esi
   1350a:	8b 43 08             	mov    0x8(%ebx),%eax
   1350d:	0f b6 c8             	movzbl %al,%ecx
   13510:	8b 43 04             	mov    0x4(%ebx),%eax
   13513:	0f b6 d0             	movzbl %al,%edx
   13516:	8b 03                	mov    (%ebx),%eax
   13518:	0f b6 c0             	movzbl %al,%eax
   1351b:	83 ec 04             	sub    $0x4,%esp
   1351e:	ff 75 e4             	pushl  -0x1c(%ebp)
   13521:	57                   	push   %edi
   13522:	56                   	push   %esi
   13523:	51                   	push   %ecx
   13524:	52                   	push   %edx
   13525:	50                   	push   %eax
   13526:	68 48 72 01 00       	push   $0x17248
   1352b:	e8 80 e0 ff ff       	call   115b0 <__cio_printf>
   13530:	83 c4 20             	add    $0x20,%esp
   13533:	8b 73 20             	mov    0x20(%ebx),%esi
   13536:	8b 4b 1c             	mov    0x1c(%ebx),%ecx
   13539:	8b 53 18             	mov    0x18(%ebx),%edx
   1353c:	8b 43 14             	mov    0x14(%ebx),%eax
   1353f:	83 ec 0c             	sub    $0xc,%esp
   13542:	56                   	push   %esi
   13543:	51                   	push   %ecx
   13544:	52                   	push   %edx
   13545:	50                   	push   %eax
   13546:	68 7c 72 01 00       	push   $0x1727c
   1354b:	e8 60 e0 ff ff       	call   115b0 <__cio_printf>
   13550:	83 c4 20             	add    $0x20,%esp
   13553:	8b 73 30             	mov    0x30(%ebx),%esi
   13556:	8b 4b 2c             	mov    0x2c(%ebx),%ecx
   13559:	8b 53 28             	mov    0x28(%ebx),%edx
   1355c:	8b 43 24             	mov    0x24(%ebx),%eax
   1355f:	83 ec 0c             	sub    $0xc,%esp
   13562:	56                   	push   %esi
   13563:	51                   	push   %ecx
   13564:	52                   	push   %edx
   13565:	50                   	push   %eax
   13566:	68 a4 72 01 00       	push   $0x172a4
   1356b:	e8 40 e0 ff ff       	call   115b0 <__cio_printf>
   13570:	83 c4 20             	add    $0x20,%esp
   13573:	8b 73 44             	mov    0x44(%ebx),%esi
   13576:	8b 4b 3c             	mov    0x3c(%ebx),%ecx
   13579:	8b 53 38             	mov    0x38(%ebx),%edx
   1357c:	8b 43 34             	mov    0x34(%ebx),%eax
   1357f:	83 ec 0c             	sub    $0xc,%esp
   13582:	56                   	push   %esi
   13583:	51                   	push   %ecx
   13584:	52                   	push   %edx
   13585:	50                   	push   %eax
   13586:	68 cc 72 01 00       	push   $0x172cc
   1358b:	e8 20 e0 ff ff       	call   115b0 <__cio_printf>
   13590:	83 c4 20             	add    $0x20,%esp
   13593:	8d 65 f4             	lea    -0xc(%ebp),%esp
   13596:	5b                   	pop    %ebx
   13597:	5e                   	pop    %esi
   13598:	5f                   	pop    %edi
   13599:	5d                   	pop    %ebp
   1359a:	c3                   	ret    

0001359b <_context_dump_all>:
   1359b:	55                   	push   %ebp
   1359c:	89 e5                	mov    %esp,%ebp
   1359e:	83 ec 18             	sub    $0x18,%esp
   135a1:	83 7d 08 00          	cmpl   $0x0,0x8(%ebp)
   135a5:	74 13                	je     135ba <_context_dump_all+0x1f>
   135a7:	83 ec 08             	sub    $0x8,%esp
   135aa:	ff 75 08             	pushl  0x8(%ebp)
   135ad:	68 f6 72 01 00       	push   $0x172f6
   135b2:	e8 f9 df ff ff       	call   115b0 <__cio_printf>
   135b7:	83 c4 10             	add    $0x10,%esp
   135ba:	a1 44 be 01 00       	mov    0x1be44,%eax
   135bf:	83 ec 08             	sub    $0x8,%esp
   135c2:	50                   	push   %eax
   135c3:	68 fb 72 01 00       	push   $0x172fb
   135c8:	e8 e3 df ff ff       	call   115b0 <__cio_printf>
   135cd:	83 c4 10             	add    $0x10,%esp
   135d0:	a1 44 be 01 00       	mov    0x1be44,%eax
   135d5:	85 c0                	test   %eax,%eax
   135d7:	74 61                	je     1363a <_context_dump_all+0x9f>
   135d9:	c7 45 f4 00 00 00 00 	movl   $0x0,-0xc(%ebp)
   135e0:	c7 45 f0 00 00 00 00 	movl   $0x0,-0x10(%ebp)
   135e7:	eb 49                	jmp    13632 <_context_dump_all+0x97>
   135e9:	8b 45 f0             	mov    -0x10(%ebp),%eax
   135ec:	8b 04 85 60 be 01 00 	mov    0x1be60(,%eax,4),%eax
   135f3:	89 45 ec             	mov    %eax,-0x14(%ebp)
   135f6:	8b 45 ec             	mov    -0x14(%ebp),%eax
   135f9:	0f b6 40 14          	movzbl 0x14(%eax),%eax
   135fd:	84 c0                	test   %al,%al
   135ff:	74 2d                	je     1362e <_context_dump_all+0x93>
   13601:	83 45 f4 01          	addl   $0x1,-0xc(%ebp)
   13605:	83 ec 04             	sub    $0x4,%esp
   13608:	ff 75 f0             	pushl  -0x10(%ebp)
   1360b:	ff 75 f4             	pushl  -0xc(%ebp)
   1360e:	68 10 73 01 00       	push   $0x17310
   13613:	e8 98 df ff ff       	call   115b0 <__cio_printf>
   13618:	83 c4 10             	add    $0x10,%esp
   1361b:	8b 45 ec             	mov    -0x14(%ebp),%eax
   1361e:	8b 00                	mov    (%eax),%eax
   13620:	83 ec 08             	sub    $0x8,%esp
   13623:	50                   	push   %eax
   13624:	6a 00                	push   $0x0
   13626:	e8 79 fe ff ff       	call   134a4 <_context_dump>
   1362b:	83 c4 10             	add    $0x10,%esp
   1362e:	83 45 f0 01          	addl   $0x1,-0x10(%ebp)
   13632:	83 7d f0 18          	cmpl   $0x18,-0x10(%ebp)
   13636:	7e b1                	jle    135e9 <_context_dump_all+0x4e>
   13638:	eb 01                	jmp    1363b <_context_dump_all+0xa0>
   1363a:	90                   	nop
   1363b:	c9                   	leave  
   1363c:	c3                   	ret    

0001363d <_active_dump>:
   1363d:	55                   	push   %ebp
   1363e:	89 e5                	mov    %esp,%ebp
   13640:	53                   	push   %ebx
   13641:	83 ec 24             	sub    $0x24,%esp
   13644:	8b 45 0c             	mov    0xc(%ebp),%eax
   13647:	88 45 e4             	mov    %al,-0x1c(%ebp)
   1364a:	83 7d 08 00          	cmpl   $0x0,0x8(%ebp)
   1364e:	74 13                	je     13663 <_active_dump+0x26>
   13650:	83 ec 08             	sub    $0x8,%esp
   13653:	ff 75 08             	pushl  0x8(%ebp)
   13656:	68 f6 72 01 00       	push   $0x172f6
   1365b:	e8 50 df ff ff       	call   115b0 <__cio_printf>
   13660:	83 c4 10             	add    $0x10,%esp
   13663:	c7 45 f4 00 00 00 00 	movl   $0x0,-0xc(%ebp)
   1366a:	c7 45 f0 00 00 00 00 	movl   $0x0,-0x10(%ebp)
   13671:	c7 45 ec 00 00 00 00 	movl   $0x0,-0x14(%ebp)
   13678:	e9 82 00 00 00       	jmp    136ff <_active_dump+0xc2>
   1367d:	8b 45 ec             	mov    -0x14(%ebp),%eax
   13680:	8b 1c 85 60 be 01 00 	mov    0x1be60(,%eax,4),%ebx
   13687:	0f b6 43 14          	movzbl 0x14(%ebx),%eax
   1368b:	84 c0                	test   %al,%al
   1368d:	75 06                	jne    13695 <_active_dump+0x58>
   1368f:	83 45 f0 01          	addl   $0x1,-0x10(%ebp)
   13693:	eb 66                	jmp    136fb <_active_dump+0xbe>
   13695:	83 45 f4 01          	addl   $0x1,-0xc(%ebp)
   13699:	80 7d e4 00          	cmpb   $0x0,-0x1c(%ebp)
   1369d:	75 13                	jne    136b2 <_active_dump+0x75>
   1369f:	83 7d f4 00          	cmpl   $0x0,-0xc(%ebp)
   136a3:	74 0d                	je     136b2 <_active_dump+0x75>
   136a5:	83 ec 0c             	sub    $0xc,%esp
   136a8:	6a 2c                	push   $0x2c
   136aa:	e8 8e d7 ff ff       	call   10e3d <__cio_putchar>
   136af:	83 c4 10             	add    $0x10,%esp
   136b2:	0f b6 43 14          	movzbl 0x14(%ebx),%eax
   136b6:	0f b6 c8             	movzbl %al,%ecx
   136b9:	0f b7 43 12          	movzwl 0x12(%ebx),%eax
   136bd:	0f bf d0             	movswl %ax,%edx
   136c0:	0f b7 43 10          	movzwl 0x10(%ebx),%eax
   136c4:	98                   	cwtl   
   136c5:	83 ec 0c             	sub    $0xc,%esp
   136c8:	51                   	push   %ecx
   136c9:	52                   	push   %edx
   136ca:	50                   	push   %eax
   136cb:	ff 75 ec             	pushl  -0x14(%ebp)
   136ce:	68 1b 73 01 00       	push   $0x1731b
   136d3:	e8 d8 de ff ff       	call   115b0 <__cio_printf>
   136d8:	83 c4 20             	add    $0x20,%esp
   136db:	80 7d e4 00          	cmpb   $0x0,-0x1c(%ebp)
   136df:	74 1a                	je     136fb <_active_dump+0xbe>
   136e1:	8b 03                	mov    (%ebx),%eax
   136e3:	8b 40 3c             	mov    0x3c(%eax),%eax
   136e6:	8b 53 04             	mov    0x4(%ebx),%edx
   136e9:	83 ec 04             	sub    $0x4,%esp
   136ec:	50                   	push   %eax
   136ed:	52                   	push   %edx
   136ee:	68 2a 73 01 00       	push   $0x1732a
   136f3:	e8 b8 de ff ff       	call   115b0 <__cio_printf>
   136f8:	83 c4 10             	add    $0x10,%esp
   136fb:	83 45 ec 01          	addl   $0x1,-0x14(%ebp)
   136ff:	83 7d ec 18          	cmpl   $0x18,-0x14(%ebp)
   13703:	0f 8e 74 ff ff ff    	jle    1367d <_active_dump+0x40>
   13709:	80 7d e4 00          	cmpb   $0x0,-0x1c(%ebp)
   1370d:	75 0d                	jne    1371c <_active_dump+0xdf>
   1370f:	83 ec 0c             	sub    $0xc,%esp
   13712:	6a 0a                	push   $0xa
   13714:	e8 24 d7 ff ff       	call   10e3d <__cio_putchar>
   13719:	83 c4 10             	add    $0x10,%esp
   1371c:	8b 55 f4             	mov    -0xc(%ebp),%edx
   1371f:	8b 45 f0             	mov    -0x10(%ebp),%eax
   13722:	01 d0                	add    %edx,%eax
   13724:	83 f8 19             	cmp    $0x19,%eax
   13727:	74 21                	je     1374a <_active_dump+0x10d>
   13729:	8b 55 f4             	mov    -0xc(%ebp),%edx
   1372c:	8b 45 f0             	mov    -0x10(%ebp),%eax
   1372f:	01 d0                	add    %edx,%eax
   13731:	83 ec 0c             	sub    $0xc,%esp
   13734:	50                   	push   %eax
   13735:	ff 75 f0             	pushl  -0x10(%ebp)
   13738:	ff 75 f4             	pushl  -0xc(%ebp)
   1373b:	6a 19                	push   $0x19
   1373d:	68 40 73 01 00       	push   $0x17340
   13742:	e8 69 de ff ff       	call   115b0 <__cio_printf>
   13747:	83 c4 20             	add    $0x20,%esp
   1374a:	90                   	nop
   1374b:	8b 5d fc             	mov    -0x4(%ebp),%ebx
   1374e:	c9                   	leave  
   1374f:	c3                   	ret    

00013750 <_new_qnodes>:
   13750:	55                   	push   %ebp
   13751:	89 e5                	mov    %esp,%ebp
   13753:	83 ec 28             	sub    $0x28,%esp
   13756:	8b 45 08             	mov    0x8(%ebp),%eax
   13759:	88 45 e4             	mov    %al,-0x1c(%ebp)
   1375c:	e8 3b f7 ff ff       	call   12e9c <_km_slice_alloc>
   13761:	89 45 f0             	mov    %eax,-0x10(%ebp)
   13764:	80 7d e4 00          	cmpb   $0x0,-0x1c(%ebp)
   13768:	74 3e                	je     137a8 <_new_qnodes+0x58>
   1376a:	83 7d f0 00          	cmpl   $0x0,-0x10(%ebp)
   1376e:	75 38                	jne    137a8 <_new_qnodes+0x58>
   13770:	83 ec 08             	sub    $0x8,%esp
   13773:	6a 00                	push   $0x0
   13775:	6a 6d                	push   $0x6d
   13777:	68 78 73 01 00       	push   $0x17378
   1377c:	68 1c 74 01 00       	push   $0x1741c
   13781:	68 81 73 01 00       	push   $0x17381
   13786:	68 00 bb 01 00       	push   $0x1bb00
   1378b:	e8 a8 ec ff ff       	call   12438 <__sprint>
   13790:	83 c4 20             	add    $0x20,%esp
   13793:	83 ec 08             	sub    $0x8,%esp
   13796:	68 9b 73 01 00       	push   $0x1739b
   1379b:	68 00 bb 01 00       	push   $0x1bb00
   137a0:	e8 a1 f0 ff ff       	call   12846 <_kpanic>
   137a5:	83 c4 10             	add    $0x10,%esp
   137a8:	83 7d f0 00          	cmpl   $0x0,-0x10(%ebp)
   137ac:	75 07                	jne    137b5 <_new_qnodes+0x65>
   137ae:	b8 00 00 00 00       	mov    $0x0,%eax
   137b3:	eb 46                	jmp    137fb <_new_qnodes+0xab>
   137b5:	83 ec 08             	sub    $0x8,%esp
   137b8:	68 00 04 00 00       	push   $0x400
   137bd:	ff 75 f0             	pushl  -0x10(%ebp)
   137c0:	e8 b1 ea ff ff       	call   12276 <__memclr>
   137c5:	83 c4 10             	add    $0x10,%esp
   137c8:	c7 45 f4 00 00 00 00 	movl   $0x0,-0xc(%ebp)
   137cf:	eb 1d                	jmp    137ee <_new_qnodes+0x9e>
   137d1:	8b 45 f4             	mov    -0xc(%ebp),%eax
   137d4:	c1 e0 04             	shl    $0x4,%eax
   137d7:	89 c2                	mov    %eax,%edx
   137d9:	8b 45 f0             	mov    -0x10(%ebp),%eax
   137dc:	01 d0                	add    %edx,%eax
   137de:	83 ec 0c             	sub    $0xc,%esp
   137e1:	50                   	push   %eax
   137e2:	e8 2e 01 00 00       	call   13915 <_qn_free>
   137e7:	83 c4 10             	add    $0x10,%esp
   137ea:	83 45 f4 01          	addl   $0x1,-0xc(%ebp)
   137ee:	8b 45 f4             	mov    -0xc(%ebp),%eax
   137f1:	83 f8 3f             	cmp    $0x3f,%eax
   137f4:	76 db                	jbe    137d1 <_new_qnodes+0x81>
   137f6:	b8 01 00 00 00       	mov    $0x1,%eax
   137fb:	c9                   	leave  
   137fc:	c3                   	ret    

000137fd <_new_queues>:
   137fd:	55                   	push   %ebp
   137fe:	89 e5                	mov    %esp,%ebp
   13800:	83 ec 28             	sub    $0x28,%esp
   13803:	8b 45 08             	mov    0x8(%ebp),%eax
   13806:	88 45 e4             	mov    %al,-0x1c(%ebp)
   13809:	e8 8e f6 ff ff       	call   12e9c <_km_slice_alloc>
   1380e:	89 45 f0             	mov    %eax,-0x10(%ebp)
   13811:	80 7d e4 00          	cmpb   $0x0,-0x1c(%ebp)
   13815:	74 41                	je     13858 <_new_queues+0x5b>
   13817:	83 7d f0 00          	cmpl   $0x0,-0x10(%ebp)
   1381b:	75 3b                	jne    13858 <_new_queues+0x5b>
   1381d:	83 ec 08             	sub    $0x8,%esp
   13820:	6a 00                	push   $0x0
   13822:	68 91 00 00 00       	push   $0x91
   13827:	68 78 73 01 00       	push   $0x17378
   1382c:	68 28 74 01 00       	push   $0x17428
   13831:	68 81 73 01 00       	push   $0x17381
   13836:	68 00 bb 01 00       	push   $0x1bb00
   1383b:	e8 f8 eb ff ff       	call   12438 <__sprint>
   13840:	83 c4 20             	add    $0x20,%esp
   13843:	83 ec 08             	sub    $0x8,%esp
   13846:	68 9b 73 01 00       	push   $0x1739b
   1384b:	68 00 bb 01 00       	push   $0x1bb00
   13850:	e8 f1 ef ff ff       	call   12846 <_kpanic>
   13855:	83 c4 10             	add    $0x10,%esp
   13858:	83 7d f0 00          	cmpl   $0x0,-0x10(%ebp)
   1385c:	75 07                	jne    13865 <_new_queues+0x68>
   1385e:	b8 00 00 00 00       	mov    $0x0,%eax
   13863:	eb 46                	jmp    138ab <_new_queues+0xae>
   13865:	83 ec 08             	sub    $0x8,%esp
   13868:	68 00 04 00 00       	push   $0x400
   1386d:	ff 75 f0             	pushl  -0x10(%ebp)
   13870:	e8 01 ea ff ff       	call   12276 <__memclr>
   13875:	83 c4 10             	add    $0x10,%esp
   13878:	c7 45 f4 00 00 00 00 	movl   $0x0,-0xc(%ebp)
   1387f:	eb 1d                	jmp    1389e <_new_queues+0xa1>
   13881:	8b 45 f4             	mov    -0xc(%ebp),%eax
   13884:	c1 e0 04             	shl    $0x4,%eax
   13887:	89 c2                	mov    %eax,%edx
   13889:	8b 45 f0             	mov    -0x10(%ebp),%eax
   1388c:	01 d0                	add    %edx,%eax
   1388e:	83 ec 0c             	sub    $0xc,%esp
   13891:	50                   	push   %eax
   13892:	e8 55 01 00 00       	call   139ec <_que_free>
   13897:	83 c4 10             	add    $0x10,%esp
   1389a:	83 45 f4 01          	addl   $0x1,-0xc(%ebp)
   1389e:	8b 45 f4             	mov    -0xc(%ebp),%eax
   138a1:	83 f8 3f             	cmp    $0x3f,%eax
   138a4:	76 db                	jbe    13881 <_new_queues+0x84>
   138a6:	b8 01 00 00 00       	mov    $0x1,%eax
   138ab:	c9                   	leave  
   138ac:	c3                   	ret    

000138ad <_qn_alloc>:
   138ad:	55                   	push   %ebp
   138ae:	89 e5                	mov    %esp,%ebp
   138b0:	83 ec 18             	sub    $0x18,%esp
   138b3:	a1 24 a6 01 00       	mov    0x1a624,%eax
   138b8:	85 c0                	test   %eax,%eax
   138ba:	75 18                	jne    138d4 <_qn_alloc+0x27>
   138bc:	83 ec 0c             	sub    $0xc,%esp
   138bf:	6a 00                	push   $0x0
   138c1:	e8 8a fe ff ff       	call   13750 <_new_qnodes>
   138c6:	83 c4 10             	add    $0x10,%esp
   138c9:	84 c0                	test   %al,%al
   138cb:	75 07                	jne    138d4 <_qn_alloc+0x27>
   138cd:	b8 00 00 00 00       	mov    $0x0,%eax
   138d2:	eb 3f                	jmp    13913 <_qn_alloc+0x66>
   138d4:	a1 24 a6 01 00       	mov    0x1a624,%eax
   138d9:	89 45 f4             	mov    %eax,-0xc(%ebp)
   138dc:	8b 45 f4             	mov    -0xc(%ebp),%eax
   138df:	8b 40 04             	mov    0x4(%eax),%eax
   138e2:	a3 24 a6 01 00       	mov    %eax,0x1a624
   138e7:	8b 45 f4             	mov    -0xc(%ebp),%eax
   138ea:	c7 40 0c 00 00 00 00 	movl   $0x0,0xc(%eax)
   138f1:	8b 45 f4             	mov    -0xc(%ebp),%eax
   138f4:	c7 40 04 00 00 00 00 	movl   $0x0,0x4(%eax)
   138fb:	8b 45 f4             	mov    -0xc(%ebp),%eax
   138fe:	8b 50 04             	mov    0x4(%eax),%edx
   13901:	8b 45 f4             	mov    -0xc(%ebp),%eax
   13904:	89 10                	mov    %edx,(%eax)
   13906:	8b 45 f4             	mov    -0xc(%ebp),%eax
   13909:	c7 40 08 00 00 00 00 	movl   $0x0,0x8(%eax)
   13910:	8b 45 f4             	mov    -0xc(%ebp),%eax
   13913:	c9                   	leave  
   13914:	c3                   	ret    

00013915 <_qn_free>:
   13915:	55                   	push   %ebp
   13916:	89 e5                	mov    %esp,%ebp
   13918:	8b 15 24 a6 01 00    	mov    0x1a624,%edx
   1391e:	8b 45 08             	mov    0x8(%ebp),%eax
   13921:	89 50 04             	mov    %edx,0x4(%eax)
   13924:	8b 45 08             	mov    0x8(%ebp),%eax
   13927:	a3 24 a6 01 00       	mov    %eax,0x1a624
   1392c:	90                   	nop
   1392d:	5d                   	pop    %ebp
   1392e:	c3                   	ret    

0001392f <_que_init>:
   1392f:	55                   	push   %ebp
   13930:	89 e5                	mov    %esp,%ebp
   13932:	83 ec 08             	sub    $0x8,%esp
   13935:	83 ec 0c             	sub    $0xc,%esp
   13938:	68 b3 73 01 00       	push   $0x173b3
   1393d:	e8 3b d6 ff ff       	call   10f7d <__cio_puts>
   13942:	83 c4 10             	add    $0x10,%esp
   13945:	c7 05 24 a6 01 00 00 	movl   $0x0,0x1a624
   1394c:	00 00 00 
   1394f:	83 ec 0c             	sub    $0xc,%esp
   13952:	6a 01                	push   $0x1
   13954:	e8 f7 fd ff ff       	call   13750 <_new_qnodes>
   13959:	83 c4 10             	add    $0x10,%esp
   1395c:	c7 05 28 a6 01 00 00 	movl   $0x0,0x1a628
   13963:	00 00 00 
   13966:	83 ec 0c             	sub    $0xc,%esp
   13969:	6a 01                	push   $0x1
   1396b:	e8 8d fe ff ff       	call   137fd <_new_queues>
   13970:	83 c4 10             	add    $0x10,%esp
   13973:	83 ec 0c             	sub    $0xc,%esp
   13976:	68 bb 73 01 00       	push   $0x173bb
   1397b:	e8 fd d5 ff ff       	call   10f7d <__cio_puts>
   13980:	83 c4 10             	add    $0x10,%esp
   13983:	90                   	nop
   13984:	c9                   	leave  
   13985:	c3                   	ret    

00013986 <_que_alloc>:
   13986:	55                   	push   %ebp
   13987:	89 e5                	mov    %esp,%ebp
   13989:	83 ec 18             	sub    $0x18,%esp
   1398c:	a1 28 a6 01 00       	mov    0x1a628,%eax
   13991:	85 c0                	test   %eax,%eax
   13993:	75 18                	jne    139ad <_que_alloc+0x27>
   13995:	83 ec 0c             	sub    $0xc,%esp
   13998:	6a 00                	push   $0x0
   1399a:	e8 5e fe ff ff       	call   137fd <_new_queues>
   1399f:	83 c4 10             	add    $0x10,%esp
   139a2:	84 c0                	test   %al,%al
   139a4:	75 07                	jne    139ad <_que_alloc+0x27>
   139a6:	b8 00 00 00 00       	mov    $0x0,%eax
   139ab:	eb 3d                	jmp    139ea <_que_alloc+0x64>
   139ad:	a1 28 a6 01 00       	mov    0x1a628,%eax
   139b2:	89 45 f4             	mov    %eax,-0xc(%ebp)
   139b5:	8b 45 f4             	mov    -0xc(%ebp),%eax
   139b8:	8b 00                	mov    (%eax),%eax
   139ba:	a3 28 a6 01 00       	mov    %eax,0x1a628
   139bf:	8b 45 f4             	mov    -0xc(%ebp),%eax
   139c2:	c7 40 04 00 00 00 00 	movl   $0x0,0x4(%eax)
   139c9:	8b 45 f4             	mov    -0xc(%ebp),%eax
   139cc:	8b 50 04             	mov    0x4(%eax),%edx
   139cf:	8b 45 f4             	mov    -0xc(%ebp),%eax
   139d2:	89 10                	mov    %edx,(%eax)
   139d4:	8b 45 f4             	mov    -0xc(%ebp),%eax
   139d7:	c7 40 08 00 00 00 00 	movl   $0x0,0x8(%eax)
   139de:	8b 45 f4             	mov    -0xc(%ebp),%eax
   139e1:	8b 55 08             	mov    0x8(%ebp),%edx
   139e4:	89 50 0c             	mov    %edx,0xc(%eax)
   139e7:	8b 45 f4             	mov    -0xc(%ebp),%eax
   139ea:	c9                   	leave  
   139eb:	c3                   	ret    

000139ec <_que_free>:
   139ec:	55                   	push   %ebp
   139ed:	89 e5                	mov    %esp,%ebp
   139ef:	83 ec 08             	sub    $0x8,%esp
   139f2:	83 7d 08 00          	cmpl   $0x0,0x8(%ebp)
   139f6:	75 3b                	jne    13a33 <_que_free+0x47>
   139f8:	83 ec 08             	sub    $0x8,%esp
   139fb:	6a 01                	push   $0x1
   139fd:	68 20 01 00 00       	push   $0x120
   13a02:	68 78 73 01 00       	push   $0x17378
   13a07:	68 34 74 01 00       	push   $0x17434
   13a0c:	68 81 73 01 00       	push   $0x17381
   13a11:	68 00 bb 01 00       	push   $0x1bb00
   13a16:	e8 1d ea ff ff       	call   12438 <__sprint>
   13a1b:	83 c4 20             	add    $0x20,%esp
   13a1e:	83 ec 08             	sub    $0x8,%esp
   13a21:	68 c1 73 01 00       	push   $0x173c1
   13a26:	68 00 bb 01 00       	push   $0x1bb00
   13a2b:	e8 16 ee ff ff       	call   12846 <_kpanic>
   13a30:	83 c4 10             	add    $0x10,%esp
   13a33:	8b 15 28 a6 01 00    	mov    0x1a628,%edx
   13a39:	8b 45 08             	mov    0x8(%ebp),%eax
   13a3c:	89 10                	mov    %edx,(%eax)
   13a3e:	8b 45 08             	mov    0x8(%ebp),%eax
   13a41:	a3 28 a6 01 00       	mov    %eax,0x1a628
   13a46:	90                   	nop
   13a47:	c9                   	leave  
   13a48:	c3                   	ret    

00013a49 <_que_length>:
   13a49:	55                   	push   %ebp
   13a4a:	89 e5                	mov    %esp,%ebp
   13a4c:	83 ec 08             	sub    $0x8,%esp
   13a4f:	83 7d 08 00          	cmpl   $0x0,0x8(%ebp)
   13a53:	75 3b                	jne    13a90 <_que_length+0x47>
   13a55:	83 ec 08             	sub    $0x8,%esp
   13a58:	6a 01                	push   $0x1
   13a5a:	68 2f 01 00 00       	push   $0x12f
   13a5f:	68 78 73 01 00       	push   $0x17378
   13a64:	68 40 74 01 00       	push   $0x17440
   13a69:	68 81 73 01 00       	push   $0x17381
   13a6e:	68 00 bb 01 00       	push   $0x1bb00
   13a73:	e8 c0 e9 ff ff       	call   12438 <__sprint>
   13a78:	83 c4 20             	add    $0x20,%esp
   13a7b:	83 ec 08             	sub    $0x8,%esp
   13a7e:	68 c1 73 01 00       	push   $0x173c1
   13a83:	68 00 bb 01 00       	push   $0x1bb00
   13a88:	e8 b9 ed ff ff       	call   12846 <_kpanic>
   13a8d:	83 c4 10             	add    $0x10,%esp
   13a90:	8b 45 08             	mov    0x8(%ebp),%eax
   13a93:	8b 40 08             	mov    0x8(%eax),%eax
   13a96:	c9                   	leave  
   13a97:	c3                   	ret    

00013a98 <_que_enque>:
   13a98:	55                   	push   %ebp
   13a99:	89 e5                	mov    %esp,%ebp
   13a9b:	83 ec 18             	sub    $0x18,%esp
   13a9e:	83 7d 08 00          	cmpl   $0x0,0x8(%ebp)
   13aa2:	75 3b                	jne    13adf <_que_enque+0x47>
   13aa4:	83 ec 08             	sub    $0x8,%esp
   13aa7:	6a 01                	push   $0x1
   13aa9:	68 41 01 00 00       	push   $0x141
   13aae:	68 78 73 01 00       	push   $0x17378
   13ab3:	68 4c 74 01 00       	push   $0x1744c
   13ab8:	68 81 73 01 00       	push   $0x17381
   13abd:	68 00 bb 01 00       	push   $0x1bb00
   13ac2:	e8 71 e9 ff ff       	call   12438 <__sprint>
   13ac7:	83 c4 20             	add    $0x20,%esp
   13aca:	83 ec 08             	sub    $0x8,%esp
   13acd:	68 c1 73 01 00       	push   $0x173c1
   13ad2:	68 00 bb 01 00       	push   $0x1bb00
   13ad7:	e8 6a ed ff ff       	call   12846 <_kpanic>
   13adc:	83 c4 10             	add    $0x10,%esp
   13adf:	e8 c9 fd ff ff       	call   138ad <_qn_alloc>
   13ae4:	89 45 f0             	mov    %eax,-0x10(%ebp)
   13ae7:	83 7d f0 00          	cmpl   $0x0,-0x10(%ebp)
   13aeb:	75 0a                	jne    13af7 <_que_enque+0x5f>
   13aed:	b8 fe ff ff ff       	mov    $0xfffffffe,%eax
   13af2:	e9 34 01 00 00       	jmp    13c2b <_que_enque+0x193>
   13af7:	8b 45 f0             	mov    -0x10(%ebp),%eax
   13afa:	8b 55 0c             	mov    0xc(%ebp),%edx
   13afd:	89 50 0c             	mov    %edx,0xc(%eax)
   13b00:	8b 45 f0             	mov    -0x10(%ebp),%eax
   13b03:	8b 55 10             	mov    0x10(%ebp),%edx
