
prog.o:     file format elf32-i386


Disassembly of section .text:

00010000 <_start>:
   10000:	fa                   	cli    
   10001:	b0 00                	mov    $0x0,%al
   10003:	e6 70                	out    %al,$0x70
   10005:	31 c0                	xor    %eax,%eax
   10007:	66 b8 18 00          	mov    $0x18,%ax
   1000b:	8e d8                	mov    %eax,%ds
   1000d:	8e c0                	mov    %eax,%es
   1000f:	8e e0                	mov    %eax,%fs
   10011:	8e e8                	mov    %eax,%gs
   10013:	66 b8 20 00          	mov    $0x20,%ax
   10017:	8e d0                	mov    %eax,%ss
   10019:	bd 00 00 01 00       	mov    $0x10000,%ebp
   1001e:	89 ec                	mov    %ebp,%esp
   10020:	bf 1d a5 01 00       	mov    $0x1a51d,%edi

00010025 <clearbss>:
   10025:	c7 07 00 00 00 00    	movl   $0x0,(%edi)
   1002b:	83 c7 04             	add    $0x4,%edi
   1002e:	81 ff 04 c7 01 00    	cmp    $0x1c704,%edi
   10034:	72 ef                	jb     10025 <clearbss>
   10036:	e8 50 1d 00 00       	call   11d8b <_init>
   1003b:	e9 2c 00 00 00       	jmp    1006c <__isr_restore>

00010040 <isr_save>:
   10040:	60                   	pusha  
   10041:	1e                   	push   %ds
   10042:	06                   	push   %es
   10043:	0f a0                	push   %fs
   10045:	0f a8                	push   %gs
   10047:	16                   	push   %ss
   10048:	8b 44 24 34          	mov    0x34(%esp),%eax
   1004c:	8b 5c 24 38          	mov    0x38(%esp),%ebx
   10050:	8b 15 d4 be 01 00    	mov    0x1bed4,%edx
   10056:	89 22                	mov    %esp,(%edx)
   10058:	8b 25 20 be 01 00    	mov    0x1be20,%esp
   1005e:	53                   	push   %ebx
   1005f:	50                   	push   %eax
   10060:	8b 1c 85 e0 b6 01 00 	mov    0x1b6e0(,%eax,4),%ebx
   10067:	ff d3                	call   *%ebx
   10069:	83 c4 08             	add    $0x8,%esp

0001006c <__isr_restore>:
   1006c:	8b 1d d4 be 01 00    	mov    0x1bed4,%ebx
   10072:	8b 23                	mov    (%ebx),%esp
   10074:	31 c0                	xor    %eax,%eax
   10076:	66 8b 43 12          	mov    0x12(%ebx),%ax
   1007a:	50                   	push   %eax
   1007b:	66 8b 43 10          	mov    0x10(%ebx),%ax
   1007f:	50                   	push   %eax
   10080:	a1 e4 ba 01 00       	mov    0x1bae4,%eax
   10085:	50                   	push   %eax
   10086:	68 a3 00 01 00       	push   $0x100a3
   1008b:	6a 01                	push   $0x1
   1008d:	6a 00                	push   $0x0
   1008f:	e8 fc 14 00 00       	call   11590 <__cio_printf_at>
   10094:	83 c4 18             	add    $0x18,%esp
   10097:	17                   	pop    %ss
   10098:	0f a9                	pop    %gs
   1009a:	0f a1                	pop    %fs
   1009c:	07                   	pop    %es
   1009d:	1f                   	pop    %ds
   1009e:	61                   	popa   
   1009f:	83 c4 08             	add    $0x8,%esp
   100a2:	cf                   	iret   

000100a3 <fmtall>:
   100a3:	74 69                	je     1010e <fmt+0x50>
   100a5:	6d                   	insl   (%dx),%es:(%edi)
   100a6:	65 20 25 30 38 78 20 	and    %ah,%gs:0x20783830
   100ad:	70 69                	jo     10118 <fmt+0x5a>
   100af:	64 20 25 35 64 20 70 	and    %ah,%fs:0x70206435
   100b6:	70 69                	jo     10121 <fmt+0x63>
   100b8:	64                   	fs
   100b9:	20                   	.byte 0x20
   100ba:	25                   	.byte 0x25
   100bb:	35                   	.byte 0x35
   100bc:	64                   	fs
   100bd:	0a                   	.byte 0xa

000100be <fmt>:
   100be:	20 73 73             	and    %dh,0x73(%ebx)
   100c1:	3d 25 30 38 78       	cmp    $0x78383025,%eax
   100c6:	20 20                	and    %ah,(%eax)
   100c8:	67 73 3d             	addr16 jae 10108 <fmt+0x4a>
   100cb:	25 30 38 78 20       	and    $0x20783830,%eax
   100d0:	20 66 73             	and    %ah,0x73(%esi)
   100d3:	3d 25 30 38 78       	cmp    $0x78383025,%eax
   100d8:	20 20                	and    %ah,(%eax)
   100da:	65 73 3d             	gs jae 1011a <fmt+0x5c>
   100dd:	25 30 38 78 20       	and    $0x20783830,%eax
   100e2:	20 64 73 3d          	and    %ah,0x3d(%ebx,%esi,2)
   100e6:	25 30 38 78 0a       	and    $0xa783830,%eax
   100eb:	65 64 69 3d 25 30 38 	gs imul $0x69736520,%fs:0x78383025,%edi
   100f2:	78 20 65 73 69 
   100f7:	3d 25 30 38 78       	cmp    $0x78383025,%eax
   100fc:	20 65 62             	and    %ah,0x62(%ebp)
   100ff:	70 3d                	jo     1013e <fmt+0x80>
   10101:	25 30 38 78 20       	and    $0x20783830,%eax
   10106:	65 73 70             	gs jae 10179 <__isr_0x02+0x6>
   10109:	3d 25 30 38 78       	cmp    $0x78383025,%eax
   1010e:	20 65 62             	and    %ah,0x62(%ebp)
   10111:	78 3d                	js     10150 <fmt+0x92>
   10113:	25 30 38 78 0a       	and    $0xa783830,%eax
   10118:	65 64 78 3d          	gs fs js 10159 <fmt+0x9b>
   1011c:	25 30 38 78 20       	and    $0x20783830,%eax
   10121:	65 63 78 3d          	arpl   %di,%gs:0x3d(%eax)
   10125:	25 30 38 78 20       	and    $0x20783830,%eax
   1012a:	65 61                	gs popa 
   1012c:	78 3d                	js     1016b <__isr_0x01+0x1>
   1012e:	25 30 38 78 20       	and    $0x20783830,%eax
   10133:	76 65                	jbe    1019a <__isr_0x06+0x3>
   10135:	63 3d 25 30 38 78    	arpl   %di,0x78383025
   1013b:	20 63 6f             	and    %ah,0x6f(%ebx)
   1013e:	64 3d 25 30 38 78    	fs cmp $0x78383025,%eax
   10144:	0a 65 69             	or     0x69(%ebp),%ah
   10147:	70 3d                	jo     10186 <__isr_0x04+0x1>
   10149:	25 30 38 78 20       	and    $0x20783830,%eax
   1014e:	20 63 73             	and    %ah,0x73(%ebx)
   10151:	3d 25 30 38 78       	cmp    $0x78383025,%eax
   10156:	20 65 66             	and    %ah,0x66(%ebp)
   10159:	6c                   	insb   (%dx),%es:(%edi)
   1015a:	3d 25 30 38 78       	cmp    $0x78383025,%eax
   1015f:	0a 00                	or     (%eax),%al

00010161 <__isr_0x00>:
   10161:	6a 00                	push   $0x0
   10163:	6a 00                	push   $0x0
   10165:	e9 d6 fe ff ff       	jmp    10040 <isr_save>

0001016a <__isr_0x01>:
   1016a:	6a 00                	push   $0x0
   1016c:	6a 01                	push   $0x1
   1016e:	e9 cd fe ff ff       	jmp    10040 <isr_save>

00010173 <__isr_0x02>:
   10173:	6a 00                	push   $0x0
   10175:	6a 02                	push   $0x2
   10177:	e9 c4 fe ff ff       	jmp    10040 <isr_save>

0001017c <__isr_0x03>:
   1017c:	6a 00                	push   $0x0
   1017e:	6a 03                	push   $0x3
   10180:	e9 bb fe ff ff       	jmp    10040 <isr_save>

00010185 <__isr_0x04>:
   10185:	6a 00                	push   $0x0
   10187:	6a 04                	push   $0x4
   10189:	e9 b2 fe ff ff       	jmp    10040 <isr_save>

0001018e <__isr_0x05>:
   1018e:	6a 00                	push   $0x0
   10190:	6a 05                	push   $0x5
   10192:	e9 a9 fe ff ff       	jmp    10040 <isr_save>

00010197 <__isr_0x06>:
   10197:	6a 00                	push   $0x0
   10199:	6a 06                	push   $0x6
   1019b:	e9 a0 fe ff ff       	jmp    10040 <isr_save>

000101a0 <__isr_0x07>:
   101a0:	6a 00                	push   $0x0
   101a2:	6a 07                	push   $0x7
   101a4:	e9 97 fe ff ff       	jmp    10040 <isr_save>

000101a9 <__isr_0x08>:
   101a9:	6a 08                	push   $0x8
   101ab:	e9 90 fe ff ff       	jmp    10040 <isr_save>

000101b0 <__isr_0x09>:
   101b0:	6a 00                	push   $0x0
   101b2:	6a 09                	push   $0x9
   101b4:	e9 87 fe ff ff       	jmp    10040 <isr_save>

000101b9 <__isr_0x0a>:
   101b9:	6a 0a                	push   $0xa
   101bb:	e9 80 fe ff ff       	jmp    10040 <isr_save>

000101c0 <__isr_0x0b>:
   101c0:	6a 0b                	push   $0xb
   101c2:	e9 79 fe ff ff       	jmp    10040 <isr_save>

000101c7 <__isr_0x0c>:
   101c7:	6a 0c                	push   $0xc
   101c9:	e9 72 fe ff ff       	jmp    10040 <isr_save>

000101ce <__isr_0x0d>:
   101ce:	6a 0d                	push   $0xd
   101d0:	e9 6b fe ff ff       	jmp    10040 <isr_save>

000101d5 <__isr_0x0e>:
   101d5:	6a 0e                	push   $0xe
   101d7:	e9 64 fe ff ff       	jmp    10040 <isr_save>

000101dc <__isr_0x0f>:
   101dc:	6a 00                	push   $0x0
   101de:	6a 0f                	push   $0xf
   101e0:	e9 5b fe ff ff       	jmp    10040 <isr_save>

000101e5 <__isr_0x10>:
   101e5:	6a 00                	push   $0x0
   101e7:	6a 10                	push   $0x10
   101e9:	e9 52 fe ff ff       	jmp    10040 <isr_save>

000101ee <__isr_0x11>:
   101ee:	6a 11                	push   $0x11
   101f0:	e9 4b fe ff ff       	jmp    10040 <isr_save>

000101f5 <__isr_0x12>:
   101f5:	6a 00                	push   $0x0
   101f7:	6a 12                	push   $0x12
   101f9:	e9 42 fe ff ff       	jmp    10040 <isr_save>

000101fe <__isr_0x13>:
   101fe:	6a 00                	push   $0x0
   10200:	6a 13                	push   $0x13
   10202:	e9 39 fe ff ff       	jmp    10040 <isr_save>

00010207 <__isr_0x14>:
   10207:	6a 00                	push   $0x0
   10209:	6a 14                	push   $0x14
   1020b:	e9 30 fe ff ff       	jmp    10040 <isr_save>

00010210 <__isr_0x15>:
   10210:	6a 00                	push   $0x0
   10212:	6a 15                	push   $0x15
   10214:	e9 27 fe ff ff       	jmp    10040 <isr_save>

00010219 <__isr_0x16>:
   10219:	6a 00                	push   $0x0
   1021b:	6a 16                	push   $0x16
   1021d:	e9 1e fe ff ff       	jmp    10040 <isr_save>

00010222 <__isr_0x17>:
   10222:	6a 00                	push   $0x0
   10224:	6a 17                	push   $0x17
   10226:	e9 15 fe ff ff       	jmp    10040 <isr_save>

0001022b <__isr_0x18>:
   1022b:	6a 00                	push   $0x0
   1022d:	6a 18                	push   $0x18
   1022f:	e9 0c fe ff ff       	jmp    10040 <isr_save>

00010234 <__isr_0x19>:
   10234:	6a 00                	push   $0x0
   10236:	6a 19                	push   $0x19
   10238:	e9 03 fe ff ff       	jmp    10040 <isr_save>

0001023d <__isr_0x1a>:
   1023d:	6a 00                	push   $0x0
   1023f:	6a 1a                	push   $0x1a
   10241:	e9 fa fd ff ff       	jmp    10040 <isr_save>

00010246 <__isr_0x1b>:
   10246:	6a 00                	push   $0x0
   10248:	6a 1b                	push   $0x1b
   1024a:	e9 f1 fd ff ff       	jmp    10040 <isr_save>

0001024f <__isr_0x1c>:
   1024f:	6a 00                	push   $0x0
   10251:	6a 1c                	push   $0x1c
   10253:	e9 e8 fd ff ff       	jmp    10040 <isr_save>

00010258 <__isr_0x1d>:
   10258:	6a 00                	push   $0x0
   1025a:	6a 1d                	push   $0x1d
   1025c:	e9 df fd ff ff       	jmp    10040 <isr_save>

00010261 <__isr_0x1e>:
   10261:	6a 00                	push   $0x0
   10263:	6a 1e                	push   $0x1e
   10265:	e9 d6 fd ff ff       	jmp    10040 <isr_save>

0001026a <__isr_0x1f>:
   1026a:	6a 00                	push   $0x0
   1026c:	6a 1f                	push   $0x1f
   1026e:	e9 cd fd ff ff       	jmp    10040 <isr_save>

00010273 <__isr_0x20>:
   10273:	6a 00                	push   $0x0
   10275:	6a 20                	push   $0x20
   10277:	e9 c4 fd ff ff       	jmp    10040 <isr_save>

0001027c <__isr_0x21>:
   1027c:	6a 00                	push   $0x0
   1027e:	6a 21                	push   $0x21
   10280:	e9 bb fd ff ff       	jmp    10040 <isr_save>

00010285 <__isr_0x22>:
   10285:	6a 00                	push   $0x0
   10287:	6a 22                	push   $0x22
   10289:	e9 b2 fd ff ff       	jmp    10040 <isr_save>

0001028e <__isr_0x23>:
   1028e:	6a 00                	push   $0x0
   10290:	6a 23                	push   $0x23
   10292:	e9 a9 fd ff ff       	jmp    10040 <isr_save>

00010297 <__isr_0x24>:
   10297:	6a 00                	push   $0x0
   10299:	6a 24                	push   $0x24
   1029b:	e9 a0 fd ff ff       	jmp    10040 <isr_save>

000102a0 <__isr_0x25>:
   102a0:	6a 00                	push   $0x0
   102a2:	6a 25                	push   $0x25
   102a4:	e9 97 fd ff ff       	jmp    10040 <isr_save>

000102a9 <__isr_0x26>:
   102a9:	6a 00                	push   $0x0
   102ab:	6a 26                	push   $0x26
   102ad:	e9 8e fd ff ff       	jmp    10040 <isr_save>

000102b2 <__isr_0x27>:
   102b2:	6a 00                	push   $0x0
   102b4:	6a 27                	push   $0x27
   102b6:	e9 85 fd ff ff       	jmp    10040 <isr_save>

000102bb <__isr_0x28>:
   102bb:	6a 00                	push   $0x0
   102bd:	6a 28                	push   $0x28
   102bf:	e9 7c fd ff ff       	jmp    10040 <isr_save>

000102c4 <__isr_0x29>:
   102c4:	6a 00                	push   $0x0
   102c6:	6a 29                	push   $0x29
   102c8:	e9 73 fd ff ff       	jmp    10040 <isr_save>

000102cd <__isr_0x2a>:
   102cd:	6a 00                	push   $0x0
   102cf:	6a 2a                	push   $0x2a
   102d1:	e9 6a fd ff ff       	jmp    10040 <isr_save>

000102d6 <__isr_0x2b>:
   102d6:	6a 00                	push   $0x0
   102d8:	6a 2b                	push   $0x2b
   102da:	e9 61 fd ff ff       	jmp    10040 <isr_save>

000102df <__isr_0x2c>:
   102df:	6a 00                	push   $0x0
   102e1:	6a 2c                	push   $0x2c
   102e3:	e9 58 fd ff ff       	jmp    10040 <isr_save>

000102e8 <__isr_0x2d>:
   102e8:	6a 00                	push   $0x0
   102ea:	6a 2d                	push   $0x2d
   102ec:	e9 4f fd ff ff       	jmp    10040 <isr_save>

000102f1 <__isr_0x2e>:
   102f1:	6a 00                	push   $0x0
   102f3:	6a 2e                	push   $0x2e
   102f5:	e9 46 fd ff ff       	jmp    10040 <isr_save>

000102fa <__isr_0x2f>:
   102fa:	6a 00                	push   $0x0
   102fc:	6a 2f                	push   $0x2f
   102fe:	e9 3d fd ff ff       	jmp    10040 <isr_save>

00010303 <__isr_0x30>:
   10303:	6a 00                	push   $0x0
   10305:	6a 30                	push   $0x30
   10307:	e9 34 fd ff ff       	jmp    10040 <isr_save>

0001030c <__isr_0x31>:
   1030c:	6a 00                	push   $0x0
   1030e:	6a 31                	push   $0x31
   10310:	e9 2b fd ff ff       	jmp    10040 <isr_save>

00010315 <__isr_0x32>:
   10315:	6a 00                	push   $0x0
   10317:	6a 32                	push   $0x32
   10319:	e9 22 fd ff ff       	jmp    10040 <isr_save>

0001031e <__isr_0x33>:
   1031e:	6a 00                	push   $0x0
   10320:	6a 33                	push   $0x33
   10322:	e9 19 fd ff ff       	jmp    10040 <isr_save>

00010327 <__isr_0x34>:
   10327:	6a 00                	push   $0x0
   10329:	6a 34                	push   $0x34
   1032b:	e9 10 fd ff ff       	jmp    10040 <isr_save>

00010330 <__isr_0x35>:
   10330:	6a 00                	push   $0x0
   10332:	6a 35                	push   $0x35
   10334:	e9 07 fd ff ff       	jmp    10040 <isr_save>

00010339 <__isr_0x36>:
   10339:	6a 00                	push   $0x0
   1033b:	6a 36                	push   $0x36
   1033d:	e9 fe fc ff ff       	jmp    10040 <isr_save>

00010342 <__isr_0x37>:
   10342:	6a 00                	push   $0x0
   10344:	6a 37                	push   $0x37
   10346:	e9 f5 fc ff ff       	jmp    10040 <isr_save>

0001034b <__isr_0x38>:
   1034b:	6a 00                	push   $0x0
   1034d:	6a 38                	push   $0x38
   1034f:	e9 ec fc ff ff       	jmp    10040 <isr_save>

00010354 <__isr_0x39>:
   10354:	6a 00                	push   $0x0
   10356:	6a 39                	push   $0x39
   10358:	e9 e3 fc ff ff       	jmp    10040 <isr_save>

0001035d <__isr_0x3a>:
   1035d:	6a 00                	push   $0x0
   1035f:	6a 3a                	push   $0x3a
   10361:	e9 da fc ff ff       	jmp    10040 <isr_save>

00010366 <__isr_0x3b>:
   10366:	6a 00                	push   $0x0
   10368:	6a 3b                	push   $0x3b
   1036a:	e9 d1 fc ff ff       	jmp    10040 <isr_save>

0001036f <__isr_0x3c>:
   1036f:	6a 00                	push   $0x0
   10371:	6a 3c                	push   $0x3c
   10373:	e9 c8 fc ff ff       	jmp    10040 <isr_save>

00010378 <__isr_0x3d>:
   10378:	6a 00                	push   $0x0
   1037a:	6a 3d                	push   $0x3d
   1037c:	e9 bf fc ff ff       	jmp    10040 <isr_save>

00010381 <__isr_0x3e>:
   10381:	6a 00                	push   $0x0
   10383:	6a 3e                	push   $0x3e
   10385:	e9 b6 fc ff ff       	jmp    10040 <isr_save>

0001038a <__isr_0x3f>:
   1038a:	6a 00                	push   $0x0
   1038c:	6a 3f                	push   $0x3f
   1038e:	e9 ad fc ff ff       	jmp    10040 <isr_save>

00010393 <__isr_0x40>:
   10393:	6a 00                	push   $0x0
   10395:	6a 40                	push   $0x40
   10397:	e9 a4 fc ff ff       	jmp    10040 <isr_save>

0001039c <__isr_0x41>:
   1039c:	6a 00                	push   $0x0
   1039e:	6a 41                	push   $0x41
   103a0:	e9 9b fc ff ff       	jmp    10040 <isr_save>

000103a5 <__isr_0x42>:
   103a5:	6a 00                	push   $0x0
   103a7:	6a 42                	push   $0x42
   103a9:	e9 92 fc ff ff       	jmp    10040 <isr_save>

000103ae <__isr_0x43>:
   103ae:	6a 00                	push   $0x0
   103b0:	6a 43                	push   $0x43
   103b2:	e9 89 fc ff ff       	jmp    10040 <isr_save>

000103b7 <__isr_0x44>:
   103b7:	6a 00                	push   $0x0
   103b9:	6a 44                	push   $0x44
   103bb:	e9 80 fc ff ff       	jmp    10040 <isr_save>

000103c0 <__isr_0x45>:
   103c0:	6a 00                	push   $0x0
   103c2:	6a 45                	push   $0x45
   103c4:	e9 77 fc ff ff       	jmp    10040 <isr_save>

000103c9 <__isr_0x46>:
   103c9:	6a 00                	push   $0x0
   103cb:	6a 46                	push   $0x46
   103cd:	e9 6e fc ff ff       	jmp    10040 <isr_save>

000103d2 <__isr_0x47>:
   103d2:	6a 00                	push   $0x0
   103d4:	6a 47                	push   $0x47
   103d6:	e9 65 fc ff ff       	jmp    10040 <isr_save>

000103db <__isr_0x48>:
   103db:	6a 00                	push   $0x0
   103dd:	6a 48                	push   $0x48
   103df:	e9 5c fc ff ff       	jmp    10040 <isr_save>

000103e4 <__isr_0x49>:
   103e4:	6a 00                	push   $0x0
   103e6:	6a 49                	push   $0x49
   103e8:	e9 53 fc ff ff       	jmp    10040 <isr_save>

000103ed <__isr_0x4a>:
   103ed:	6a 00                	push   $0x0
   103ef:	6a 4a                	push   $0x4a
   103f1:	e9 4a fc ff ff       	jmp    10040 <isr_save>

000103f6 <__isr_0x4b>:
   103f6:	6a 00                	push   $0x0
   103f8:	6a 4b                	push   $0x4b
   103fa:	e9 41 fc ff ff       	jmp    10040 <isr_save>

000103ff <__isr_0x4c>:
   103ff:	6a 00                	push   $0x0
   10401:	6a 4c                	push   $0x4c
   10403:	e9 38 fc ff ff       	jmp    10040 <isr_save>

00010408 <__isr_0x4d>:
   10408:	6a 00                	push   $0x0
   1040a:	6a 4d                	push   $0x4d
   1040c:	e9 2f fc ff ff       	jmp    10040 <isr_save>

00010411 <__isr_0x4e>:
   10411:	6a 00                	push   $0x0
   10413:	6a 4e                	push   $0x4e
   10415:	e9 26 fc ff ff       	jmp    10040 <isr_save>

0001041a <__isr_0x4f>:
   1041a:	6a 00                	push   $0x0
   1041c:	6a 4f                	push   $0x4f
   1041e:	e9 1d fc ff ff       	jmp    10040 <isr_save>

00010423 <__isr_0x50>:
   10423:	6a 00                	push   $0x0
   10425:	6a 50                	push   $0x50
   10427:	e9 14 fc ff ff       	jmp    10040 <isr_save>

0001042c <__isr_0x51>:
   1042c:	6a 00                	push   $0x0
   1042e:	6a 51                	push   $0x51
   10430:	e9 0b fc ff ff       	jmp    10040 <isr_save>

00010435 <__isr_0x52>:
   10435:	6a 00                	push   $0x0
   10437:	6a 52                	push   $0x52
   10439:	e9 02 fc ff ff       	jmp    10040 <isr_save>

0001043e <__isr_0x53>:
   1043e:	6a 00                	push   $0x0
   10440:	6a 53                	push   $0x53
   10442:	e9 f9 fb ff ff       	jmp    10040 <isr_save>

00010447 <__isr_0x54>:
   10447:	6a 00                	push   $0x0
   10449:	6a 54                	push   $0x54
   1044b:	e9 f0 fb ff ff       	jmp    10040 <isr_save>

00010450 <__isr_0x55>:
   10450:	6a 00                	push   $0x0
   10452:	6a 55                	push   $0x55
   10454:	e9 e7 fb ff ff       	jmp    10040 <isr_save>

00010459 <__isr_0x56>:
   10459:	6a 00                	push   $0x0
   1045b:	6a 56                	push   $0x56
   1045d:	e9 de fb ff ff       	jmp    10040 <isr_save>

00010462 <__isr_0x57>:
   10462:	6a 00                	push   $0x0
   10464:	6a 57                	push   $0x57
   10466:	e9 d5 fb ff ff       	jmp    10040 <isr_save>

0001046b <__isr_0x58>:
   1046b:	6a 00                	push   $0x0
   1046d:	6a 58                	push   $0x58
   1046f:	e9 cc fb ff ff       	jmp    10040 <isr_save>

00010474 <__isr_0x59>:
   10474:	6a 00                	push   $0x0
   10476:	6a 59                	push   $0x59
   10478:	e9 c3 fb ff ff       	jmp    10040 <isr_save>

0001047d <__isr_0x5a>:
   1047d:	6a 00                	push   $0x0
   1047f:	6a 5a                	push   $0x5a
   10481:	e9 ba fb ff ff       	jmp    10040 <isr_save>

00010486 <__isr_0x5b>:
   10486:	6a 00                	push   $0x0
   10488:	6a 5b                	push   $0x5b
   1048a:	e9 b1 fb ff ff       	jmp    10040 <isr_save>

0001048f <__isr_0x5c>:
   1048f:	6a 00                	push   $0x0
   10491:	6a 5c                	push   $0x5c
   10493:	e9 a8 fb ff ff       	jmp    10040 <isr_save>

00010498 <__isr_0x5d>:
   10498:	6a 00                	push   $0x0
   1049a:	6a 5d                	push   $0x5d
   1049c:	e9 9f fb ff ff       	jmp    10040 <isr_save>

000104a1 <__isr_0x5e>:
   104a1:	6a 00                	push   $0x0
   104a3:	6a 5e                	push   $0x5e
   104a5:	e9 96 fb ff ff       	jmp    10040 <isr_save>

000104aa <__isr_0x5f>:
   104aa:	6a 00                	push   $0x0
   104ac:	6a 5f                	push   $0x5f
   104ae:	e9 8d fb ff ff       	jmp    10040 <isr_save>

000104b3 <__isr_0x60>:
   104b3:	6a 00                	push   $0x0
   104b5:	6a 60                	push   $0x60
   104b7:	e9 84 fb ff ff       	jmp    10040 <isr_save>

000104bc <__isr_0x61>:
   104bc:	6a 00                	push   $0x0
   104be:	6a 61                	push   $0x61
   104c0:	e9 7b fb ff ff       	jmp    10040 <isr_save>

000104c5 <__isr_0x62>:
   104c5:	6a 00                	push   $0x0
   104c7:	6a 62                	push   $0x62
   104c9:	e9 72 fb ff ff       	jmp    10040 <isr_save>

000104ce <__isr_0x63>:
   104ce:	6a 00                	push   $0x0
   104d0:	6a 63                	push   $0x63
   104d2:	e9 69 fb ff ff       	jmp    10040 <isr_save>

000104d7 <__isr_0x64>:
   104d7:	6a 00                	push   $0x0
   104d9:	6a 64                	push   $0x64
   104db:	e9 60 fb ff ff       	jmp    10040 <isr_save>

000104e0 <__isr_0x65>:
   104e0:	6a 00                	push   $0x0
   104e2:	6a 65                	push   $0x65
   104e4:	e9 57 fb ff ff       	jmp    10040 <isr_save>

000104e9 <__isr_0x66>:
   104e9:	6a 00                	push   $0x0
   104eb:	6a 66                	push   $0x66
   104ed:	e9 4e fb ff ff       	jmp    10040 <isr_save>

000104f2 <__isr_0x67>:
   104f2:	6a 00                	push   $0x0
   104f4:	6a 67                	push   $0x67
   104f6:	e9 45 fb ff ff       	jmp    10040 <isr_save>

000104fb <__isr_0x68>:
   104fb:	6a 00                	push   $0x0
   104fd:	6a 68                	push   $0x68
   104ff:	e9 3c fb ff ff       	jmp    10040 <isr_save>

00010504 <__isr_0x69>:
   10504:	6a 00                	push   $0x0
   10506:	6a 69                	push   $0x69
   10508:	e9 33 fb ff ff       	jmp    10040 <isr_save>

0001050d <__isr_0x6a>:
   1050d:	6a 00                	push   $0x0
   1050f:	6a 6a                	push   $0x6a
   10511:	e9 2a fb ff ff       	jmp    10040 <isr_save>

00010516 <__isr_0x6b>:
   10516:	6a 00                	push   $0x0
   10518:	6a 6b                	push   $0x6b
   1051a:	e9 21 fb ff ff       	jmp    10040 <isr_save>

0001051f <__isr_0x6c>:
   1051f:	6a 00                	push   $0x0
   10521:	6a 6c                	push   $0x6c
   10523:	e9 18 fb ff ff       	jmp    10040 <isr_save>

00010528 <__isr_0x6d>:
   10528:	6a 00                	push   $0x0
   1052a:	6a 6d                	push   $0x6d
   1052c:	e9 0f fb ff ff       	jmp    10040 <isr_save>

00010531 <__isr_0x6e>:
   10531:	6a 00                	push   $0x0
   10533:	6a 6e                	push   $0x6e
   10535:	e9 06 fb ff ff       	jmp    10040 <isr_save>

0001053a <__isr_0x6f>:
   1053a:	6a 00                	push   $0x0
   1053c:	6a 6f                	push   $0x6f
   1053e:	e9 fd fa ff ff       	jmp    10040 <isr_save>

00010543 <__isr_0x70>:
   10543:	6a 00                	push   $0x0
   10545:	6a 70                	push   $0x70
   10547:	e9 f4 fa ff ff       	jmp    10040 <isr_save>

0001054c <__isr_0x71>:
   1054c:	6a 00                	push   $0x0
   1054e:	6a 71                	push   $0x71
   10550:	e9 eb fa ff ff       	jmp    10040 <isr_save>

00010555 <__isr_0x72>:
   10555:	6a 00                	push   $0x0
   10557:	6a 72                	push   $0x72
   10559:	e9 e2 fa ff ff       	jmp    10040 <isr_save>

0001055e <__isr_0x73>:
   1055e:	6a 00                	push   $0x0
   10560:	6a 73                	push   $0x73
   10562:	e9 d9 fa ff ff       	jmp    10040 <isr_save>

00010567 <__isr_0x74>:
   10567:	6a 00                	push   $0x0
   10569:	6a 74                	push   $0x74
   1056b:	e9 d0 fa ff ff       	jmp    10040 <isr_save>

00010570 <__isr_0x75>:
   10570:	6a 00                	push   $0x0
   10572:	6a 75                	push   $0x75
   10574:	e9 c7 fa ff ff       	jmp    10040 <isr_save>

00010579 <__isr_0x76>:
   10579:	6a 00                	push   $0x0
   1057b:	6a 76                	push   $0x76
   1057d:	e9 be fa ff ff       	jmp    10040 <isr_save>

00010582 <__isr_0x77>:
   10582:	6a 00                	push   $0x0
   10584:	6a 77                	push   $0x77
   10586:	e9 b5 fa ff ff       	jmp    10040 <isr_save>

0001058b <__isr_0x78>:
   1058b:	6a 00                	push   $0x0
   1058d:	6a 78                	push   $0x78
   1058f:	e9 ac fa ff ff       	jmp    10040 <isr_save>

00010594 <__isr_0x79>:
   10594:	6a 00                	push   $0x0
   10596:	6a 79                	push   $0x79
   10598:	e9 a3 fa ff ff       	jmp    10040 <isr_save>

0001059d <__isr_0x7a>:
   1059d:	6a 00                	push   $0x0
   1059f:	6a 7a                	push   $0x7a
   105a1:	e9 9a fa ff ff       	jmp    10040 <isr_save>

000105a6 <__isr_0x7b>:
   105a6:	6a 00                	push   $0x0
   105a8:	6a 7b                	push   $0x7b
   105aa:	e9 91 fa ff ff       	jmp    10040 <isr_save>

000105af <__isr_0x7c>:
   105af:	6a 00                	push   $0x0
   105b1:	6a 7c                	push   $0x7c
   105b3:	e9 88 fa ff ff       	jmp    10040 <isr_save>

000105b8 <__isr_0x7d>:
   105b8:	6a 00                	push   $0x0
   105ba:	6a 7d                	push   $0x7d
   105bc:	e9 7f fa ff ff       	jmp    10040 <isr_save>

000105c1 <__isr_0x7e>:
   105c1:	6a 00                	push   $0x0
   105c3:	6a 7e                	push   $0x7e
   105c5:	e9 76 fa ff ff       	jmp    10040 <isr_save>

000105ca <__isr_0x7f>:
   105ca:	6a 00                	push   $0x0
   105cc:	6a 7f                	push   $0x7f
   105ce:	e9 6d fa ff ff       	jmp    10040 <isr_save>

000105d3 <__isr_0x80>:
   105d3:	6a 00                	push   $0x0
   105d5:	68 80 00 00 00       	push   $0x80
   105da:	e9 61 fa ff ff       	jmp    10040 <isr_save>

000105df <__isr_0x81>:
   105df:	6a 00                	push   $0x0
   105e1:	68 81 00 00 00       	push   $0x81
   105e6:	e9 55 fa ff ff       	jmp    10040 <isr_save>

000105eb <__isr_0x82>:
   105eb:	6a 00                	push   $0x0
   105ed:	68 82 00 00 00       	push   $0x82
   105f2:	e9 49 fa ff ff       	jmp    10040 <isr_save>

000105f7 <__isr_0x83>:
   105f7:	6a 00                	push   $0x0
   105f9:	68 83 00 00 00       	push   $0x83
   105fe:	e9 3d fa ff ff       	jmp    10040 <isr_save>

00010603 <__isr_0x84>:
   10603:	6a 00                	push   $0x0
   10605:	68 84 00 00 00       	push   $0x84
   1060a:	e9 31 fa ff ff       	jmp    10040 <isr_save>

0001060f <__isr_0x85>:
   1060f:	6a 00                	push   $0x0
   10611:	68 85 00 00 00       	push   $0x85
   10616:	e9 25 fa ff ff       	jmp    10040 <isr_save>

0001061b <__isr_0x86>:
   1061b:	6a 00                	push   $0x0
   1061d:	68 86 00 00 00       	push   $0x86
   10622:	e9 19 fa ff ff       	jmp    10040 <isr_save>

00010627 <__isr_0x87>:
   10627:	6a 00                	push   $0x0
   10629:	68 87 00 00 00       	push   $0x87
   1062e:	e9 0d fa ff ff       	jmp    10040 <isr_save>

00010633 <__isr_0x88>:
   10633:	6a 00                	push   $0x0
   10635:	68 88 00 00 00       	push   $0x88
   1063a:	e9 01 fa ff ff       	jmp    10040 <isr_save>

0001063f <__isr_0x89>:
   1063f:	6a 00                	push   $0x0
   10641:	68 89 00 00 00       	push   $0x89
   10646:	e9 f5 f9 ff ff       	jmp    10040 <isr_save>

0001064b <__isr_0x8a>:
   1064b:	6a 00                	push   $0x0
   1064d:	68 8a 00 00 00       	push   $0x8a
   10652:	e9 e9 f9 ff ff       	jmp    10040 <isr_save>

00010657 <__isr_0x8b>:
   10657:	6a 00                	push   $0x0
   10659:	68 8b 00 00 00       	push   $0x8b
   1065e:	e9 dd f9 ff ff       	jmp    10040 <isr_save>

00010663 <__isr_0x8c>:
   10663:	6a 00                	push   $0x0
   10665:	68 8c 00 00 00       	push   $0x8c
   1066a:	e9 d1 f9 ff ff       	jmp    10040 <isr_save>

0001066f <__isr_0x8d>:
   1066f:	6a 00                	push   $0x0
   10671:	68 8d 00 00 00       	push   $0x8d
   10676:	e9 c5 f9 ff ff       	jmp    10040 <isr_save>

0001067b <__isr_0x8e>:
   1067b:	6a 00                	push   $0x0
   1067d:	68 8e 00 00 00       	push   $0x8e
   10682:	e9 b9 f9 ff ff       	jmp    10040 <isr_save>

00010687 <__isr_0x8f>:
   10687:	6a 00                	push   $0x0
   10689:	68 8f 00 00 00       	push   $0x8f
   1068e:	e9 ad f9 ff ff       	jmp    10040 <isr_save>

00010693 <__isr_0x90>:
   10693:	6a 00                	push   $0x0
   10695:	68 90 00 00 00       	push   $0x90
   1069a:	e9 a1 f9 ff ff       	jmp    10040 <isr_save>

0001069f <__isr_0x91>:
   1069f:	6a 00                	push   $0x0
   106a1:	68 91 00 00 00       	push   $0x91
   106a6:	e9 95 f9 ff ff       	jmp    10040 <isr_save>

000106ab <__isr_0x92>:
   106ab:	6a 00                	push   $0x0
   106ad:	68 92 00 00 00       	push   $0x92
   106b2:	e9 89 f9 ff ff       	jmp    10040 <isr_save>

000106b7 <__isr_0x93>:
   106b7:	6a 00                	push   $0x0
   106b9:	68 93 00 00 00       	push   $0x93
   106be:	e9 7d f9 ff ff       	jmp    10040 <isr_save>

000106c3 <__isr_0x94>:
   106c3:	6a 00                	push   $0x0
   106c5:	68 94 00 00 00       	push   $0x94
   106ca:	e9 71 f9 ff ff       	jmp    10040 <isr_save>

000106cf <__isr_0x95>:
   106cf:	6a 00                	push   $0x0
   106d1:	68 95 00 00 00       	push   $0x95
   106d6:	e9 65 f9 ff ff       	jmp    10040 <isr_save>

000106db <__isr_0x96>:
   106db:	6a 00                	push   $0x0
   106dd:	68 96 00 00 00       	push   $0x96
   106e2:	e9 59 f9 ff ff       	jmp    10040 <isr_save>

000106e7 <__isr_0x97>:
   106e7:	6a 00                	push   $0x0
   106e9:	68 97 00 00 00       	push   $0x97
   106ee:	e9 4d f9 ff ff       	jmp    10040 <isr_save>

000106f3 <__isr_0x98>:
   106f3:	6a 00                	push   $0x0
   106f5:	68 98 00 00 00       	push   $0x98
   106fa:	e9 41 f9 ff ff       	jmp    10040 <isr_save>

000106ff <__isr_0x99>:
   106ff:	6a 00                	push   $0x0
   10701:	68 99 00 00 00       	push   $0x99
   10706:	e9 35 f9 ff ff       	jmp    10040 <isr_save>

0001070b <__isr_0x9a>:
   1070b:	6a 00                	push   $0x0
   1070d:	68 9a 00 00 00       	push   $0x9a
   10712:	e9 29 f9 ff ff       	jmp    10040 <isr_save>

00010717 <__isr_0x9b>:
   10717:	6a 00                	push   $0x0
   10719:	68 9b 00 00 00       	push   $0x9b
   1071e:	e9 1d f9 ff ff       	jmp    10040 <isr_save>

00010723 <__isr_0x9c>:
   10723:	6a 00                	push   $0x0
   10725:	68 9c 00 00 00       	push   $0x9c
   1072a:	e9 11 f9 ff ff       	jmp    10040 <isr_save>

0001072f <__isr_0x9d>:
   1072f:	6a 00                	push   $0x0
   10731:	68 9d 00 00 00       	push   $0x9d
   10736:	e9 05 f9 ff ff       	jmp    10040 <isr_save>

0001073b <__isr_0x9e>:
   1073b:	6a 00                	push   $0x0
   1073d:	68 9e 00 00 00       	push   $0x9e
   10742:	e9 f9 f8 ff ff       	jmp    10040 <isr_save>

00010747 <__isr_0x9f>:
   10747:	6a 00                	push   $0x0
   10749:	68 9f 00 00 00       	push   $0x9f
   1074e:	e9 ed f8 ff ff       	jmp    10040 <isr_save>

00010753 <__isr_0xa0>:
   10753:	6a 00                	push   $0x0
   10755:	68 a0 00 00 00       	push   $0xa0
   1075a:	e9 e1 f8 ff ff       	jmp    10040 <isr_save>

0001075f <__isr_0xa1>:
   1075f:	6a 00                	push   $0x0
   10761:	68 a1 00 00 00       	push   $0xa1
   10766:	e9 d5 f8 ff ff       	jmp    10040 <isr_save>

0001076b <__isr_0xa2>:
   1076b:	6a 00                	push   $0x0
   1076d:	68 a2 00 00 00       	push   $0xa2
   10772:	e9 c9 f8 ff ff       	jmp    10040 <isr_save>

00010777 <__isr_0xa3>:
   10777:	6a 00                	push   $0x0
   10779:	68 a3 00 00 00       	push   $0xa3
   1077e:	e9 bd f8 ff ff       	jmp    10040 <isr_save>

00010783 <__isr_0xa4>:
   10783:	6a 00                	push   $0x0
   10785:	68 a4 00 00 00       	push   $0xa4
   1078a:	e9 b1 f8 ff ff       	jmp    10040 <isr_save>

0001078f <__isr_0xa5>:
   1078f:	6a 00                	push   $0x0
   10791:	68 a5 00 00 00       	push   $0xa5
   10796:	e9 a5 f8 ff ff       	jmp    10040 <isr_save>

0001079b <__isr_0xa6>:
   1079b:	6a 00                	push   $0x0
   1079d:	68 a6 00 00 00       	push   $0xa6
   107a2:	e9 99 f8 ff ff       	jmp    10040 <isr_save>

000107a7 <__isr_0xa7>:
   107a7:	6a 00                	push   $0x0
   107a9:	68 a7 00 00 00       	push   $0xa7
   107ae:	e9 8d f8 ff ff       	jmp    10040 <isr_save>

000107b3 <__isr_0xa8>:
   107b3:	6a 00                	push   $0x0
   107b5:	68 a8 00 00 00       	push   $0xa8
   107ba:	e9 81 f8 ff ff       	jmp    10040 <isr_save>

000107bf <__isr_0xa9>:
   107bf:	6a 00                	push   $0x0
   107c1:	68 a9 00 00 00       	push   $0xa9
   107c6:	e9 75 f8 ff ff       	jmp    10040 <isr_save>

000107cb <__isr_0xaa>:
   107cb:	6a 00                	push   $0x0
   107cd:	68 aa 00 00 00       	push   $0xaa
   107d2:	e9 69 f8 ff ff       	jmp    10040 <isr_save>

000107d7 <__isr_0xab>:
   107d7:	6a 00                	push   $0x0
   107d9:	68 ab 00 00 00       	push   $0xab
   107de:	e9 5d f8 ff ff       	jmp    10040 <isr_save>

000107e3 <__isr_0xac>:
   107e3:	6a 00                	push   $0x0
   107e5:	68 ac 00 00 00       	push   $0xac
   107ea:	e9 51 f8 ff ff       	jmp    10040 <isr_save>

000107ef <__isr_0xad>:
   107ef:	6a 00                	push   $0x0
   107f1:	68 ad 00 00 00       	push   $0xad
   107f6:	e9 45 f8 ff ff       	jmp    10040 <isr_save>

000107fb <__isr_0xae>:
   107fb:	6a 00                	push   $0x0
   107fd:	68 ae 00 00 00       	push   $0xae
   10802:	e9 39 f8 ff ff       	jmp    10040 <isr_save>

00010807 <__isr_0xaf>:
   10807:	6a 00                	push   $0x0
   10809:	68 af 00 00 00       	push   $0xaf
   1080e:	e9 2d f8 ff ff       	jmp    10040 <isr_save>

00010813 <__isr_0xb0>:
   10813:	6a 00                	push   $0x0
   10815:	68 b0 00 00 00       	push   $0xb0
   1081a:	e9 21 f8 ff ff       	jmp    10040 <isr_save>

0001081f <__isr_0xb1>:
   1081f:	6a 00                	push   $0x0
   10821:	68 b1 00 00 00       	push   $0xb1
   10826:	e9 15 f8 ff ff       	jmp    10040 <isr_save>

0001082b <__isr_0xb2>:
   1082b:	6a 00                	push   $0x0
   1082d:	68 b2 00 00 00       	push   $0xb2
   10832:	e9 09 f8 ff ff       	jmp    10040 <isr_save>

00010837 <__isr_0xb3>:
   10837:	6a 00                	push   $0x0
   10839:	68 b3 00 00 00       	push   $0xb3
   1083e:	e9 fd f7 ff ff       	jmp    10040 <isr_save>

00010843 <__isr_0xb4>:
   10843:	6a 00                	push   $0x0
   10845:	68 b4 00 00 00       	push   $0xb4
   1084a:	e9 f1 f7 ff ff       	jmp    10040 <isr_save>

0001084f <__isr_0xb5>:
   1084f:	6a 00                	push   $0x0
   10851:	68 b5 00 00 00       	push   $0xb5
   10856:	e9 e5 f7 ff ff       	jmp    10040 <isr_save>

0001085b <__isr_0xb6>:
   1085b:	6a 00                	push   $0x0
   1085d:	68 b6 00 00 00       	push   $0xb6
   10862:	e9 d9 f7 ff ff       	jmp    10040 <isr_save>

00010867 <__isr_0xb7>:
   10867:	6a 00                	push   $0x0
   10869:	68 b7 00 00 00       	push   $0xb7
   1086e:	e9 cd f7 ff ff       	jmp    10040 <isr_save>

00010873 <__isr_0xb8>:
   10873:	6a 00                	push   $0x0
   10875:	68 b8 00 00 00       	push   $0xb8
   1087a:	e9 c1 f7 ff ff       	jmp    10040 <isr_save>

0001087f <__isr_0xb9>:
   1087f:	6a 00                	push   $0x0
   10881:	68 b9 00 00 00       	push   $0xb9
   10886:	e9 b5 f7 ff ff       	jmp    10040 <isr_save>

0001088b <__isr_0xba>:
   1088b:	6a 00                	push   $0x0
   1088d:	68 ba 00 00 00       	push   $0xba
   10892:	e9 a9 f7 ff ff       	jmp    10040 <isr_save>

00010897 <__isr_0xbb>:
   10897:	6a 00                	push   $0x0
   10899:	68 bb 00 00 00       	push   $0xbb
   1089e:	e9 9d f7 ff ff       	jmp    10040 <isr_save>

000108a3 <__isr_0xbc>:
   108a3:	6a 00                	push   $0x0
   108a5:	68 bc 00 00 00       	push   $0xbc
   108aa:	e9 91 f7 ff ff       	jmp    10040 <isr_save>

000108af <__isr_0xbd>:
   108af:	6a 00                	push   $0x0
   108b1:	68 bd 00 00 00       	push   $0xbd
   108b6:	e9 85 f7 ff ff       	jmp    10040 <isr_save>

000108bb <__isr_0xbe>:
   108bb:	6a 00                	push   $0x0
   108bd:	68 be 00 00 00       	push   $0xbe
   108c2:	e9 79 f7 ff ff       	jmp    10040 <isr_save>

000108c7 <__isr_0xbf>:
   108c7:	6a 00                	push   $0x0
   108c9:	68 bf 00 00 00       	push   $0xbf
   108ce:	e9 6d f7 ff ff       	jmp    10040 <isr_save>

000108d3 <__isr_0xc0>:
   108d3:	6a 00                	push   $0x0
   108d5:	68 c0 00 00 00       	push   $0xc0
   108da:	e9 61 f7 ff ff       	jmp    10040 <isr_save>

000108df <__isr_0xc1>:
   108df:	6a 00                	push   $0x0
   108e1:	68 c1 00 00 00       	push   $0xc1
   108e6:	e9 55 f7 ff ff       	jmp    10040 <isr_save>

000108eb <__isr_0xc2>:
   108eb:	6a 00                	push   $0x0
   108ed:	68 c2 00 00 00       	push   $0xc2
   108f2:	e9 49 f7 ff ff       	jmp    10040 <isr_save>

000108f7 <__isr_0xc3>:
   108f7:	6a 00                	push   $0x0
   108f9:	68 c3 00 00 00       	push   $0xc3
   108fe:	e9 3d f7 ff ff       	jmp    10040 <isr_save>

00010903 <__isr_0xc4>:
   10903:	6a 00                	push   $0x0
   10905:	68 c4 00 00 00       	push   $0xc4
   1090a:	e9 31 f7 ff ff       	jmp    10040 <isr_save>

0001090f <__isr_0xc5>:
   1090f:	6a 00                	push   $0x0
   10911:	68 c5 00 00 00       	push   $0xc5
   10916:	e9 25 f7 ff ff       	jmp    10040 <isr_save>

0001091b <__isr_0xc6>:
   1091b:	6a 00                	push   $0x0
   1091d:	68 c6 00 00 00       	push   $0xc6
   10922:	e9 19 f7 ff ff       	jmp    10040 <isr_save>

00010927 <__isr_0xc7>:
   10927:	6a 00                	push   $0x0
   10929:	68 c7 00 00 00       	push   $0xc7
   1092e:	e9 0d f7 ff ff       	jmp    10040 <isr_save>

00010933 <__isr_0xc8>:
   10933:	6a 00                	push   $0x0
   10935:	68 c8 00 00 00       	push   $0xc8
   1093a:	e9 01 f7 ff ff       	jmp    10040 <isr_save>

0001093f <__isr_0xc9>:
   1093f:	6a 00                	push   $0x0
   10941:	68 c9 00 00 00       	push   $0xc9
   10946:	e9 f5 f6 ff ff       	jmp    10040 <isr_save>

0001094b <__isr_0xca>:
   1094b:	6a 00                	push   $0x0
   1094d:	68 ca 00 00 00       	push   $0xca
   10952:	e9 e9 f6 ff ff       	jmp    10040 <isr_save>

00010957 <__isr_0xcb>:
   10957:	6a 00                	push   $0x0
   10959:	68 cb 00 00 00       	push   $0xcb
   1095e:	e9 dd f6 ff ff       	jmp    10040 <isr_save>

00010963 <__isr_0xcc>:
   10963:	6a 00                	push   $0x0
   10965:	68 cc 00 00 00       	push   $0xcc
   1096a:	e9 d1 f6 ff ff       	jmp    10040 <isr_save>

0001096f <__isr_0xcd>:
   1096f:	6a 00                	push   $0x0
   10971:	68 cd 00 00 00       	push   $0xcd
   10976:	e9 c5 f6 ff ff       	jmp    10040 <isr_save>

0001097b <__isr_0xce>:
   1097b:	6a 00                	push   $0x0
   1097d:	68 ce 00 00 00       	push   $0xce
   10982:	e9 b9 f6 ff ff       	jmp    10040 <isr_save>

00010987 <__isr_0xcf>:
   10987:	6a 00                	push   $0x0
   10989:	68 cf 00 00 00       	push   $0xcf
   1098e:	e9 ad f6 ff ff       	jmp    10040 <isr_save>

00010993 <__isr_0xd0>:
   10993:	6a 00                	push   $0x0
   10995:	68 d0 00 00 00       	push   $0xd0
   1099a:	e9 a1 f6 ff ff       	jmp    10040 <isr_save>

0001099f <__isr_0xd1>:
   1099f:	6a 00                	push   $0x0
   109a1:	68 d1 00 00 00       	push   $0xd1
   109a6:	e9 95 f6 ff ff       	jmp    10040 <isr_save>

000109ab <__isr_0xd2>:
   109ab:	6a 00                	push   $0x0
   109ad:	68 d2 00 00 00       	push   $0xd2
   109b2:	e9 89 f6 ff ff       	jmp    10040 <isr_save>

000109b7 <__isr_0xd3>:
   109b7:	6a 00                	push   $0x0
   109b9:	68 d3 00 00 00       	push   $0xd3
   109be:	e9 7d f6 ff ff       	jmp    10040 <isr_save>

000109c3 <__isr_0xd4>:
   109c3:	6a 00                	push   $0x0
   109c5:	68 d4 00 00 00       	push   $0xd4
   109ca:	e9 71 f6 ff ff       	jmp    10040 <isr_save>

000109cf <__isr_0xd5>:
   109cf:	6a 00                	push   $0x0
   109d1:	68 d5 00 00 00       	push   $0xd5
   109d6:	e9 65 f6 ff ff       	jmp    10040 <isr_save>

000109db <__isr_0xd6>:
   109db:	6a 00                	push   $0x0
   109dd:	68 d6 00 00 00       	push   $0xd6
   109e2:	e9 59 f6 ff ff       	jmp    10040 <isr_save>

000109e7 <__isr_0xd7>:
   109e7:	6a 00                	push   $0x0
   109e9:	68 d7 00 00 00       	push   $0xd7
   109ee:	e9 4d f6 ff ff       	jmp    10040 <isr_save>

000109f3 <__isr_0xd8>:
   109f3:	6a 00                	push   $0x0
   109f5:	68 d8 00 00 00       	push   $0xd8
   109fa:	e9 41 f6 ff ff       	jmp    10040 <isr_save>

000109ff <__isr_0xd9>:
   109ff:	6a 00                	push   $0x0
   10a01:	68 d9 00 00 00       	push   $0xd9
   10a06:	e9 35 f6 ff ff       	jmp    10040 <isr_save>

00010a0b <__isr_0xda>:
   10a0b:	6a 00                	push   $0x0
   10a0d:	68 da 00 00 00       	push   $0xda
   10a12:	e9 29 f6 ff ff       	jmp    10040 <isr_save>

00010a17 <__isr_0xdb>:
   10a17:	6a 00                	push   $0x0
   10a19:	68 db 00 00 00       	push   $0xdb
   10a1e:	e9 1d f6 ff ff       	jmp    10040 <isr_save>

00010a23 <__isr_0xdc>:
   10a23:	6a 00                	push   $0x0
   10a25:	68 dc 00 00 00       	push   $0xdc
   10a2a:	e9 11 f6 ff ff       	jmp    10040 <isr_save>

00010a2f <__isr_0xdd>:
   10a2f:	6a 00                	push   $0x0
   10a31:	68 dd 00 00 00       	push   $0xdd
   10a36:	e9 05 f6 ff ff       	jmp    10040 <isr_save>

00010a3b <__isr_0xde>:
   10a3b:	6a 00                	push   $0x0
   10a3d:	68 de 00 00 00       	push   $0xde
   10a42:	e9 f9 f5 ff ff       	jmp    10040 <isr_save>

00010a47 <__isr_0xdf>:
   10a47:	6a 00                	push   $0x0
   10a49:	68 df 00 00 00       	push   $0xdf
   10a4e:	e9 ed f5 ff ff       	jmp    10040 <isr_save>

00010a53 <__isr_0xe0>:
   10a53:	6a 00                	push   $0x0
   10a55:	68 e0 00 00 00       	push   $0xe0
   10a5a:	e9 e1 f5 ff ff       	jmp    10040 <isr_save>

00010a5f <__isr_0xe1>:
   10a5f:	6a 00                	push   $0x0
   10a61:	68 e1 00 00 00       	push   $0xe1
   10a66:	e9 d5 f5 ff ff       	jmp    10040 <isr_save>

00010a6b <__isr_0xe2>:
   10a6b:	6a 00                	push   $0x0
   10a6d:	68 e2 00 00 00       	push   $0xe2
   10a72:	e9 c9 f5 ff ff       	jmp    10040 <isr_save>

00010a77 <__isr_0xe3>:
   10a77:	6a 00                	push   $0x0
   10a79:	68 e3 00 00 00       	push   $0xe3
   10a7e:	e9 bd f5 ff ff       	jmp    10040 <isr_save>

00010a83 <__isr_0xe4>:
   10a83:	6a 00                	push   $0x0
   10a85:	68 e4 00 00 00       	push   $0xe4
   10a8a:	e9 b1 f5 ff ff       	jmp    10040 <isr_save>

00010a8f <__isr_0xe5>:
   10a8f:	6a 00                	push   $0x0
   10a91:	68 e5 00 00 00       	push   $0xe5
   10a96:	e9 a5 f5 ff ff       	jmp    10040 <isr_save>

00010a9b <__isr_0xe6>:
   10a9b:	6a 00                	push   $0x0
   10a9d:	68 e6 00 00 00       	push   $0xe6
   10aa2:	e9 99 f5 ff ff       	jmp    10040 <isr_save>

00010aa7 <__isr_0xe7>:
   10aa7:	6a 00                	push   $0x0
   10aa9:	68 e7 00 00 00       	push   $0xe7
   10aae:	e9 8d f5 ff ff       	jmp    10040 <isr_save>

00010ab3 <__isr_0xe8>:
   10ab3:	6a 00                	push   $0x0
   10ab5:	68 e8 00 00 00       	push   $0xe8
   10aba:	e9 81 f5 ff ff       	jmp    10040 <isr_save>

00010abf <__isr_0xe9>:
   10abf:	6a 00                	push   $0x0
   10ac1:	68 e9 00 00 00       	push   $0xe9
   10ac6:	e9 75 f5 ff ff       	jmp    10040 <isr_save>

00010acb <__isr_0xea>:
   10acb:	6a 00                	push   $0x0
   10acd:	68 ea 00 00 00       	push   $0xea
   10ad2:	e9 69 f5 ff ff       	jmp    10040 <isr_save>

00010ad7 <__isr_0xeb>:
   10ad7:	6a 00                	push   $0x0
   10ad9:	68 eb 00 00 00       	push   $0xeb
   10ade:	e9 5d f5 ff ff       	jmp    10040 <isr_save>

00010ae3 <__isr_0xec>:
   10ae3:	6a 00                	push   $0x0
   10ae5:	68 ec 00 00 00       	push   $0xec
   10aea:	e9 51 f5 ff ff       	jmp    10040 <isr_save>

00010aef <__isr_0xed>:
   10aef:	6a 00                	push   $0x0
   10af1:	68 ed 00 00 00       	push   $0xed
   10af6:	e9 45 f5 ff ff       	jmp    10040 <isr_save>

00010afb <__isr_0xee>:
   10afb:	6a 00                	push   $0x0
   10afd:	68 ee 00 00 00       	push   $0xee
   10b02:	e9 39 f5 ff ff       	jmp    10040 <isr_save>

00010b07 <__isr_0xef>:
   10b07:	6a 00                	push   $0x0
   10b09:	68 ef 00 00 00       	push   $0xef
   10b0e:	e9 2d f5 ff ff       	jmp    10040 <isr_save>

00010b13 <__isr_0xf0>:
   10b13:	6a 00                	push   $0x0
   10b15:	68 f0 00 00 00       	push   $0xf0
   10b1a:	e9 21 f5 ff ff       	jmp    10040 <isr_save>

00010b1f <__isr_0xf1>:
   10b1f:	6a 00                	push   $0x0
   10b21:	68 f1 00 00 00       	push   $0xf1
   10b26:	e9 15 f5 ff ff       	jmp    10040 <isr_save>

00010b2b <__isr_0xf2>:
   10b2b:	6a 00                	push   $0x0
   10b2d:	68 f2 00 00 00       	push   $0xf2
   10b32:	e9 09 f5 ff ff       	jmp    10040 <isr_save>

00010b37 <__isr_0xf3>:
   10b37:	6a 00                	push   $0x0
   10b39:	68 f3 00 00 00       	push   $0xf3
   10b3e:	e9 fd f4 ff ff       	jmp    10040 <isr_save>

00010b43 <__isr_0xf4>:
   10b43:	6a 00                	push   $0x0
   10b45:	68 f4 00 00 00       	push   $0xf4
   10b4a:	e9 f1 f4 ff ff       	jmp    10040 <isr_save>

00010b4f <__isr_0xf5>:
   10b4f:	6a 00                	push   $0x0
   10b51:	68 f5 00 00 00       	push   $0xf5
   10b56:	e9 e5 f4 ff ff       	jmp    10040 <isr_save>

00010b5b <__isr_0xf6>:
   10b5b:	6a 00                	push   $0x0
   10b5d:	68 f6 00 00 00       	push   $0xf6
   10b62:	e9 d9 f4 ff ff       	jmp    10040 <isr_save>

00010b67 <__isr_0xf7>:
   10b67:	6a 00                	push   $0x0
   10b69:	68 f7 00 00 00       	push   $0xf7
   10b6e:	e9 cd f4 ff ff       	jmp    10040 <isr_save>

00010b73 <__isr_0xf8>:
   10b73:	6a 00                	push   $0x0
   10b75:	68 f8 00 00 00       	push   $0xf8
   10b7a:	e9 c1 f4 ff ff       	jmp    10040 <isr_save>

00010b7f <__isr_0xf9>:
   10b7f:	6a 00                	push   $0x0
   10b81:	68 f9 00 00 00       	push   $0xf9
   10b86:	e9 b5 f4 ff ff       	jmp    10040 <isr_save>

00010b8b <__isr_0xfa>:
   10b8b:	6a 00                	push   $0x0
   10b8d:	68 fa 00 00 00       	push   $0xfa
   10b92:	e9 a9 f4 ff ff       	jmp    10040 <isr_save>

00010b97 <__isr_0xfb>:
   10b97:	6a 00                	push   $0x0
   10b99:	68 fb 00 00 00       	push   $0xfb
   10b9e:	e9 9d f4 ff ff       	jmp    10040 <isr_save>

00010ba3 <__isr_0xfc>:
   10ba3:	6a 00                	push   $0x0
   10ba5:	68 fc 00 00 00       	push   $0xfc
   10baa:	e9 91 f4 ff ff       	jmp    10040 <isr_save>

00010baf <__isr_0xfd>:
   10baf:	6a 00                	push   $0x0
   10bb1:	68 fd 00 00 00       	push   $0xfd
   10bb6:	e9 85 f4 ff ff       	jmp    10040 <isr_save>

00010bbb <__isr_0xfe>:
   10bbb:	6a 00                	push   $0x0
   10bbd:	68 fe 00 00 00       	push   $0xfe
   10bc2:	e9 79 f4 ff ff       	jmp    10040 <isr_save>

00010bc7 <__isr_0xff>:
   10bc7:	6a 00                	push   $0x0
   10bc9:	68 ff 00 00 00       	push   $0xff
   10bce:	e9 6d f4 ff ff       	jmp    10040 <isr_save>

00010bd3 <__c_setcursor>:
   10bd3:	55                   	push   %ebp
   10bd4:	89 e5                	mov    %esp,%ebp
   10bd6:	83 ec 18             	sub    $0x18,%esp
   10bd9:	a1 d0 b6 01 00       	mov    0x1b6d0,%eax
   10bde:	89 45 f4             	mov    %eax,-0xc(%ebp)
   10be1:	a1 c4 b6 01 00       	mov    0x1b6c4,%eax
   10be6:	39 45 f4             	cmp    %eax,-0xc(%ebp)
   10be9:	76 08                	jbe    10bf3 <__c_setcursor+0x20>
   10beb:	a1 c4 b6 01 00       	mov    0x1b6c4,%eax
   10bf0:	89 45 f4             	mov    %eax,-0xc(%ebp)
   10bf3:	8b 55 f4             	mov    -0xc(%ebp),%edx
   10bf6:	89 d0                	mov    %edx,%eax
   10bf8:	c1 e0 02             	shl    $0x2,%eax
   10bfb:	01 d0                	add    %edx,%eax
   10bfd:	c1 e0 04             	shl    $0x4,%eax
   10c00:	89 c2                	mov    %eax,%edx
   10c02:	a1 bc b6 01 00       	mov    0x1b6bc,%eax
   10c07:	01 d0                	add    %edx,%eax
   10c09:	89 45 f0             	mov    %eax,-0x10(%ebp)
   10c0c:	83 ec 08             	sub    $0x8,%esp
   10c0f:	6a 0e                	push   $0xe
   10c11:	68 d4 03 00 00       	push   $0x3d4
   10c16:	e8 b7 54 00 00       	call   160d2 <__outb>
   10c1b:	83 c4 10             	add    $0x10,%esp
   10c1e:	8b 45 f0             	mov    -0x10(%ebp),%eax
   10c21:	c1 e8 08             	shr    $0x8,%eax
   10c24:	0f b6 c0             	movzbl %al,%eax
   10c27:	83 ec 08             	sub    $0x8,%esp
   10c2a:	50                   	push   %eax
   10c2b:	68 d5 03 00 00       	push   $0x3d5
   10c30:	e8 9d 54 00 00       	call   160d2 <__outb>
   10c35:	83 c4 10             	add    $0x10,%esp
   10c38:	83 ec 08             	sub    $0x8,%esp
   10c3b:	6a 0f                	push   $0xf
   10c3d:	68 d4 03 00 00       	push   $0x3d4
   10c42:	e8 8b 54 00 00       	call   160d2 <__outb>
   10c47:	83 c4 10             	add    $0x10,%esp
   10c4a:	8b 45 f0             	mov    -0x10(%ebp),%eax
   10c4d:	0f b6 c0             	movzbl %al,%eax
   10c50:	83 ec 08             	sub    $0x8,%esp
   10c53:	50                   	push   %eax
   10c54:	68 d5 03 00 00       	push   $0x3d5
   10c59:	e8 74 54 00 00       	call   160d2 <__outb>
   10c5e:	83 c4 10             	add    $0x10,%esp
   10c61:	90                   	nop
   10c62:	c9                   	leave  
   10c63:	c3                   	ret    

00010c64 <__c_putchar_at>:
   10c64:	55                   	push   %ebp
   10c65:	89 e5                	mov    %esp,%ebp
   10c67:	83 ec 10             	sub    $0x10,%esp
   10c6a:	a1 b8 b6 01 00       	mov    0x1b6b8,%eax
   10c6f:	39 45 08             	cmp    %eax,0x8(%ebp)
   10c72:	77 4c                	ja     10cc0 <__c_putchar_at+0x5c>
   10c74:	a1 d4 b6 01 00       	mov    0x1b6d4,%eax
   10c79:	39 45 0c             	cmp    %eax,0xc(%ebp)
   10c7c:	77 42                	ja     10cc0 <__c_putchar_at+0x5c>
   10c7e:	8b 55 0c             	mov    0xc(%ebp),%edx
   10c81:	89 d0                	mov    %edx,%eax
   10c83:	c1 e0 02             	shl    $0x2,%eax
   10c86:	01 d0                	add    %edx,%eax
   10c88:	c1 e0 04             	shl    $0x4,%eax
   10c8b:	89 c2                	mov    %eax,%edx
   10c8d:	8b 45 08             	mov    0x8(%ebp),%eax
   10c90:	01 d0                	add    %edx,%eax
   10c92:	05 00 c0 05 00       	add    $0x5c000,%eax
   10c97:	01 c0                	add    %eax,%eax
   10c99:	89 45 fc             	mov    %eax,-0x4(%ebp)
   10c9c:	81 7d 10 ff 00 00 00 	cmpl   $0xff,0x10(%ebp)
   10ca3:	76 0d                	jbe    10cb2 <__c_putchar_at+0x4e>
   10ca5:	8b 45 10             	mov    0x10(%ebp),%eax
   10ca8:	89 c2                	mov    %eax,%edx
   10caa:	8b 45 fc             	mov    -0x4(%ebp),%eax
   10cad:	66 89 10             	mov    %dx,(%eax)
   10cb0:	eb 0e                	jmp    10cc0 <__c_putchar_at+0x5c>
   10cb2:	8b 45 10             	mov    0x10(%ebp),%eax
   10cb5:	80 cc 07             	or     $0x7,%ah
   10cb8:	89 c2                	mov    %eax,%edx
   10cba:	8b 45 fc             	mov    -0x4(%ebp),%eax
   10cbd:	66 89 10             	mov    %dx,(%eax)
   10cc0:	90                   	nop
   10cc1:	c9                   	leave  
   10cc2:	c3                   	ret    

00010cc3 <__cio_setscroll>:
   10cc3:	55                   	push   %ebp
   10cc4:	89 e5                	mov    %esp,%ebp
   10cc6:	83 ec 08             	sub    $0x8,%esp
   10cc9:	8b 15 b8 b6 01 00    	mov    0x1b6b8,%edx
   10ccf:	a1 cc b6 01 00       	mov    0x1b6cc,%eax
   10cd4:	83 ec 04             	sub    $0x4,%esp
   10cd7:	52                   	push   %edx
   10cd8:	ff 75 08             	pushl  0x8(%ebp)
   10cdb:	50                   	push   %eax
   10cdc:	e8 3d 15 00 00       	call   1221e <__bound>
   10ce1:	83 c4 10             	add    $0x10,%esp
   10ce4:	a3 d8 b6 01 00       	mov    %eax,0x1b6d8
   10ce9:	8b 15 d4 b6 01 00    	mov    0x1b6d4,%edx
   10cef:	a1 c0 b6 01 00       	mov    0x1b6c0,%eax
   10cf4:	83 ec 04             	sub    $0x4,%esp
   10cf7:	52                   	push   %edx
   10cf8:	ff 75 0c             	pushl  0xc(%ebp)
   10cfb:	50                   	push   %eax
   10cfc:	e8 1d 15 00 00       	call   1221e <__bound>
   10d01:	83 c4 10             	add    $0x10,%esp
   10d04:	a3 c8 b6 01 00       	mov    %eax,0x1b6c8
   10d09:	8b 15 b8 b6 01 00    	mov    0x1b6b8,%edx
   10d0f:	a1 d8 b6 01 00       	mov    0x1b6d8,%eax
   10d14:	83 ec 04             	sub    $0x4,%esp
   10d17:	52                   	push   %edx
   10d18:	ff 75 10             	pushl  0x10(%ebp)
   10d1b:	50                   	push   %eax
   10d1c:	e8 fd 14 00 00       	call   1221e <__bound>
   10d21:	83 c4 10             	add    $0x10,%esp
   10d24:	a3 b4 b6 01 00       	mov    %eax,0x1b6b4
   10d29:	8b 15 d4 b6 01 00    	mov    0x1b6d4,%edx
   10d2f:	a1 c8 b6 01 00       	mov    0x1b6c8,%eax
   10d34:	83 ec 04             	sub    $0x4,%esp
   10d37:	52                   	push   %edx
   10d38:	ff 75 14             	pushl  0x14(%ebp)
   10d3b:	50                   	push   %eax
   10d3c:	e8 dd 14 00 00       	call   1221e <__bound>
   10d41:	83 c4 10             	add    $0x10,%esp
   10d44:	a3 c4 b6 01 00       	mov    %eax,0x1b6c4
   10d49:	a1 d8 b6 01 00       	mov    0x1b6d8,%eax
   10d4e:	a3 bc b6 01 00       	mov    %eax,0x1b6bc
   10d53:	a1 c8 b6 01 00       	mov    0x1b6c8,%eax
   10d58:	a3 d0 b6 01 00       	mov    %eax,0x1b6d0
   10d5d:	e8 71 fe ff ff       	call   10bd3 <__c_setcursor>
   10d62:	90                   	nop
   10d63:	c9                   	leave  
   10d64:	c3                   	ret    

00010d65 <__cio_moveto>:
   10d65:	55                   	push   %ebp
   10d66:	89 e5                	mov    %esp,%ebp
   10d68:	83 ec 08             	sub    $0x8,%esp
   10d6b:	8b 15 b4 b6 01 00    	mov    0x1b6b4,%edx
   10d71:	8b 0d d8 b6 01 00    	mov    0x1b6d8,%ecx
   10d77:	8b 45 08             	mov    0x8(%ebp),%eax
   10d7a:	01 c1                	add    %eax,%ecx
   10d7c:	a1 d8 b6 01 00       	mov    0x1b6d8,%eax
   10d81:	83 ec 04             	sub    $0x4,%esp
   10d84:	52                   	push   %edx
   10d85:	51                   	push   %ecx
   10d86:	50                   	push   %eax
   10d87:	e8 92 14 00 00       	call   1221e <__bound>
   10d8c:	83 c4 10             	add    $0x10,%esp
   10d8f:	a3 bc b6 01 00       	mov    %eax,0x1b6bc
   10d94:	8b 15 c4 b6 01 00    	mov    0x1b6c4,%edx
   10d9a:	8b 0d c8 b6 01 00    	mov    0x1b6c8,%ecx
   10da0:	8b 45 0c             	mov    0xc(%ebp),%eax
   10da3:	01 c1                	add    %eax,%ecx
   10da5:	a1 c8 b6 01 00       	mov    0x1b6c8,%eax
   10daa:	83 ec 04             	sub    $0x4,%esp
   10dad:	52                   	push   %edx
   10dae:	51                   	push   %ecx
   10daf:	50                   	push   %eax
   10db0:	e8 69 14 00 00       	call   1221e <__bound>
   10db5:	83 c4 10             	add    $0x10,%esp
   10db8:	a3 d0 b6 01 00       	mov    %eax,0x1b6d0
   10dbd:	e8 11 fe ff ff       	call   10bd3 <__c_setcursor>
   10dc2:	90                   	nop
   10dc3:	c9                   	leave  
   10dc4:	c3                   	ret    

00010dc5 <__cio_putchar_at>:
   10dc5:	55                   	push   %ebp
   10dc6:	89 e5                	mov    %esp,%ebp
   10dc8:	83 ec 10             	sub    $0x10,%esp
   10dcb:	8b 45 10             	mov    0x10(%ebp),%eax
   10dce:	83 e0 7f             	and    $0x7f,%eax
   10dd1:	83 f8 0a             	cmp    $0xa,%eax
   10dd4:	75 53                	jne    10e29 <__cio_putchar_at+0x64>
   10dd6:	a1 b4 b6 01 00       	mov    0x1b6b4,%eax
   10ddb:	39 45 08             	cmp    %eax,0x8(%ebp)
   10dde:	76 0a                	jbe    10dea <__cio_putchar_at+0x25>
   10de0:	a1 b8 b6 01 00       	mov    0x1b6b8,%eax
   10de5:	89 45 fc             	mov    %eax,-0x4(%ebp)
   10de8:	eb 35                	jmp    10e1f <__cio_putchar_at+0x5a>
   10dea:	a1 d8 b6 01 00       	mov    0x1b6d8,%eax
   10def:	39 45 08             	cmp    %eax,0x8(%ebp)
   10df2:	72 0a                	jb     10dfe <__cio_putchar_at+0x39>
   10df4:	a1 b4 b6 01 00       	mov    0x1b6b4,%eax
   10df9:	89 45 fc             	mov    %eax,-0x4(%ebp)
   10dfc:	eb 21                	jmp    10e1f <__cio_putchar_at+0x5a>
   10dfe:	a1 d8 b6 01 00       	mov    0x1b6d8,%eax
   10e03:	83 e8 01             	sub    $0x1,%eax
   10e06:	89 45 fc             	mov    %eax,-0x4(%ebp)
   10e09:	eb 14                	jmp    10e1f <__cio_putchar_at+0x5a>
   10e0b:	6a 20                	push   $0x20
   10e0d:	ff 75 0c             	pushl  0xc(%ebp)
   10e10:	ff 75 08             	pushl  0x8(%ebp)
   10e13:	e8 4c fe ff ff       	call   10c64 <__c_putchar_at>
   10e18:	83 c4 0c             	add    $0xc,%esp
   10e1b:	83 45 08 01          	addl   $0x1,0x8(%ebp)
   10e1f:	8b 45 08             	mov    0x8(%ebp),%eax
   10e22:	3b 45 fc             	cmp    -0x4(%ebp),%eax
   10e25:	76 e4                	jbe    10e0b <__cio_putchar_at+0x46>
   10e27:	eb 11                	jmp    10e3a <__cio_putchar_at+0x75>
   10e29:	ff 75 10             	pushl  0x10(%ebp)
   10e2c:	ff 75 0c             	pushl  0xc(%ebp)
   10e2f:	ff 75 08             	pushl  0x8(%ebp)
   10e32:	e8 2d fe ff ff       	call   10c64 <__c_putchar_at>
   10e37:	83 c4 0c             	add    $0xc,%esp
   10e3a:	90                   	nop
   10e3b:	c9                   	leave  
   10e3c:	c3                   	ret    

00010e3d <__cio_putchar>:
   10e3d:	55                   	push   %ebp
   10e3e:	89 e5                	mov    %esp,%ebp
   10e40:	83 ec 08             	sub    $0x8,%esp
   10e43:	8b 15 d0 b6 01 00    	mov    0x1b6d0,%edx
   10e49:	a1 c4 b6 01 00       	mov    0x1b6c4,%eax
   10e4e:	39 c2                	cmp    %eax,%edx
   10e50:	76 25                	jbe    10e77 <__cio_putchar+0x3a>
   10e52:	8b 15 d0 b6 01 00    	mov    0x1b6d0,%edx
   10e58:	a1 c4 b6 01 00       	mov    0x1b6c4,%eax
   10e5d:	29 c2                	sub    %eax,%edx
   10e5f:	89 d0                	mov    %edx,%eax
   10e61:	83 ec 0c             	sub    $0xc,%esp
   10e64:	50                   	push   %eax
   10e65:	e8 65 02 00 00       	call   110cf <__cio_scroll>
   10e6a:	83 c4 10             	add    $0x10,%esp
   10e6d:	a1 c4 b6 01 00       	mov    0x1b6c4,%eax
   10e72:	a3 d0 b6 01 00       	mov    %eax,0x1b6d0
   10e77:	8b 45 08             	mov    0x8(%ebp),%eax
   10e7a:	0f b6 c0             	movzbl %al,%eax
   10e7d:	83 f8 0a             	cmp    $0xa,%eax
   10e80:	74 2e                	je     10eb0 <__cio_putchar+0x73>
   10e82:	83 f8 0d             	cmp    $0xd,%eax
   10e85:	74 51                	je     10ed8 <__cio_putchar+0x9b>
   10e87:	eb 5b                	jmp    10ee4 <__cio_putchar+0xa7>
   10e89:	8b 15 d0 b6 01 00    	mov    0x1b6d0,%edx
   10e8f:	a1 bc b6 01 00       	mov    0x1b6bc,%eax
   10e94:	83 ec 04             	sub    $0x4,%esp
   10e97:	6a 20                	push   $0x20
   10e99:	52                   	push   %edx
   10e9a:	50                   	push   %eax
   10e9b:	e8 c4 fd ff ff       	call   10c64 <__c_putchar_at>
   10ea0:	83 c4 10             	add    $0x10,%esp
   10ea3:	a1 bc b6 01 00       	mov    0x1b6bc,%eax
   10ea8:	83 c0 01             	add    $0x1,%eax
   10eab:	a3 bc b6 01 00       	mov    %eax,0x1b6bc
   10eb0:	8b 15 bc b6 01 00    	mov    0x1b6bc,%edx
   10eb6:	a1 b4 b6 01 00       	mov    0x1b6b4,%eax
   10ebb:	39 c2                	cmp    %eax,%edx
   10ebd:	76 ca                	jbe    10e89 <__cio_putchar+0x4c>
   10ebf:	a1 d8 b6 01 00       	mov    0x1b6d8,%eax
   10ec4:	a3 bc b6 01 00       	mov    %eax,0x1b6bc
   10ec9:	a1 d0 b6 01 00       	mov    0x1b6d0,%eax
   10ece:	83 c0 01             	add    $0x1,%eax
   10ed1:	a3 d0 b6 01 00       	mov    %eax,0x1b6d0
   10ed6:	eb 5b                	jmp    10f33 <__cio_putchar+0xf6>
   10ed8:	a1 d8 b6 01 00       	mov    0x1b6d8,%eax
   10edd:	a3 bc b6 01 00       	mov    %eax,0x1b6bc
   10ee2:	eb 4f                	jmp    10f33 <__cio_putchar+0xf6>
   10ee4:	8b 15 d0 b6 01 00    	mov    0x1b6d0,%edx
   10eea:	a1 bc b6 01 00       	mov    0x1b6bc,%eax
   10eef:	83 ec 04             	sub    $0x4,%esp
   10ef2:	ff 75 08             	pushl  0x8(%ebp)
   10ef5:	52                   	push   %edx
   10ef6:	50                   	push   %eax
   10ef7:	e8 68 fd ff ff       	call   10c64 <__c_putchar_at>
   10efc:	83 c4 10             	add    $0x10,%esp
   10eff:	a1 bc b6 01 00       	mov    0x1b6bc,%eax
   10f04:	83 c0 01             	add    $0x1,%eax
   10f07:	a3 bc b6 01 00       	mov    %eax,0x1b6bc
   10f0c:	8b 15 bc b6 01 00    	mov    0x1b6bc,%edx
   10f12:	a1 b4 b6 01 00       	mov    0x1b6b4,%eax
   10f17:	39 c2                	cmp    %eax,%edx
   10f19:	76 17                	jbe    10f32 <__cio_putchar+0xf5>
   10f1b:	a1 d8 b6 01 00       	mov    0x1b6d8,%eax
   10f20:	a3 bc b6 01 00       	mov    %eax,0x1b6bc
   10f25:	a1 d0 b6 01 00       	mov    0x1b6d0,%eax
   10f2a:	83 c0 01             	add    $0x1,%eax
   10f2d:	a3 d0 b6 01 00       	mov    %eax,0x1b6d0
   10f32:	90                   	nop
   10f33:	e8 9b fc ff ff       	call   10bd3 <__c_setcursor>
   10f38:	90                   	nop
   10f39:	c9                   	leave  
   10f3a:	c3                   	ret    

00010f3b <__cio_puts_at>:
   10f3b:	55                   	push   %ebp
   10f3c:	89 e5                	mov    %esp,%ebp
   10f3e:	83 ec 10             	sub    $0x10,%esp
   10f41:	eb 15                	jmp    10f58 <__cio_puts_at+0x1d>
   10f43:	ff 75 fc             	pushl  -0x4(%ebp)
   10f46:	ff 75 0c             	pushl  0xc(%ebp)
   10f49:	ff 75 08             	pushl  0x8(%ebp)
   10f4c:	e8 74 fe ff ff       	call   10dc5 <__cio_putchar_at>
   10f51:	83 c4 0c             	add    $0xc,%esp
   10f54:	83 45 08 01          	addl   $0x1,0x8(%ebp)
   10f58:	8b 45 10             	mov    0x10(%ebp),%eax
   10f5b:	8d 50 01             	lea    0x1(%eax),%edx
   10f5e:	89 55 10             	mov    %edx,0x10(%ebp)
   10f61:	0f b6 00             	movzbl (%eax),%eax
   10f64:	0f be c0             	movsbl %al,%eax
   10f67:	89 45 fc             	mov    %eax,-0x4(%ebp)
   10f6a:	83 7d fc 00          	cmpl   $0x0,-0x4(%ebp)
   10f6e:	74 0a                	je     10f7a <__cio_puts_at+0x3f>
   10f70:	a1 b8 b6 01 00       	mov    0x1b6b8,%eax
   10f75:	39 45 08             	cmp    %eax,0x8(%ebp)
   10f78:	76 c9                	jbe    10f43 <__cio_puts_at+0x8>
   10f7a:	90                   	nop
   10f7b:	c9                   	leave  
   10f7c:	c3                   	ret    

00010f7d <__cio_puts>:
   10f7d:	55                   	push   %ebp
   10f7e:	89 e5                	mov    %esp,%ebp
   10f80:	83 ec 18             	sub    $0x18,%esp
   10f83:	eb 0e                	jmp    10f93 <__cio_puts+0x16>
   10f85:	83 ec 0c             	sub    $0xc,%esp
   10f88:	ff 75 f4             	pushl  -0xc(%ebp)
   10f8b:	e8 ad fe ff ff       	call   10e3d <__cio_putchar>
   10f90:	83 c4 10             	add    $0x10,%esp
   10f93:	8b 45 08             	mov    0x8(%ebp),%eax
   10f96:	8d 50 01             	lea    0x1(%eax),%edx
   10f99:	89 55 08             	mov    %edx,0x8(%ebp)
   10f9c:	0f b6 00             	movzbl (%eax),%eax
   10f9f:	0f be c0             	movsbl %al,%eax
   10fa2:	89 45 f4             	mov    %eax,-0xc(%ebp)
   10fa5:	83 7d f4 00          	cmpl   $0x0,-0xc(%ebp)
   10fa9:	75 da                	jne    10f85 <__cio_puts+0x8>
   10fab:	90                   	nop
   10fac:	c9                   	leave  
   10fad:	c3                   	ret    

00010fae <__cio_write>:
   10fae:	55                   	push   %ebp
   10faf:	89 e5                	mov    %esp,%ebp
   10fb1:	83 ec 18             	sub    $0x18,%esp
   10fb4:	c7 45 f4 00 00 00 00 	movl   $0x0,-0xc(%ebp)
   10fbb:	eb 1e                	jmp    10fdb <__cio_write+0x2d>
   10fbd:	8b 55 f4             	mov    -0xc(%ebp),%edx
   10fc0:	8b 45 08             	mov    0x8(%ebp),%eax
   10fc3:	01 d0                	add    %edx,%eax
   10fc5:	0f b6 00             	movzbl (%eax),%eax
   10fc8:	0f be c0             	movsbl %al,%eax
   10fcb:	83 ec 0c             	sub    $0xc,%esp
   10fce:	50                   	push   %eax
   10fcf:	e8 69 fe ff ff       	call   10e3d <__cio_putchar>
   10fd4:	83 c4 10             	add    $0x10,%esp
   10fd7:	83 45 f4 01          	addl   $0x1,-0xc(%ebp)
   10fdb:	8b 45 f4             	mov    -0xc(%ebp),%eax
   10fde:	3b 45 0c             	cmp    0xc(%ebp),%eax
   10fe1:	7c da                	jl     10fbd <__cio_write+0xf>
   10fe3:	90                   	nop
   10fe4:	c9                   	leave  
   10fe5:	c3                   	ret    

00010fe6 <__cio_clearscroll>:
   10fe6:	55                   	push   %ebp
   10fe7:	89 e5                	mov    %esp,%ebp
   10fe9:	83 ec 10             	sub    $0x10,%esp
   10fec:	8b 15 b4 b6 01 00    	mov    0x1b6b4,%edx
   10ff2:	a1 d8 b6 01 00       	mov    0x1b6d8,%eax
   10ff7:	29 c2                	sub    %eax,%edx
   10ff9:	89 d0                	mov    %edx,%eax
   10ffb:	83 c0 01             	add    $0x1,%eax
   10ffe:	89 45 f0             	mov    %eax,-0x10(%ebp)
   11001:	a1 c8 b6 01 00       	mov    0x1b6c8,%eax
   11006:	89 45 fc             	mov    %eax,-0x4(%ebp)
   11009:	eb 47                	jmp    11052 <__cio_clearscroll+0x6c>
   1100b:	8b 55 fc             	mov    -0x4(%ebp),%edx
   1100e:	89 d0                	mov    %edx,%eax
   11010:	c1 e0 02             	shl    $0x2,%eax
   11013:	01 d0                	add    %edx,%eax
   11015:	c1 e0 04             	shl    $0x4,%eax
   11018:	89 c2                	mov    %eax,%edx
   1101a:	a1 d8 b6 01 00       	mov    0x1b6d8,%eax
   1101f:	01 d0                	add    %edx,%eax
   11021:	05 00 c0 05 00       	add    $0x5c000,%eax
   11026:	01 c0                	add    %eax,%eax
   11028:	89 45 f4             	mov    %eax,-0xc(%ebp)
   1102b:	c7 45 f8 00 00 00 00 	movl   $0x0,-0x8(%ebp)
   11032:	eb 12                	jmp    11046 <__cio_clearscroll+0x60>
   11034:	8b 45 f4             	mov    -0xc(%ebp),%eax
   11037:	8d 50 02             	lea    0x2(%eax),%edx
   1103a:	89 55 f4             	mov    %edx,-0xc(%ebp)
   1103d:	66 c7 00 20 07       	movw   $0x720,(%eax)
   11042:	83 45 f8 01          	addl   $0x1,-0x8(%ebp)
   11046:	8b 45 f8             	mov    -0x8(%ebp),%eax
   11049:	3b 45 f0             	cmp    -0x10(%ebp),%eax
   1104c:	72 e6                	jb     11034 <__cio_clearscroll+0x4e>
   1104e:	83 45 fc 01          	addl   $0x1,-0x4(%ebp)
   11052:	a1 c4 b6 01 00       	mov    0x1b6c4,%eax
   11057:	39 45 fc             	cmp    %eax,-0x4(%ebp)
   1105a:	76 af                	jbe    1100b <__cio_clearscroll+0x25>
   1105c:	90                   	nop
   1105d:	c9                   	leave  
   1105e:	c3                   	ret    

0001105f <__cio_clearscreen>:
   1105f:	55                   	push   %ebp
   11060:	89 e5                	mov    %esp,%ebp
   11062:	83 ec 10             	sub    $0x10,%esp
   11065:	8b 15 c0 b6 01 00    	mov    0x1b6c0,%edx
   1106b:	89 d0                	mov    %edx,%eax
   1106d:	c1 e0 02             	shl    $0x2,%eax
   11070:	01 d0                	add    %edx,%eax
   11072:	c1 e0 04             	shl    $0x4,%eax
   11075:	89 c2                	mov    %eax,%edx
   11077:	a1 cc b6 01 00       	mov    0x1b6cc,%eax
   1107c:	01 d0                	add    %edx,%eax
   1107e:	05 00 c0 05 00       	add    $0x5c000,%eax
   11083:	01 c0                	add    %eax,%eax
   11085:	89 45 fc             	mov    %eax,-0x4(%ebp)
   11088:	8b 15 d4 b6 01 00    	mov    0x1b6d4,%edx
   1108e:	a1 c0 b6 01 00       	mov    0x1b6c0,%eax
   11093:	29 c2                	sub    %eax,%edx
   11095:	89 d0                	mov    %edx,%eax
   11097:	8d 48 01             	lea    0x1(%eax),%ecx
   1109a:	8b 15 b8 b6 01 00    	mov    0x1b6b8,%edx
   110a0:	a1 cc b6 01 00       	mov    0x1b6cc,%eax
   110a5:	29 c2                	sub    %eax,%edx
   110a7:	89 d0                	mov    %edx,%eax
   110a9:	83 c0 01             	add    $0x1,%eax
   110ac:	0f af c1             	imul   %ecx,%eax
   110af:	89 45 f8             	mov    %eax,-0x8(%ebp)
   110b2:	eb 12                	jmp    110c6 <__cio_clearscreen+0x67>
   110b4:	8b 45 fc             	mov    -0x4(%ebp),%eax
   110b7:	8d 50 02             	lea    0x2(%eax),%edx
   110ba:	89 55 fc             	mov    %edx,-0x4(%ebp)
   110bd:	66 c7 00 20 07       	movw   $0x720,(%eax)
   110c2:	83 6d f8 01          	subl   $0x1,-0x8(%ebp)
   110c6:	83 7d f8 00          	cmpl   $0x0,-0x8(%ebp)
   110ca:	75 e8                	jne    110b4 <__cio_clearscreen+0x55>
   110cc:	90                   	nop
   110cd:	c9                   	leave  
   110ce:	c3                   	ret    

000110cf <__cio_scroll>:
   110cf:	55                   	push   %ebp
   110d0:	89 e5                	mov    %esp,%ebp
   110d2:	83 ec 28             	sub    $0x28,%esp
   110d5:	8b 15 b4 b6 01 00    	mov    0x1b6b4,%edx
   110db:	a1 d8 b6 01 00       	mov    0x1b6d8,%eax
   110e0:	29 c2                	sub    %eax,%edx
   110e2:	89 d0                	mov    %edx,%eax
   110e4:	83 c0 01             	add    $0x1,%eax
   110e7:	89 45 e4             	mov    %eax,-0x1c(%ebp)
   110ea:	8b 15 c4 b6 01 00    	mov    0x1b6c4,%edx
   110f0:	a1 c8 b6 01 00       	mov    0x1b6c8,%eax
   110f5:	29 c2                	sub    %eax,%edx
   110f7:	89 d0                	mov    %edx,%eax
   110f9:	39 45 08             	cmp    %eax,0x8(%ebp)
   110fc:	76 23                	jbe    11121 <__cio_scroll+0x52>
   110fe:	e8 e3 fe ff ff       	call   10fe6 <__cio_clearscroll>
   11103:	a1 d8 b6 01 00       	mov    0x1b6d8,%eax
   11108:	a3 bc b6 01 00       	mov    %eax,0x1b6bc
   1110d:	a1 c8 b6 01 00       	mov    0x1b6c8,%eax
   11112:	a3 d0 b6 01 00       	mov    %eax,0x1b6d0
   11117:	e8 b7 fa ff ff       	call   10bd3 <__c_setcursor>
   1111c:	e9 ea 00 00 00       	jmp    1120b <__cio_scroll+0x13c>
   11121:	a1 c8 b6 01 00       	mov    0x1b6c8,%eax
   11126:	89 45 ec             	mov    %eax,-0x14(%ebp)
   11129:	eb 76                	jmp    111a1 <__cio_scroll+0xd2>
   1112b:	8b 55 ec             	mov    -0x14(%ebp),%edx
   1112e:	8b 45 08             	mov    0x8(%ebp),%eax
   11131:	01 c2                	add    %eax,%edx
   11133:	89 d0                	mov    %edx,%eax
   11135:	c1 e0 02             	shl    $0x2,%eax
   11138:	01 d0                	add    %edx,%eax
   1113a:	c1 e0 04             	shl    $0x4,%eax
   1113d:	89 c2                	mov    %eax,%edx
   1113f:	a1 d8 b6 01 00       	mov    0x1b6d8,%eax
   11144:	01 d0                	add    %edx,%eax
   11146:	05 00 c0 05 00       	add    $0x5c000,%eax
   1114b:	01 c0                	add    %eax,%eax
   1114d:	89 45 f4             	mov    %eax,-0xc(%ebp)
   11150:	8b 55 ec             	mov    -0x14(%ebp),%edx
   11153:	89 d0                	mov    %edx,%eax
   11155:	c1 e0 02             	shl    $0x2,%eax
   11158:	01 d0                	add    %edx,%eax
   1115a:	c1 e0 04             	shl    $0x4,%eax
   1115d:	89 c2                	mov    %eax,%edx
   1115f:	a1 d8 b6 01 00       	mov    0x1b6d8,%eax
   11164:	01 d0                	add    %edx,%eax
   11166:	05 00 c0 05 00       	add    $0x5c000,%eax
   1116b:	01 c0                	add    %eax,%eax
   1116d:	89 45 f0             	mov    %eax,-0x10(%ebp)
   11170:	c7 45 e8 00 00 00 00 	movl   $0x0,-0x18(%ebp)
   11177:	eb 1c                	jmp    11195 <__cio_scroll+0xc6>
   11179:	8b 55 f4             	mov    -0xc(%ebp),%edx
   1117c:	8d 42 02             	lea    0x2(%edx),%eax
   1117f:	89 45 f4             	mov    %eax,-0xc(%ebp)
   11182:	8b 45 f0             	mov    -0x10(%ebp),%eax
   11185:	8d 48 02             	lea    0x2(%eax),%ecx
   11188:	89 4d f0             	mov    %ecx,-0x10(%ebp)
   1118b:	0f b7 12             	movzwl (%edx),%edx
   1118e:	66 89 10             	mov    %dx,(%eax)
   11191:	83 45 e8 01          	addl   $0x1,-0x18(%ebp)
   11195:	8b 45 e8             	mov    -0x18(%ebp),%eax
   11198:	3b 45 e4             	cmp    -0x1c(%ebp),%eax
   1119b:	7c dc                	jl     11179 <__cio_scroll+0xaa>
   1119d:	83 45 ec 01          	addl   $0x1,-0x14(%ebp)
   111a1:	a1 c4 b6 01 00       	mov    0x1b6c4,%eax
   111a6:	2b 45 08             	sub    0x8(%ebp),%eax
   111a9:	89 c2                	mov    %eax,%edx
   111ab:	8b 45 ec             	mov    -0x14(%ebp),%eax
   111ae:	39 c2                	cmp    %eax,%edx
   111b0:	0f 83 75 ff ff ff    	jae    1112b <__cio_scroll+0x5c>
   111b6:	eb 47                	jmp    111ff <__cio_scroll+0x130>
   111b8:	8b 55 ec             	mov    -0x14(%ebp),%edx
   111bb:	89 d0                	mov    %edx,%eax
   111bd:	c1 e0 02             	shl    $0x2,%eax
   111c0:	01 d0                	add    %edx,%eax
   111c2:	c1 e0 04             	shl    $0x4,%eax
   111c5:	89 c2                	mov    %eax,%edx
   111c7:	a1 d8 b6 01 00       	mov    0x1b6d8,%eax
   111cc:	01 d0                	add    %edx,%eax
   111ce:	05 00 c0 05 00       	add    $0x5c000,%eax
   111d3:	01 c0                	add    %eax,%eax
   111d5:	89 45 f0             	mov    %eax,-0x10(%ebp)
   111d8:	c7 45 e8 00 00 00 00 	movl   $0x0,-0x18(%ebp)
   111df:	eb 12                	jmp    111f3 <__cio_scroll+0x124>
   111e1:	8b 45 f0             	mov    -0x10(%ebp),%eax
   111e4:	8d 50 02             	lea    0x2(%eax),%edx
   111e7:	89 55 f0             	mov    %edx,-0x10(%ebp)
   111ea:	66 c7 00 20 07       	movw   $0x720,(%eax)
   111ef:	83 45 e8 01          	addl   $0x1,-0x18(%ebp)
   111f3:	8b 45 e8             	mov    -0x18(%ebp),%eax
   111f6:	3b 45 e4             	cmp    -0x1c(%ebp),%eax
   111f9:	7c e6                	jl     111e1 <__cio_scroll+0x112>
   111fb:	83 45 ec 01          	addl   $0x1,-0x14(%ebp)
   111ff:	8b 55 ec             	mov    -0x14(%ebp),%edx
   11202:	a1 c4 b6 01 00       	mov    0x1b6c4,%eax
   11207:	39 c2                	cmp    %eax,%edx
   11209:	76 ad                	jbe    111b8 <__cio_scroll+0xe9>
   1120b:	c9                   	leave  
   1120c:	c3                   	ret    

0001120d <pad>:
   1120d:	55                   	push   %ebp
   1120e:	89 e5                	mov    %esp,%ebp
   11210:	83 ec 08             	sub    $0x8,%esp
   11213:	eb 39                	jmp    1124e <pad+0x41>
   11215:	83 7d 08 ff          	cmpl   $0xffffffff,0x8(%ebp)
   11219:	75 06                	jne    11221 <pad+0x14>
   1121b:	83 7d 0c ff          	cmpl   $0xffffffff,0xc(%ebp)
   1121f:	74 1a                	je     1123b <pad+0x2e>
   11221:	8b 4d 14             	mov    0x14(%ebp),%ecx
   11224:	8b 55 0c             	mov    0xc(%ebp),%edx
   11227:	8b 45 08             	mov    0x8(%ebp),%eax
   1122a:	51                   	push   %ecx
   1122b:	52                   	push   %edx
   1122c:	50                   	push   %eax
   1122d:	e8 93 fb ff ff       	call   10dc5 <__cio_putchar_at>
   11232:	83 c4 0c             	add    $0xc,%esp
   11235:	83 45 08 01          	addl   $0x1,0x8(%ebp)
   11239:	eb 0f                	jmp    1124a <pad+0x3d>
   1123b:	8b 45 14             	mov    0x14(%ebp),%eax
   1123e:	83 ec 0c             	sub    $0xc,%esp
   11241:	50                   	push   %eax
   11242:	e8 f6 fb ff ff       	call   10e3d <__cio_putchar>
   11247:	83 c4 10             	add    $0x10,%esp
   1124a:	83 6d 10 01          	subl   $0x1,0x10(%ebp)
   1124e:	83 7d 10 00          	cmpl   $0x0,0x10(%ebp)
   11252:	7f c1                	jg     11215 <pad+0x8>
   11254:	8b 45 08             	mov    0x8(%ebp),%eax
   11257:	c9                   	leave  
   11258:	c3                   	ret    

00011259 <padstr>:
   11259:	55                   	push   %ebp
   1125a:	89 e5                	mov    %esp,%ebp
   1125c:	83 ec 18             	sub    $0x18,%esp
   1125f:	83 7d 14 00          	cmpl   $0x0,0x14(%ebp)
   11263:	79 11                	jns    11276 <padstr+0x1d>
   11265:	83 ec 0c             	sub    $0xc,%esp
   11268:	ff 75 10             	pushl  0x10(%ebp)
   1126b:	e8 44 10 00 00       	call   122b4 <__strlen>
   11270:	83 c4 10             	add    $0x10,%esp
   11273:	89 45 14             	mov    %eax,0x14(%ebp)
   11276:	8b 45 18             	mov    0x18(%ebp),%eax
   11279:	2b 45 14             	sub    0x14(%ebp),%eax
   1127c:	89 45 f4             	mov    %eax,-0xc(%ebp)
   1127f:	83 7d f4 00          	cmpl   $0x0,-0xc(%ebp)
   11283:	7e 1d                	jle    112a2 <padstr+0x49>
   11285:	83 7d 1c 00          	cmpl   $0x0,0x1c(%ebp)
   11289:	75 17                	jne    112a2 <padstr+0x49>
   1128b:	ff 75 20             	pushl  0x20(%ebp)
   1128e:	ff 75 f4             	pushl  -0xc(%ebp)
   11291:	ff 75 0c             	pushl  0xc(%ebp)
   11294:	ff 75 08             	pushl  0x8(%ebp)
   11297:	e8 71 ff ff ff       	call   1120d <pad>
   1129c:	83 c4 10             	add    $0x10,%esp
   1129f:	89 45 08             	mov    %eax,0x8(%ebp)
   112a2:	83 7d 08 ff          	cmpl   $0xffffffff,0x8(%ebp)
   112a6:	75 06                	jne    112ae <padstr+0x55>
   112a8:	83 7d 0c ff          	cmpl   $0xffffffff,0xc(%ebp)
   112ac:	74 1e                	je     112cc <padstr+0x73>
   112ae:	8b 55 0c             	mov    0xc(%ebp),%edx
   112b1:	8b 45 08             	mov    0x8(%ebp),%eax
   112b4:	83 ec 04             	sub    $0x4,%esp
   112b7:	ff 75 10             	pushl  0x10(%ebp)
   112ba:	52                   	push   %edx
   112bb:	50                   	push   %eax
   112bc:	e8 7a fc ff ff       	call   10f3b <__cio_puts_at>
   112c1:	83 c4 10             	add    $0x10,%esp
   112c4:	8b 45 14             	mov    0x14(%ebp),%eax
   112c7:	01 45 08             	add    %eax,0x8(%ebp)
   112ca:	eb 0e                	jmp    112da <padstr+0x81>
   112cc:	83 ec 0c             	sub    $0xc,%esp
   112cf:	ff 75 10             	pushl  0x10(%ebp)
   112d2:	e8 a6 fc ff ff       	call   10f7d <__cio_puts>
   112d7:	83 c4 10             	add    $0x10,%esp
   112da:	83 7d f4 00          	cmpl   $0x0,-0xc(%ebp)
   112de:	7e 1d                	jle    112fd <padstr+0xa4>
   112e0:	83 7d 1c 00          	cmpl   $0x0,0x1c(%ebp)
   112e4:	74 17                	je     112fd <padstr+0xa4>
   112e6:	ff 75 20             	pushl  0x20(%ebp)
   112e9:	ff 75 f4             	pushl  -0xc(%ebp)
   112ec:	ff 75 0c             	pushl  0xc(%ebp)
   112ef:	ff 75 08             	pushl  0x8(%ebp)
   112f2:	e8 16 ff ff ff       	call   1120d <pad>
   112f7:	83 c4 10             	add    $0x10,%esp
   112fa:	89 45 08             	mov    %eax,0x8(%ebp)
   112fd:	8b 45 08             	mov    0x8(%ebp),%eax
   11300:	c9                   	leave  
   11301:	c3                   	ret    

00011302 <__c_do_printf>:
   11302:	55                   	push   %ebp
   11303:	89 e5                	mov    %esp,%ebp
   11305:	83 ec 38             	sub    $0x38,%esp
   11308:	8b 45 10             	mov    0x10(%ebp),%eax
   1130b:	8b 00                	mov    (%eax),%eax
   1130d:	89 45 f4             	mov    %eax,-0xc(%ebp)
   11310:	8b 45 10             	mov    0x10(%ebp),%eax
   11313:	83 c0 04             	add    $0x4,%eax
   11316:	89 45 f0             	mov    %eax,-0x10(%ebp)
   11319:	e9 56 02 00 00       	jmp    11574 <__c_do_printf+0x272>
   1131e:	80 7d ef 25          	cmpb   $0x25,-0x11(%ebp)
   11322:	0f 85 f4 01 00 00    	jne    1151c <__c_do_printf+0x21a>
   11328:	c7 45 e8 00 00 00 00 	movl   $0x0,-0x18(%ebp)
   1132f:	c7 45 e0 20 00 00 00 	movl   $0x20,-0x20(%ebp)
   11336:	c7 45 e4 00 00 00 00 	movl   $0x0,-0x1c(%ebp)
   1133d:	8b 45 f4             	mov    -0xc(%ebp),%eax
   11340:	8d 50 01             	lea    0x1(%eax),%edx
   11343:	89 55 f4             	mov    %edx,-0xc(%ebp)
   11346:	0f b6 00             	movzbl (%eax),%eax
   11349:	88 45 ef             	mov    %al,-0x11(%ebp)
   1134c:	80 7d ef 2d          	cmpb   $0x2d,-0x11(%ebp)
   11350:	75 16                	jne    11368 <__c_do_printf+0x66>
   11352:	c7 45 e8 01 00 00 00 	movl   $0x1,-0x18(%ebp)
   11359:	8b 45 f4             	mov    -0xc(%ebp),%eax
   1135c:	8d 50 01             	lea    0x1(%eax),%edx
   1135f:	89 55 f4             	mov    %edx,-0xc(%ebp)
   11362:	0f b6 00             	movzbl (%eax),%eax
   11365:	88 45 ef             	mov    %al,-0x11(%ebp)
   11368:	80 7d ef 30          	cmpb   $0x30,-0x11(%ebp)
   1136c:	75 40                	jne    113ae <__c_do_printf+0xac>
   1136e:	c7 45 e0 30 00 00 00 	movl   $0x30,-0x20(%ebp)
   11375:	8b 45 f4             	mov    -0xc(%ebp),%eax
   11378:	8d 50 01             	lea    0x1(%eax),%edx
   1137b:	89 55 f4             	mov    %edx,-0xc(%ebp)
   1137e:	0f b6 00             	movzbl (%eax),%eax
   11381:	88 45 ef             	mov    %al,-0x11(%ebp)
   11384:	eb 28                	jmp    113ae <__c_do_printf+0xac>
   11386:	8b 55 e4             	mov    -0x1c(%ebp),%edx
   11389:	89 d0                	mov    %edx,%eax
   1138b:	c1 e0 02             	shl    $0x2,%eax
   1138e:	01 d0                	add    %edx,%eax
   11390:	01 c0                	add    %eax,%eax
   11392:	89 45 e4             	mov    %eax,-0x1c(%ebp)
   11395:	0f be 45 ef          	movsbl -0x11(%ebp),%eax
   11399:	83 e8 30             	sub    $0x30,%eax
   1139c:	01 45 e4             	add    %eax,-0x1c(%ebp)
   1139f:	8b 45 f4             	mov    -0xc(%ebp),%eax
   113a2:	8d 50 01             	lea    0x1(%eax),%edx
   113a5:	89 55 f4             	mov    %edx,-0xc(%ebp)
   113a8:	0f b6 00             	movzbl (%eax),%eax
   113ab:	88 45 ef             	mov    %al,-0x11(%ebp)
   113ae:	80 7d ef 2f          	cmpb   $0x2f,-0x11(%ebp)
   113b2:	7e 06                	jle    113ba <__c_do_printf+0xb8>
   113b4:	80 7d ef 39          	cmpb   $0x39,-0x11(%ebp)
   113b8:	7e cc                	jle    11386 <__c_do_printf+0x84>
   113ba:	0f be 45 ef          	movsbl -0x11(%ebp),%eax
   113be:	83 e8 63             	sub    $0x63,%eax
   113c1:	83 f8 15             	cmp    $0x15,%eax
   113c4:	0f 87 aa 01 00 00    	ja     11574 <__c_do_printf+0x272>
   113ca:	8b 04 85 60 6a 01 00 	mov    0x16a60(,%eax,4),%eax
   113d1:	ff e0                	jmp    *%eax
   113d3:	8b 45 f0             	mov    -0x10(%ebp),%eax
   113d6:	8d 50 04             	lea    0x4(%eax),%edx
   113d9:	89 55 f0             	mov    %edx,-0x10(%ebp)
   113dc:	8b 00                	mov    (%eax),%eax
   113de:	88 45 ef             	mov    %al,-0x11(%ebp)
   113e1:	0f b6 45 ef          	movzbl -0x11(%ebp),%eax
   113e5:	88 45 cc             	mov    %al,-0x34(%ebp)
   113e8:	c6 45 cd 00          	movb   $0x0,-0x33(%ebp)
   113ec:	83 ec 04             	sub    $0x4,%esp
   113ef:	ff 75 e0             	pushl  -0x20(%ebp)
   113f2:	ff 75 e8             	pushl  -0x18(%ebp)
   113f5:	ff 75 e4             	pushl  -0x1c(%ebp)
   113f8:	6a 01                	push   $0x1
   113fa:	8d 45 cc             	lea    -0x34(%ebp),%eax
   113fd:	50                   	push   %eax
   113fe:	ff 75 0c             	pushl  0xc(%ebp)
   11401:	ff 75 08             	pushl  0x8(%ebp)
   11404:	e8 50 fe ff ff       	call   11259 <padstr>
   11409:	83 c4 20             	add    $0x20,%esp
   1140c:	89 45 08             	mov    %eax,0x8(%ebp)
   1140f:	e9 60 01 00 00       	jmp    11574 <__c_do_printf+0x272>
   11414:	8b 45 f0             	mov    -0x10(%ebp),%eax
   11417:	8d 50 04             	lea    0x4(%eax),%edx
   1141a:	89 55 f0             	mov    %edx,-0x10(%ebp)
   1141d:	8b 00                	mov    (%eax),%eax
   1141f:	83 ec 08             	sub    $0x8,%esp
   11422:	50                   	push   %eax
   11423:	8d 45 cc             	lea    -0x34(%ebp),%eax
   11426:	50                   	push   %eax
   11427:	e8 b6 12 00 00       	call   126e2 <__cvtdec>
   1142c:	83 c4 10             	add    $0x10,%esp
   1142f:	89 45 dc             	mov    %eax,-0x24(%ebp)
   11432:	83 ec 04             	sub    $0x4,%esp
   11435:	ff 75 e0             	pushl  -0x20(%ebp)
   11438:	ff 75 e8             	pushl  -0x18(%ebp)
   1143b:	ff 75 e4             	pushl  -0x1c(%ebp)
   1143e:	ff 75 dc             	pushl  -0x24(%ebp)
   11441:	8d 45 cc             	lea    -0x34(%ebp),%eax
   11444:	50                   	push   %eax
   11445:	ff 75 0c             	pushl  0xc(%ebp)
   11448:	ff 75 08             	pushl  0x8(%ebp)
   1144b:	e8 09 fe ff ff       	call   11259 <padstr>
   11450:	83 c4 20             	add    $0x20,%esp
   11453:	89 45 08             	mov    %eax,0x8(%ebp)
   11456:	e9 19 01 00 00       	jmp    11574 <__c_do_printf+0x272>
   1145b:	8b 45 f0             	mov    -0x10(%ebp),%eax
   1145e:	8d 50 04             	lea    0x4(%eax),%edx
   11461:	89 55 f0             	mov    %edx,-0x10(%ebp)
   11464:	8b 00                	mov    (%eax),%eax
   11466:	89 45 d8             	mov    %eax,-0x28(%ebp)
   11469:	83 ec 04             	sub    $0x4,%esp
   1146c:	ff 75 e0             	pushl  -0x20(%ebp)
   1146f:	ff 75 e8             	pushl  -0x18(%ebp)
   11472:	ff 75 e4             	pushl  -0x1c(%ebp)
   11475:	6a ff                	push   $0xffffffff
   11477:	ff 75 d8             	pushl  -0x28(%ebp)
   1147a:	ff 75 0c             	pushl  0xc(%ebp)
   1147d:	ff 75 08             	pushl  0x8(%ebp)
   11480:	e8 d4 fd ff ff       	call   11259 <padstr>
   11485:	83 c4 20             	add    $0x20,%esp
   11488:	89 45 08             	mov    %eax,0x8(%ebp)
   1148b:	e9 e4 00 00 00       	jmp    11574 <__c_do_printf+0x272>
   11490:	8b 45 f0             	mov    -0x10(%ebp),%eax
   11493:	8d 50 04             	lea    0x4(%eax),%edx
   11496:	89 55 f0             	mov    %edx,-0x10(%ebp)
   11499:	8b 00                	mov    (%eax),%eax
   1149b:	83 ec 08             	sub    $0x8,%esp
   1149e:	50                   	push   %eax
   1149f:	8d 45 cc             	lea    -0x34(%ebp),%eax
   114a2:	50                   	push   %eax
   114a3:	e8 81 12 00 00       	call   12729 <__cvthex>
   114a8:	83 c4 10             	add    $0x10,%esp
   114ab:	89 45 dc             	mov    %eax,-0x24(%ebp)
   114ae:	83 ec 04             	sub    $0x4,%esp
   114b1:	ff 75 e0             	pushl  -0x20(%ebp)
   114b4:	ff 75 e8             	pushl  -0x18(%ebp)
   114b7:	ff 75 e4             	pushl  -0x1c(%ebp)
   114ba:	ff 75 dc             	pushl  -0x24(%ebp)
   114bd:	8d 45 cc             	lea    -0x34(%ebp),%eax
   114c0:	50                   	push   %eax
   114c1:	ff 75 0c             	pushl  0xc(%ebp)
   114c4:	ff 75 08             	pushl  0x8(%ebp)
   114c7:	e8 8d fd ff ff       	call   11259 <padstr>
   114cc:	83 c4 20             	add    $0x20,%esp
   114cf:	89 45 08             	mov    %eax,0x8(%ebp)
   114d2:	e9 9d 00 00 00       	jmp    11574 <__c_do_printf+0x272>
   114d7:	8b 45 f0             	mov    -0x10(%ebp),%eax
   114da:	8d 50 04             	lea    0x4(%eax),%edx
   114dd:	89 55 f0             	mov    %edx,-0x10(%ebp)
   114e0:	8b 00                	mov    (%eax),%eax
   114e2:	83 ec 08             	sub    $0x8,%esp
   114e5:	50                   	push   %eax
   114e6:	8d 45 cc             	lea    -0x34(%ebp),%eax
   114e9:	50                   	push   %eax
   114ea:	e8 b9 12 00 00       	call   127a8 <__cvtoct>
   114ef:	83 c4 10             	add    $0x10,%esp
   114f2:	89 45 dc             	mov    %eax,-0x24(%ebp)
   114f5:	83 ec 04             	sub    $0x4,%esp
   114f8:	ff 75 e0             	pushl  -0x20(%ebp)
   114fb:	ff 75 e8             	pushl  -0x18(%ebp)
   114fe:	ff 75 e4             	pushl  -0x1c(%ebp)
   11501:	ff 75 dc             	pushl  -0x24(%ebp)
   11504:	8d 45 cc             	lea    -0x34(%ebp),%eax
   11507:	50                   	push   %eax
   11508:	ff 75 0c             	pushl  0xc(%ebp)
   1150b:	ff 75 08             	pushl  0x8(%ebp)
   1150e:	e8 46 fd ff ff       	call   11259 <padstr>
   11513:	83 c4 20             	add    $0x20,%esp
   11516:	89 45 08             	mov    %eax,0x8(%ebp)
   11519:	90                   	nop
   1151a:	eb 58                	jmp    11574 <__c_do_printf+0x272>
   1151c:	83 7d 08 ff          	cmpl   $0xffffffff,0x8(%ebp)
   11520:	75 06                	jne    11528 <__c_do_printf+0x226>
   11522:	83 7d 0c ff          	cmpl   $0xffffffff,0xc(%ebp)
   11526:	74 3c                	je     11564 <__c_do_printf+0x262>
   11528:	0f be 4d ef          	movsbl -0x11(%ebp),%ecx
   1152c:	8b 55 0c             	mov    0xc(%ebp),%edx
   1152f:	8b 45 08             	mov    0x8(%ebp),%eax
   11532:	83 ec 04             	sub    $0x4,%esp
   11535:	51                   	push   %ecx
   11536:	52                   	push   %edx
   11537:	50                   	push   %eax
   11538:	e8 88 f8 ff ff       	call   10dc5 <__cio_putchar_at>
   1153d:	83 c4 10             	add    $0x10,%esp
   11540:	0f be 45 ef          	movsbl -0x11(%ebp),%eax
   11544:	83 f8 0a             	cmp    $0xa,%eax
   11547:	74 07                	je     11550 <__c_do_printf+0x24e>
   11549:	83 f8 0d             	cmp    $0xd,%eax
   1154c:	74 06                	je     11554 <__c_do_printf+0x252>
   1154e:	eb 0e                	jmp    1155e <__c_do_printf+0x25c>
   11550:	83 45 0c 01          	addl   $0x1,0xc(%ebp)
   11554:	a1 d8 b6 01 00       	mov    0x1b6d8,%eax
   11559:	89 45 08             	mov    %eax,0x8(%ebp)
   1155c:	eb 04                	jmp    11562 <__c_do_printf+0x260>
   1155e:	83 45 08 01          	addl   $0x1,0x8(%ebp)
   11562:	eb 10                	jmp    11574 <__c_do_printf+0x272>
   11564:	0f be 45 ef          	movsbl -0x11(%ebp),%eax
   11568:	83 ec 0c             	sub    $0xc,%esp
   1156b:	50                   	push   %eax
   1156c:	e8 cc f8 ff ff       	call   10e3d <__cio_putchar>
   11571:	83 c4 10             	add    $0x10,%esp
   11574:	8b 45 f4             	mov    -0xc(%ebp),%eax
   11577:	8d 50 01             	lea    0x1(%eax),%edx
   1157a:	89 55 f4             	mov    %edx,-0xc(%ebp)
   1157d:	0f b6 00             	movzbl (%eax),%eax
   11580:	88 45 ef             	mov    %al,-0x11(%ebp)
   11583:	80 7d ef 00          	cmpb   $0x0,-0x11(%ebp)
   11587:	0f 85 91 fd ff ff    	jne    1131e <__c_do_printf+0x1c>
   1158d:	90                   	nop
   1158e:	c9                   	leave  
   1158f:	c3                   	ret    

00011590 <__cio_printf_at>:
   11590:	55                   	push   %ebp
   11591:	89 e5                	mov    %esp,%ebp
   11593:	83 ec 08             	sub    $0x8,%esp
   11596:	8b 55 0c             	mov    0xc(%ebp),%edx
   11599:	8b 45 08             	mov    0x8(%ebp),%eax
   1159c:	83 ec 04             	sub    $0x4,%esp
   1159f:	8d 4d 10             	lea    0x10(%ebp),%ecx
   115a2:	51                   	push   %ecx
   115a3:	52                   	push   %edx
   115a4:	50                   	push   %eax
   115a5:	e8 58 fd ff ff       	call   11302 <__c_do_printf>
   115aa:	83 c4 10             	add    $0x10,%esp
   115ad:	90                   	nop
   115ae:	c9                   	leave  
   115af:	c3                   	ret    

000115b0 <__cio_printf>:
   115b0:	55                   	push   %ebp
   115b1:	89 e5                	mov    %esp,%ebp
   115b3:	83 ec 08             	sub    $0x8,%esp
   115b6:	83 ec 04             	sub    $0x4,%esp
   115b9:	8d 45 08             	lea    0x8(%ebp),%eax
   115bc:	50                   	push   %eax
   115bd:	6a ff                	push   $0xffffffff
   115bf:	6a ff                	push   $0xffffffff
   115c1:	e8 3c fd ff ff       	call   11302 <__c_do_printf>
   115c6:	83 c4 10             	add    $0x10,%esp
   115c9:	90                   	nop
   115ca:	c9                   	leave  
   115cb:	c3                   	ret    

000115cc <__c_increment>:
   115cc:	55                   	push   %ebp
   115cd:	89 e5                	mov    %esp,%ebp
   115cf:	83 45 08 01          	addl   $0x1,0x8(%ebp)
   115d3:	b8 08 a6 01 00       	mov    $0x1a608,%eax
   115d8:	39 45 08             	cmp    %eax,0x8(%ebp)
   115db:	72 07                	jb     115e4 <__c_increment+0x18>
   115dd:	c7 45 08 40 a5 01 00 	movl   $0x1a540,0x8(%ebp)
   115e4:	8b 45 08             	mov    0x8(%ebp),%eax
   115e7:	5d                   	pop    %ebp
   115e8:	c3                   	ret    

000115e9 <__c_input_scan_code>:
   115e9:	55                   	push   %ebp
   115ea:	89 e5                	mov    %esp,%ebp
   115ec:	83 ec 10             	sub    $0x10,%esp
   115ef:	c7 45 fc ff ff ff ff 	movl   $0xffffffff,-0x4(%ebp)
   115f6:	81 65 08 ff 00 00 00 	andl   $0xff,0x8(%ebp)
   115fd:	8b 45 08             	mov    0x8(%ebp),%eax
   11600:	83 f8 36             	cmp    $0x36,%eax
   11603:	74 28                	je     1162d <__c_input_scan_code+0x44>
   11605:	83 f8 36             	cmp    $0x36,%eax
   11608:	7f 0c                	jg     11616 <__c_input_scan_code+0x2d>
   1160a:	83 f8 1d             	cmp    $0x1d,%eax
   1160d:	74 3c                	je     1164b <__c_input_scan_code+0x62>
   1160f:	83 f8 2a             	cmp    $0x2a,%eax
   11612:	74 19                	je     1162d <__c_input_scan_code+0x44>
   11614:	eb 4d                	jmp    11663 <__c_input_scan_code+0x7a>
   11616:	3d aa 00 00 00       	cmp    $0xaa,%eax
   1161b:	74 1f                	je     1163c <__c_input_scan_code+0x53>
   1161d:	3d b6 00 00 00       	cmp    $0xb6,%eax
   11622:	74 18                	je     1163c <__c_input_scan_code+0x53>
   11624:	3d 9d 00 00 00       	cmp    $0x9d,%eax
   11629:	74 2c                	je     11657 <__c_input_scan_code+0x6e>
   1162b:	eb 36                	jmp    11663 <__c_input_scan_code+0x7a>
   1162d:	c7 05 08 a6 01 00 01 	movl   $0x1,0x1a608
   11634:	00 00 00 
   11637:	e9 99 00 00 00       	jmp    116d5 <__c_input_scan_code+0xec>
   1163c:	c7 05 08 a6 01 00 00 	movl   $0x0,0x1a608
   11643:	00 00 00 
   11646:	e9 8a 00 00 00       	jmp    116d5 <__c_input_scan_code+0xec>
   1164b:	c7 05 08 a5 01 00 1f 	movl   $0x1f,0x1a508
   11652:	00 00 00 
   11655:	eb 7e                	jmp    116d5 <__c_input_scan_code+0xec>
   11657:	c7 05 08 a5 01 00 ff 	movl   $0xff,0x1a508
   1165e:	00 00 00 
   11661:	eb 72                	jmp    116d5 <__c_input_scan_code+0xec>
   11663:	8b 45 08             	mov    0x8(%ebp),%eax
   11666:	25 80 00 00 00       	and    $0x80,%eax
   1166b:	85 c0                	test   %eax,%eax
   1166d:	75 66                	jne    116d5 <__c_input_scan_code+0xec>
   1166f:	a1 08 a6 01 00       	mov    0x1a608,%eax
   11674:	c1 e0 07             	shl    $0x7,%eax
   11677:	89 c2                	mov    %eax,%edx
   11679:	8b 45 08             	mov    0x8(%ebp),%eax
   1167c:	01 d0                	add    %edx,%eax
   1167e:	05 00 a4 01 00       	add    $0x1a400,%eax
   11683:	0f b6 00             	movzbl (%eax),%eax
   11686:	0f b6 c0             	movzbl %al,%eax
   11689:	89 45 08             	mov    %eax,0x8(%ebp)
   1168c:	83 7d 08 ff          	cmpl   $0xffffffff,0x8(%ebp)
   11690:	74 43                	je     116d5 <__c_input_scan_code+0xec>
   11692:	a1 04 a5 01 00       	mov    0x1a504,%eax
   11697:	50                   	push   %eax
   11698:	e8 2f ff ff ff       	call   115cc <__c_increment>
   1169d:	83 c4 04             	add    $0x4,%esp
   116a0:	89 45 f8             	mov    %eax,-0x8(%ebp)
   116a3:	a1 08 a5 01 00       	mov    0x1a508,%eax
   116a8:	23 45 08             	and    0x8(%ebp),%eax
   116ab:	89 45 fc             	mov    %eax,-0x4(%ebp)
   116ae:	a1 00 a5 01 00       	mov    0x1a500,%eax
   116b3:	39 45 f8             	cmp    %eax,-0x8(%ebp)
   116b6:	74 1d                	je     116d5 <__c_input_scan_code+0xec>
   116b8:	8b 45 08             	mov    0x8(%ebp),%eax
   116bb:	89 c1                	mov    %eax,%ecx
   116bd:	a1 08 a5 01 00       	mov    0x1a508,%eax
   116c2:	89 c2                	mov    %eax,%edx
   116c4:	a1 04 a5 01 00       	mov    0x1a504,%eax
   116c9:	21 ca                	and    %ecx,%edx
   116cb:	88 10                	mov    %dl,(%eax)
   116cd:	8b 45 f8             	mov    -0x8(%ebp),%eax
   116d0:	a3 04 a5 01 00       	mov    %eax,0x1a504
   116d5:	8b 45 fc             	mov    -0x4(%ebp),%eax
   116d8:	c9                   	leave  
   116d9:	c3                   	ret    

000116da <__c_keyboard_isr>:
   116da:	55                   	push   %ebp
   116db:	89 e5                	mov    %esp,%ebp
   116dd:	83 ec 18             	sub    $0x18,%esp
   116e0:	83 ec 0c             	sub    $0xc,%esp
   116e3:	6a 60                	push   $0x60
   116e5:	e8 c6 49 00 00       	call   160b0 <__inb>
   116ea:	83 c4 10             	add    $0x10,%esp
   116ed:	83 ec 0c             	sub    $0xc,%esp
   116f0:	50                   	push   %eax
   116f1:	e8 f3 fe ff ff       	call   115e9 <__c_input_scan_code>
   116f6:	83 c4 10             	add    $0x10,%esp
   116f9:	89 45 f4             	mov    %eax,-0xc(%ebp)
   116fc:	83 7d f4 ff          	cmpl   $0xffffffff,-0xc(%ebp)
   11700:	74 19                	je     1171b <__c_keyboard_isr+0x41>
   11702:	a1 20 a5 01 00       	mov    0x1a520,%eax
   11707:	85 c0                	test   %eax,%eax
   11709:	74 10                	je     1171b <__c_keyboard_isr+0x41>
   1170b:	a1 20 a5 01 00       	mov    0x1a520,%eax
   11710:	83 ec 0c             	sub    $0xc,%esp
   11713:	ff 75 f4             	pushl  -0xc(%ebp)
   11716:	ff d0                	call   *%eax
   11718:	83 c4 10             	add    $0x10,%esp
   1171b:	83 ec 08             	sub    $0x8,%esp
   1171e:	6a 20                	push   $0x20
   11720:	6a 20                	push   $0x20
   11722:	e8 ab 49 00 00       	call   160d2 <__outb>
   11727:	83 c4 10             	add    $0x10,%esp
   1172a:	90                   	nop
   1172b:	c9                   	leave  
   1172c:	c3                   	ret    

0001172d <__cio_getchar>:
   1172d:	55                   	push   %ebp
   1172e:	89 e5                	mov    %esp,%ebp
   11730:	83 ec 18             	sub    $0x18,%esp
   11733:	e8 bf 49 00 00       	call   160f7 <__get_flags>
   11738:	25 00 02 00 00       	and    $0x200,%eax
   1173d:	89 45 f4             	mov    %eax,-0xc(%ebp)
   11740:	eb 34                	jmp    11776 <__cio_getchar+0x49>
   11742:	83 7d f4 00          	cmpl   $0x0,-0xc(%ebp)
   11746:	75 2e                	jne    11776 <__cio_getchar+0x49>
   11748:	90                   	nop
   11749:	83 ec 0c             	sub    $0xc,%esp
   1174c:	6a 64                	push   $0x64
   1174e:	e8 5d 49 00 00       	call   160b0 <__inb>
   11753:	83 c4 10             	add    $0x10,%esp
   11756:	83 e0 01             	and    $0x1,%eax
   11759:	85 c0                	test   %eax,%eax
   1175b:	74 ec                	je     11749 <__cio_getchar+0x1c>
   1175d:	83 ec 0c             	sub    $0xc,%esp
   11760:	6a 60                	push   $0x60
   11762:	e8 49 49 00 00       	call   160b0 <__inb>
   11767:	83 c4 10             	add    $0x10,%esp
   1176a:	83 ec 0c             	sub    $0xc,%esp
   1176d:	50                   	push   %eax
   1176e:	e8 76 fe ff ff       	call   115e9 <__c_input_scan_code>
   11773:	83 c4 10             	add    $0x10,%esp
   11776:	8b 15 00 a5 01 00    	mov    0x1a500,%edx
   1177c:	a1 04 a5 01 00       	mov    0x1a504,%eax
   11781:	39 c2                	cmp    %eax,%edx
   11783:	74 bd                	je     11742 <__cio_getchar+0x15>
   11785:	a1 00 a5 01 00       	mov    0x1a500,%eax
   1178a:	0f b6 00             	movzbl (%eax),%eax
   1178d:	88 45 f3             	mov    %al,-0xd(%ebp)
   11790:	a1 00 a5 01 00       	mov    0x1a500,%eax
   11795:	83 ec 0c             	sub    $0xc,%esp
   11798:	50                   	push   %eax
   11799:	e8 2e fe ff ff       	call   115cc <__c_increment>
   1179e:	83 c4 10             	add    $0x10,%esp
   117a1:	a3 00 a5 01 00       	mov    %eax,0x1a500
   117a6:	80 7d f3 04          	cmpb   $0x4,-0xd(%ebp)
   117aa:	74 10                	je     117bc <__cio_getchar+0x8f>
   117ac:	0f be 45 f3          	movsbl -0xd(%ebp),%eax
   117b0:	83 ec 0c             	sub    $0xc,%esp
   117b3:	50                   	push   %eax
   117b4:	e8 84 f6 ff ff       	call   10e3d <__cio_putchar>
   117b9:	83 c4 10             	add    $0x10,%esp
   117bc:	0f be 45 f3          	movsbl -0xd(%ebp),%eax
   117c0:	c9                   	leave  
   117c1:	c3                   	ret    

000117c2 <__cio_gets>:
   117c2:	55                   	push   %ebp
   117c3:	89 e5                	mov    %esp,%ebp
   117c5:	83 ec 18             	sub    $0x18,%esp
   117c8:	c7 45 f4 00 00 00 00 	movl   $0x0,-0xc(%ebp)
   117cf:	eb 2b                	jmp    117fc <__cio_gets+0x3a>
   117d1:	e8 57 ff ff ff       	call   1172d <__cio_getchar>
   117d6:	88 45 f3             	mov    %al,-0xd(%ebp)
   117d9:	80 7d f3 04          	cmpb   $0x4,-0xd(%ebp)
   117dd:	74 25                	je     11804 <__cio_gets+0x42>
   117df:	8b 45 08             	mov    0x8(%ebp),%eax
   117e2:	8d 50 01             	lea    0x1(%eax),%edx
   117e5:	89 55 08             	mov    %edx,0x8(%ebp)
   117e8:	0f b6 55 f3          	movzbl -0xd(%ebp),%edx
   117ec:	88 10                	mov    %dl,(%eax)
   117ee:	83 45 f4 01          	addl   $0x1,-0xc(%ebp)
   117f2:	83 6d 0c 01          	subl   $0x1,0xc(%ebp)
   117f6:	80 7d f3 0a          	cmpb   $0xa,-0xd(%ebp)
   117fa:	74 0b                	je     11807 <__cio_gets+0x45>
   117fc:	83 7d 0c 01          	cmpl   $0x1,0xc(%ebp)
   11800:	77 cf                	ja     117d1 <__cio_gets+0xf>
   11802:	eb 04                	jmp    11808 <__cio_gets+0x46>
   11804:	90                   	nop
   11805:	eb 01                	jmp    11808 <__cio_gets+0x46>
   11807:	90                   	nop
   11808:	8b 45 08             	mov    0x8(%ebp),%eax
   1180b:	c6 00 00             	movb   $0x0,(%eax)
   1180e:	8b 45 f4             	mov    -0xc(%ebp),%eax
   11811:	c9                   	leave  
   11812:	c3                   	ret    

00011813 <__cio_input_queue>:
   11813:	55                   	push   %ebp
   11814:	89 e5                	mov    %esp,%ebp
   11816:	83 ec 10             	sub    $0x10,%esp
   11819:	a1 04 a5 01 00       	mov    0x1a504,%eax
   1181e:	89 c2                	mov    %eax,%edx
   11820:	a1 00 a5 01 00       	mov    0x1a500,%eax
   11825:	29 c2                	sub    %eax,%edx
   11827:	89 d0                	mov    %edx,%eax
   11829:	89 45 fc             	mov    %eax,-0x4(%ebp)
   1182c:	83 7d fc 00          	cmpl   $0x0,-0x4(%ebp)
   11830:	79 07                	jns    11839 <__cio_input_queue+0x26>
   11832:	81 45 fc c8 00 00 00 	addl   $0xc8,-0x4(%ebp)
   11839:	8b 45 fc             	mov    -0x4(%ebp),%eax
   1183c:	c9                   	leave  
   1183d:	c3                   	ret    

0001183e <__cio_init>:
   1183e:	55                   	push   %ebp
   1183f:	89 e5                	mov    %esp,%ebp
   11841:	83 ec 08             	sub    $0x8,%esp
   11844:	c7 05 cc b6 01 00 00 	movl   $0x0,0x1b6cc
   1184b:	00 00 00 
   1184e:	c7 05 c0 b6 01 00 00 	movl   $0x0,0x1b6c0
   11855:	00 00 00 
   11858:	c7 05 b8 b6 01 00 4f 	movl   $0x4f,0x1b6b8
   1185f:	00 00 00 
   11862:	c7 05 d4 b6 01 00 18 	movl   $0x18,0x1b6d4
   11869:	00 00 00 
   1186c:	c7 05 d8 b6 01 00 00 	movl   $0x0,0x1b6d8
   11873:	00 00 00 
   11876:	c7 05 c8 b6 01 00 00 	movl   $0x0,0x1b6c8
   1187d:	00 00 00 
   11880:	c7 05 b4 b6 01 00 4f 	movl   $0x4f,0x1b6b4
   11887:	00 00 00 
   1188a:	c7 05 c4 b6 01 00 18 	movl   $0x18,0x1b6c4
   11891:	00 00 00 
   11894:	a1 c0 b6 01 00       	mov    0x1b6c0,%eax
   11899:	a3 d0 b6 01 00       	mov    %eax,0x1b6d0
   1189e:	a1 cc b6 01 00       	mov    0x1b6cc,%eax
   118a3:	a3 bc b6 01 00       	mov    %eax,0x1b6bc
   118a8:	e8 26 f3 ff ff       	call   10bd3 <__c_setcursor>
   118ad:	8b 45 08             	mov    0x8(%ebp),%eax
   118b0:	a3 20 a5 01 00       	mov    %eax,0x1a520
   118b5:	83 ec 08             	sub    $0x8,%esp
   118b8:	68 da 16 01 00       	push   $0x116da
   118bd:	6a 21                	push   $0x21
   118bf:	e8 4f 02 00 00       	call   11b13 <__install_isr>
   118c4:	83 c4 10             	add    $0x10,%esp
   118c7:	90                   	nop
   118c8:	c9                   	leave  
   118c9:	c3                   	ret    

000118ca <__default_unexpected_handler>:
   118ca:	55                   	push   %ebp
   118cb:	89 e5                	mov    %esp,%ebp
   118cd:	83 ec 08             	sub    $0x8,%esp
   118d0:	83 ec 04             	sub    $0x4,%esp
   118d3:	ff 75 0c             	pushl  0xc(%ebp)
   118d6:	ff 75 08             	pushl  0x8(%ebp)
   118d9:	68 b8 6a 01 00       	push   $0x16ab8
   118de:	e8 cd fc ff ff       	call   115b0 <__cio_printf>
   118e3:	83 c4 10             	add    $0x10,%esp
   118e6:	83 ec 0c             	sub    $0xc,%esp
   118e9:	68 da 6a 01 00       	push   $0x16ada
   118ee:	e8 f1 01 00 00       	call   11ae4 <__panic>
   118f3:	83 c4 10             	add    $0x10,%esp
   118f6:	90                   	nop
   118f7:	c9                   	leave  
   118f8:	c3                   	ret    

000118f9 <__default_expected_handler>:
   118f9:	55                   	push   %ebp
   118fa:	89 e5                	mov    %esp,%ebp
   118fc:	83 ec 08             	sub    $0x8,%esp
   118ff:	83 ec 04             	sub    $0x4,%esp
   11902:	ff 75 0c             	pushl  0xc(%ebp)
   11905:	ff 75 08             	pushl  0x8(%ebp)
   11908:	68 f0 6a 01 00       	push   $0x16af0
   1190d:	e8 9e fc ff ff       	call   115b0 <__cio_printf>
   11912:	83 c4 10             	add    $0x10,%esp
   11915:	83 7d 08 1f          	cmpl   $0x1f,0x8(%ebp)
   11919:	7e 2f                	jle    1194a <__default_expected_handler+0x51>
   1191b:	83 7d 08 2f          	cmpl   $0x2f,0x8(%ebp)
   1191f:	7f 29                	jg     1194a <__default_expected_handler+0x51>
   11921:	83 ec 08             	sub    $0x8,%esp
   11924:	6a 20                	push   $0x20
   11926:	6a 20                	push   $0x20
   11928:	e8 a5 47 00 00       	call   160d2 <__outb>
   1192d:	83 c4 10             	add    $0x10,%esp
   11930:	83 7d 08 27          	cmpl   $0x27,0x8(%ebp)
   11934:	7e 24                	jle    1195a <__default_expected_handler+0x61>
   11936:	83 ec 08             	sub    $0x8,%esp
   11939:	6a 20                	push   $0x20
   1193b:	68 a0 00 00 00       	push   $0xa0
   11940:	e8 8d 47 00 00       	call   160d2 <__outb>
   11945:	83 c4 10             	add    $0x10,%esp
   11948:	eb 10                	jmp    1195a <__default_expected_handler+0x61>
   1194a:	83 ec 0c             	sub    $0xc,%esp
   1194d:	68 10 6b 01 00       	push   $0x16b10
   11952:	e8 8d 01 00 00       	call   11ae4 <__panic>
   11957:	83 c4 10             	add    $0x10,%esp
   1195a:	90                   	nop
   1195b:	c9                   	leave  
   1195c:	c3                   	ret    

0001195d <__default_mystery_handler>:
   1195d:	55                   	push   %ebp
   1195e:	89 e5                	mov    %esp,%ebp
   11960:	83 ec 08             	sub    $0x8,%esp
   11963:	83 ec 08             	sub    $0x8,%esp
   11966:	6a 20                	push   $0x20
   11968:	6a 20                	push   $0x20
   1196a:	e8 63 47 00 00       	call   160d2 <__outb>
   1196f:	83 c4 10             	add    $0x10,%esp
   11972:	90                   	nop
   11973:	c9                   	leave  
   11974:	c3                   	ret    

00011975 <init_pic>:
   11975:	55                   	push   %ebp
   11976:	89 e5                	mov    %esp,%ebp
   11978:	83 ec 08             	sub    $0x8,%esp
   1197b:	83 ec 08             	sub    $0x8,%esp
   1197e:	6a 11                	push   $0x11
   11980:	6a 20                	push   $0x20
   11982:	e8 4b 47 00 00       	call   160d2 <__outb>
   11987:	83 c4 10             	add    $0x10,%esp
   1198a:	83 ec 08             	sub    $0x8,%esp
   1198d:	6a 11                	push   $0x11
   1198f:	68 a0 00 00 00       	push   $0xa0
   11994:	e8 39 47 00 00       	call   160d2 <__outb>
   11999:	83 c4 10             	add    $0x10,%esp
   1199c:	83 ec 08             	sub    $0x8,%esp
   1199f:	6a 20                	push   $0x20
   119a1:	6a 21                	push   $0x21
   119a3:	e8 2a 47 00 00       	call   160d2 <__outb>
   119a8:	83 c4 10             	add    $0x10,%esp
   119ab:	83 ec 08             	sub    $0x8,%esp
   119ae:	6a 28                	push   $0x28
   119b0:	68 a1 00 00 00       	push   $0xa1
   119b5:	e8 18 47 00 00       	call   160d2 <__outb>
   119ba:	83 c4 10             	add    $0x10,%esp
   119bd:	83 ec 08             	sub    $0x8,%esp
   119c0:	6a 04                	push   $0x4
   119c2:	6a 21                	push   $0x21
   119c4:	e8 09 47 00 00       	call   160d2 <__outb>
   119c9:	83 c4 10             	add    $0x10,%esp
   119cc:	83 ec 08             	sub    $0x8,%esp
   119cf:	6a 02                	push   $0x2
   119d1:	68 a1 00 00 00       	push   $0xa1
   119d6:	e8 f7 46 00 00       	call   160d2 <__outb>
   119db:	83 c4 10             	add    $0x10,%esp
   119de:	83 ec 08             	sub    $0x8,%esp
   119e1:	6a 01                	push   $0x1
   119e3:	6a 21                	push   $0x21
   119e5:	e8 e8 46 00 00       	call   160d2 <__outb>
   119ea:	83 c4 10             	add    $0x10,%esp
   119ed:	83 ec 08             	sub    $0x8,%esp
   119f0:	6a 01                	push   $0x1
   119f2:	68 a1 00 00 00       	push   $0xa1
   119f7:	e8 d6 46 00 00       	call   160d2 <__outb>
   119fc:	83 c4 10             	add    $0x10,%esp
   119ff:	83 ec 08             	sub    $0x8,%esp
   11a02:	6a 00                	push   $0x0
   11a04:	6a 21                	push   $0x21
   11a06:	e8 c7 46 00 00       	call   160d2 <__outb>
   11a0b:	83 c4 10             	add    $0x10,%esp
   11a0e:	83 ec 08             	sub    $0x8,%esp
   11a11:	6a 00                	push   $0x0
   11a13:	68 a1 00 00 00       	push   $0xa1
   11a18:	e8 b5 46 00 00       	call   160d2 <__outb>
   11a1d:	83 c4 10             	add    $0x10,%esp
   11a20:	90                   	nop
   11a21:	c9                   	leave  
   11a22:	c3                   	ret    

00011a23 <set_idt_entry>:
   11a23:	55                   	push   %ebp
   11a24:	89 e5                	mov    %esp,%ebp
   11a26:	83 ec 10             	sub    $0x10,%esp
   11a29:	8b 45 08             	mov    0x8(%ebp),%eax
   11a2c:	c1 e0 03             	shl    $0x3,%eax
   11a2f:	05 00 25 00 00       	add    $0x2500,%eax
   11a34:	89 45 fc             	mov    %eax,-0x4(%ebp)
   11a37:	8b 45 0c             	mov    0xc(%ebp),%eax
   11a3a:	89 c2                	mov    %eax,%edx
   11a3c:	8b 45 fc             	mov    -0x4(%ebp),%eax
   11a3f:	66 89 10             	mov    %dx,(%eax)
   11a42:	8b 45 fc             	mov    -0x4(%ebp),%eax
   11a45:	66 c7 40 02 10 00    	movw   $0x10,0x2(%eax)
   11a4b:	8b 45 fc             	mov    -0x4(%ebp),%eax
   11a4e:	66 c7 40 04 00 8e    	movw   $0x8e00,0x4(%eax)
   11a54:	8b 45 0c             	mov    0xc(%ebp),%eax
   11a57:	c1 e8 10             	shr    $0x10,%eax
   11a5a:	89 c2                	mov    %eax,%edx
   11a5c:	8b 45 fc             	mov    -0x4(%ebp),%eax
   11a5f:	66 89 50 06          	mov    %dx,0x6(%eax)
   11a63:	90                   	nop
   11a64:	c9                   	leave  
   11a65:	c3                   	ret    

00011a66 <init_idt>:
   11a66:	55                   	push   %ebp
   11a67:	89 e5                	mov    %esp,%ebp
   11a69:	83 ec 18             	sub    $0x18,%esp
   11a6c:	c7 45 f4 00 00 00 00 	movl   $0x0,-0xc(%ebp)
   11a73:	eb 2d                	jmp    11aa2 <init_idt+0x3c>
   11a75:	8b 45 f4             	mov    -0xc(%ebp),%eax
   11a78:	8b 04 85 00 a0 01 00 	mov    0x1a000(,%eax,4),%eax
   11a7f:	50                   	push   %eax
   11a80:	ff 75 f4             	pushl  -0xc(%ebp)
   11a83:	e8 9b ff ff ff       	call   11a23 <set_idt_entry>
   11a88:	83 c4 08             	add    $0x8,%esp
   11a8b:	83 ec 08             	sub    $0x8,%esp
   11a8e:	68 ca 18 01 00       	push   $0x118ca
   11a93:	ff 75 f4             	pushl  -0xc(%ebp)
   11a96:	e8 78 00 00 00       	call   11b13 <__install_isr>
   11a9b:	83 c4 10             	add    $0x10,%esp
   11a9e:	83 45 f4 01          	addl   $0x1,-0xc(%ebp)
   11aa2:	81 7d f4 ff 00 00 00 	cmpl   $0xff,-0xc(%ebp)
   11aa9:	7e ca                	jle    11a75 <init_idt+0xf>
   11aab:	83 ec 08             	sub    $0x8,%esp
   11aae:	68 f9 18 01 00       	push   $0x118f9
   11ab3:	6a 21                	push   $0x21
   11ab5:	e8 59 00 00 00       	call   11b13 <__install_isr>
   11aba:	83 c4 10             	add    $0x10,%esp
   11abd:	83 ec 08             	sub    $0x8,%esp
   11ac0:	68 f9 18 01 00       	push   $0x118f9
   11ac5:	6a 20                	push   $0x20
   11ac7:	e8 47 00 00 00       	call   11b13 <__install_isr>
   11acc:	83 c4 10             	add    $0x10,%esp
   11acf:	83 ec 08             	sub    $0x8,%esp
   11ad2:	68 5d 19 01 00       	push   $0x1195d
   11ad7:	6a 27                	push   $0x27
   11ad9:	e8 35 00 00 00       	call   11b13 <__install_isr>
   11ade:	83 c4 10             	add    $0x10,%esp
   11ae1:	90                   	nop
   11ae2:	c9                   	leave  
   11ae3:	c3                   	ret    

00011ae4 <__panic>:
   11ae4:	55                   	push   %ebp
   11ae5:	89 e5                	mov    %esp,%ebp
   11ae7:	83 ec 08             	sub    $0x8,%esp
   11aea:	fa                   	cli    
   11aeb:	83 ec 08             	sub    $0x8,%esp
   11aee:	ff 75 08             	pushl  0x8(%ebp)
   11af1:	68 31 6b 01 00       	push   $0x16b31
   11af6:	e8 b5 fa ff ff       	call   115b0 <__cio_printf>
   11afb:	83 c4 10             	add    $0x10,%esp
   11afe:	eb fe                	jmp    11afe <__panic+0x1a>

00011b00 <__init_interrupts>:
   11b00:	55                   	push   %ebp
   11b01:	89 e5                	mov    %esp,%ebp
   11b03:	83 ec 08             	sub    $0x8,%esp
   11b06:	e8 5b ff ff ff       	call   11a66 <init_idt>
   11b0b:	e8 65 fe ff ff       	call   11975 <init_pic>
   11b10:	90                   	nop
   11b11:	c9                   	leave  
   11b12:	c3                   	ret    

00011b13 <__install_isr>:
   11b13:	55                   	push   %ebp
   11b14:	89 e5                	mov    %esp,%ebp
   11b16:	83 ec 10             	sub    $0x10,%esp
   11b19:	8b 45 08             	mov    0x8(%ebp),%eax
   11b1c:	8b 04 85 e0 b6 01 00 	mov    0x1b6e0(,%eax,4),%eax
   11b23:	89 45 fc             	mov    %eax,-0x4(%ebp)
   11b26:	8b 45 08             	mov    0x8(%ebp),%eax
   11b29:	8b 55 0c             	mov    0xc(%ebp),%edx
   11b2c:	89 14 85 e0 b6 01 00 	mov    %edx,0x1b6e0(,%eax,4)
   11b33:	8b 45 fc             	mov    -0x4(%ebp),%eax
   11b36:	c9                   	leave  
   11b37:	c3                   	ret    

00011b38 <__delay>:
   11b38:	55                   	push   %ebp
   11b39:	89 e5                	mov    %esp,%ebp
   11b3b:	83 ec 10             	sub    $0x10,%esp
   11b3e:	eb 16                	jmp    11b56 <__delay+0x1e>
   11b40:	c7 45 fc 00 00 00 00 	movl   $0x0,-0x4(%ebp)
   11b47:	eb 04                	jmp    11b4d <__delay+0x15>
   11b49:	83 45 fc 01          	addl   $0x1,-0x4(%ebp)
   11b4d:	81 7d fc 7f 96 98 00 	cmpl   $0x98967f,-0x4(%ebp)
   11b54:	7e f3                	jle    11b49 <__delay+0x11>
   11b56:	83 6d 08 01          	subl   $0x1,0x8(%ebp)
   11b5a:	83 7d 08 00          	cmpl   $0x0,0x8(%ebp)
   11b5e:	79 e0                	jns    11b40 <__delay+0x8>
   11b60:	90                   	nop
   11b61:	c9                   	leave  
   11b62:	c3                   	ret    

00011b63 <_cmp_wakeup>:
   11b63:	55                   	push   %ebp
   11b64:	89 e5                	mov    %esp,%ebp
   11b66:	8b 45 08             	mov    0x8(%ebp),%eax
   11b69:	3b 45 0c             	cmp    0xc(%ebp),%eax
   11b6c:	73 07                	jae    11b75 <_cmp_wakeup+0x12>
   11b6e:	b8 ff ff ff ff       	mov    $0xffffffff,%eax
   11b73:	eb 14                	jmp    11b89 <_cmp_wakeup+0x26>
   11b75:	8b 45 08             	mov    0x8(%ebp),%eax
   11b78:	3b 45 0c             	cmp    0xc(%ebp),%eax
   11b7b:	75 07                	jne    11b84 <_cmp_wakeup+0x21>
   11b7d:	b8 00 00 00 00       	mov    $0x0,%eax
   11b82:	eb 05                	jmp    11b89 <_cmp_wakeup+0x26>
   11b84:	b8 01 00 00 00       	mov    $0x1,%eax
   11b89:	5d                   	pop    %ebp
   11b8a:	c3                   	ret    

00011b8b <_clk_isr>:
   11b8b:	55                   	push   %ebp
   11b8c:	89 e5                	mov    %esp,%ebp
   11b8e:	83 ec 18             	sub    $0x18,%esp
   11b91:	a1 0c a6 01 00       	mov    0x1a60c,%eax
   11b96:	83 c0 01             	add    $0x1,%eax
   11b99:	a3 0c a6 01 00       	mov    %eax,0x1a60c
   11b9e:	a1 0c a6 01 00       	mov    0x1a60c,%eax
   11ba3:	83 f8 64             	cmp    $0x64,%eax
   11ba6:	75 39                	jne    11be1 <_clk_isr+0x56>
   11ba8:	c7 05 0c a6 01 00 00 	movl   $0x0,0x1a60c
   11baf:	00 00 00 
   11bb2:	a1 10 a6 01 00       	mov    0x1a610,%eax
   11bb7:	83 c0 01             	add    $0x1,%eax
   11bba:	a3 10 a6 01 00       	mov    %eax,0x1a610
   11bbf:	a1 10 a6 01 00       	mov    0x1a610,%eax
   11bc4:	83 e0 03             	and    $0x3,%eax
   11bc7:	0f b6 80 48 6b 01 00 	movzbl 0x16b48(%eax),%eax
   11bce:	0f be c0             	movsbl %al,%eax
   11bd1:	83 ec 04             	sub    $0x4,%esp
   11bd4:	50                   	push   %eax
   11bd5:	6a 00                	push   $0x0
   11bd7:	6a 00                	push   $0x0
   11bd9:	e8 e7 f1 ff ff       	call   10dc5 <__cio_putchar_at>
   11bde:	83 c4 10             	add    $0x10,%esp
   11be1:	a1 e4 ba 01 00       	mov    0x1bae4,%eax
   11be6:	83 c0 01             	add    $0x1,%eax
   11be9:	a3 e4 ba 01 00       	mov    %eax,0x1bae4
   11bee:	a1 e0 ba 01 00       	mov    0x1bae0,%eax
   11bf3:	83 ec 0c             	sub    $0xc,%esp
   11bf6:	50                   	push   %eax
   11bf7:	e8 d7 20 00 00       	call   13cd3 <_que_peek>
   11bfc:	83 c4 10             	add    $0x10,%esp
   11bff:	89 45 f4             	mov    %eax,-0xc(%ebp)
   11c02:	eb 36                	jmp    11c3a <_clk_isr+0xaf>
   11c04:	a1 e0 ba 01 00       	mov    0x1bae0,%eax
   11c09:	83 ec 0c             	sub    $0xc,%esp
   11c0c:	50                   	push   %eax
   11c0d:	e8 0b 20 00 00       	call   13c1d <_que_deque>
   11c12:	83 c4 10             	add    $0x10,%esp
   11c15:	89 45 f4             	mov    %eax,-0xc(%ebp)
   11c18:	83 ec 0c             	sub    $0xc,%esp
   11c1b:	ff 75 f4             	pushl  -0xc(%ebp)
   11c1e:	e8 c1 22 00 00       	call   13ee4 <_schedule>
   11c23:	83 c4 10             	add    $0x10,%esp
   11c26:	a1 e0 ba 01 00       	mov    0x1bae0,%eax
   11c2b:	83 ec 0c             	sub    $0xc,%esp
   11c2e:	50                   	push   %eax
   11c2f:	e8 9f 20 00 00       	call   13cd3 <_que_peek>
   11c34:	83 c4 10             	add    $0x10,%esp
   11c37:	89 45 f4             	mov    %eax,-0xc(%ebp)
   11c3a:	83 7d f4 00          	cmpl   $0x0,-0xc(%ebp)
   11c3e:	74 0f                	je     11c4f <_clk_isr+0xc4>
   11c40:	8b 45 f4             	mov    -0xc(%ebp),%eax
   11c43:	8b 50 0c             	mov    0xc(%eax),%edx
   11c46:	a1 e4 ba 01 00       	mov    0x1bae4,%eax
   11c4b:	39 c2                	cmp    %eax,%edx
   11c4d:	76 b5                	jbe    11c04 <_clk_isr+0x79>
   11c4f:	a1 d4 be 01 00       	mov    0x1bed4,%eax
   11c54:	0f b6 50 17          	movzbl 0x17(%eax),%edx
   11c58:	a1 d4 be 01 00       	mov    0x1bed4,%eax
   11c5d:	83 ea 01             	sub    $0x1,%edx
   11c60:	88 50 17             	mov    %dl,0x17(%eax)
   11c63:	a1 d4 be 01 00       	mov    0x1bed4,%eax
   11c68:	0f b6 40 17          	movzbl 0x17(%eax),%eax
   11c6c:	84 c0                	test   %al,%al
   11c6e:	75 16                	jne    11c86 <_clk_isr+0xfb>
   11c70:	a1 d4 be 01 00       	mov    0x1bed4,%eax
   11c75:	83 ec 0c             	sub    $0xc,%esp
   11c78:	50                   	push   %eax
   11c79:	e8 66 22 00 00       	call   13ee4 <_schedule>
   11c7e:	83 c4 10             	add    $0x10,%esp
   11c81:	e8 71 23 00 00       	call   13ff7 <_dispatch>
   11c86:	83 ec 08             	sub    $0x8,%esp
   11c89:	6a 20                	push   $0x20
   11c8b:	6a 20                	push   $0x20
   11c8d:	e8 40 44 00 00       	call   160d2 <__outb>
   11c92:	83 c4 10             	add    $0x10,%esp
   11c95:	90                   	nop
   11c96:	c9                   	leave  
   11c97:	c3                   	ret    

00011c98 <_clk_init>:
   11c98:	55                   	push   %ebp
   11c99:	89 e5                	mov    %esp,%ebp
   11c9b:	83 ec 18             	sub    $0x18,%esp
   11c9e:	83 ec 0c             	sub    $0xc,%esp
   11ca1:	68 4d 6b 01 00       	push   $0x16b4d
   11ca6:	e8 d2 f2 ff ff       	call   10f7d <__cio_puts>
   11cab:	83 c4 10             	add    $0x10,%esp
   11cae:	c7 05 0c a6 01 00 63 	movl   $0x63,0x1a60c
   11cb5:	00 00 00 
   11cb8:	c7 05 10 a6 01 00 00 	movl   $0x0,0x1a610
   11cbf:	00 00 00 
   11cc2:	c7 05 e4 ba 01 00 00 	movl   $0x0,0x1bae4
   11cc9:	00 00 00 
   11ccc:	c7 45 f4 a9 04 00 00 	movl   $0x4a9,-0xc(%ebp)
   11cd3:	83 ec 08             	sub    $0x8,%esp
   11cd6:	6a 36                	push   $0x36
   11cd8:	6a 43                	push   $0x43
   11cda:	e8 f3 43 00 00       	call   160d2 <__outb>
   11cdf:	83 c4 10             	add    $0x10,%esp
   11ce2:	8b 45 f4             	mov    -0xc(%ebp),%eax
   11ce5:	0f b6 c0             	movzbl %al,%eax
   11ce8:	83 ec 08             	sub    $0x8,%esp
   11ceb:	50                   	push   %eax
   11cec:	6a 40                	push   $0x40
   11cee:	e8 df 43 00 00       	call   160d2 <__outb>
   11cf3:	83 c4 10             	add    $0x10,%esp
   11cf6:	8b 45 f4             	mov    -0xc(%ebp),%eax
   11cf9:	c1 e8 08             	shr    $0x8,%eax
   11cfc:	0f b6 c0             	movzbl %al,%eax
   11cff:	83 ec 08             	sub    $0x8,%esp
   11d02:	50                   	push   %eax
   11d03:	6a 40                	push   $0x40
   11d05:	e8 c8 43 00 00       	call   160d2 <__outb>
   11d0a:	83 c4 10             	add    $0x10,%esp
   11d0d:	83 ec 0c             	sub    $0xc,%esp
   11d10:	68 63 1b 01 00       	push   $0x11b63
   11d15:	e8 5c 1c 00 00       	call   13976 <_que_alloc>
   11d1a:	83 c4 10             	add    $0x10,%esp
   11d1d:	a3 e0 ba 01 00       	mov    %eax,0x1bae0
   11d22:	a1 e0 ba 01 00       	mov    0x1bae0,%eax
   11d27:	85 c0                	test   %eax,%eax
   11d29:	75 3b                	jne    11d66 <_clk_init+0xce>
   11d2b:	83 ec 08             	sub    $0x8,%esp
   11d2e:	6a 00                	push   $0x0
   11d30:	68 b9 00 00 00       	push   $0xb9
   11d35:	68 55 6b 01 00       	push   $0x16b55
   11d3a:	68 8c 6b 01 00       	push   $0x16b8c
   11d3f:	68 5d 6b 01 00       	push   $0x16b5d
   11d44:	68 00 bb 01 00       	push   $0x1bb00
   11d49:	e8 da 06 00 00       	call   12428 <__sprint>
   11d4e:	83 c4 20             	add    $0x20,%esp
   11d51:	83 ec 08             	sub    $0x8,%esp
   11d54:	68 77 6b 01 00       	push   $0x16b77
   11d59:	68 00 bb 01 00       	push   $0x1bb00
   11d5e:	e8 d3 0a 00 00       	call   12836 <_kpanic>
   11d63:	83 c4 10             	add    $0x10,%esp
   11d66:	83 ec 08             	sub    $0x8,%esp
   11d69:	68 8b 1b 01 00       	push   $0x11b8b
   11d6e:	6a 20                	push   $0x20
   11d70:	e8 9e fd ff ff       	call   11b13 <__install_isr>
   11d75:	83 c4 10             	add    $0x10,%esp
   11d78:	83 ec 0c             	sub    $0xc,%esp
   11d7b:	68 86 6b 01 00       	push   $0x16b86
   11d80:	e8 f8 f1 ff ff       	call   10f7d <__cio_puts>
   11d85:	83 c4 10             	add    $0x10,%esp
   11d88:	90                   	nop
   11d89:	c9                   	leave  
   11d8a:	c3                   	ret    

00011d8b <_init>:
   11d8b:	55                   	push   %ebp
   11d8c:	89 e5                	mov    %esp,%ebp
   11d8e:	83 ec 28             	sub    $0x28,%esp
   11d91:	e8 6a fd ff ff       	call   11b00 <__init_interrupts>
   11d96:	83 ec 0c             	sub    $0xc,%esp
   11d99:	6a 00                	push   $0x0
   11d9b:	e8 9e fa ff ff       	call   1183e <__cio_init>
   11da0:	83 c4 10             	add    $0x10,%esp
   11da3:	6a 63                	push   $0x63
   11da5:	6a 63                	push   $0x63
   11da7:	6a 07                	push   $0x7
   11da9:	6a 00                	push   $0x0
   11dab:	e8 13 ef ff ff       	call   10cc3 <__cio_setscroll>
   11db0:	83 c4 10             	add    $0x10,%esp
   11db3:	83 ec 04             	sub    $0x4,%esp
   11db6:	68 98 6b 01 00       	push   $0x16b98
   11dbb:	6a 06                	push   $0x6
   11dbd:	6a 00                	push   $0x0
   11dbf:	e8 77 f1 ff ff       	call   10f3b <__cio_puts_at>
   11dc4:	83 c4 10             	add    $0x10,%esp
   11dc7:	83 ec 0c             	sub    $0xc,%esp
   11dca:	68 ec 6b 01 00       	push   $0x16bec
   11dcf:	e8 a9 f1 ff ff       	call   10f7d <__cio_puts>
   11dd4:	83 c4 10             	add    $0x10,%esp
   11dd7:	83 ec 0c             	sub    $0xc,%esp
   11dda:	68 10 6c 01 00       	push   $0x16c10
   11ddf:	e8 99 f1 ff ff       	call   10f7d <__cio_puts>
   11de4:	83 c4 10             	add    $0x10,%esp
   11de7:	83 ec 0c             	sub    $0xc,%esp
   11dea:	68 31 6c 01 00       	push   $0x16c31
   11def:	e8 89 f1 ff ff       	call   10f7d <__cio_puts>
   11df4:	83 c4 10             	add    $0x10,%esp
   11df7:	e8 76 0b 00 00       	call   12972 <_km_init>
   11dfc:	e8 1e 1b 00 00       	call   1391f <_que_init>
   11e01:	e8 9f 13 00 00       	call   131a5 <_proc_init>
   11e06:	e8 65 2c 00 00       	call   14a70 <_stk_init>
   11e0b:	e8 a5 37 00 00       	call   155b5 <_sys_init>
   11e10:	e8 2a 20 00 00       	call   13e3f <_sched_init>
   11e15:	e8 7e fe ff ff       	call   11c98 <_clk_init>
   11e1a:	e8 fb 25 00 00       	call   1441a <_sio_init>
   11e1f:	e8 d1 3c 00 00       	call   15af5 <__eth_init>
   11e24:	83 ec 0c             	sub    $0xc,%esp
   11e27:	68 3c 6c 01 00       	push   $0x16c3c
   11e2c:	e8 4c f1 ff ff       	call   10f7d <__cio_puts>
   11e31:	83 c4 10             	add    $0x10,%esp
   11e34:	83 ec 0c             	sub    $0xc,%esp
   11e37:	68 10 6c 01 00       	push   $0x16c10
   11e3c:	e8 3c f1 ff ff       	call   10f7d <__cio_puts>
   11e41:	83 c4 10             	add    $0x10,%esp
   11e44:	83 ec 0c             	sub    $0xc,%esp
   11e47:	68 c8 00 00 00       	push   $0xc8
   11e4c:	e8 e7 fc ff ff       	call   11b38 <__delay>
   11e51:	83 c4 10             	add    $0x10,%esp
   11e54:	b8 05 61 01 00       	mov    $0x16105,%eax
   11e59:	89 45 e4             	mov    %eax,-0x1c(%ebp)
   11e5c:	c7 45 e8 00 00 00 00 	movl   $0x0,-0x18(%ebp)
   11e63:	c7 45 f0 00 00 00 00 	movl   $0x0,-0x10(%ebp)
   11e6a:	8b 45 f0             	mov    -0x10(%ebp),%eax
   11e6d:	89 45 ec             	mov    %eax,-0x14(%ebp)
   11e70:	83 ec 04             	sub    $0x4,%esp
   11e73:	6a 01                	push   $0x1
   11e75:	6a 01                	push   $0x1
   11e77:	8d 45 e4             	lea    -0x1c(%ebp),%eax
   11e7a:	50                   	push   %eax
   11e7b:	e8 99 13 00 00       	call   13219 <_proc_create>
   11e80:	83 c4 10             	add    $0x10,%esp
   11e83:	89 45 f4             	mov    %eax,-0xc(%ebp)
   11e86:	83 7d f4 00          	cmpl   $0x0,-0xc(%ebp)
   11e8a:	75 3b                	jne    11ec7 <_init+0x13c>
   11e8c:	83 ec 08             	sub    $0x8,%esp
   11e8f:	6a 00                	push   $0x0
   11e91:	68 a1 00 00 00       	push   $0xa1
   11e96:	68 5e 6c 01 00       	push   $0x16c5e
   11e9b:	68 b4 6e 01 00       	push   $0x16eb4
   11ea0:	68 67 6c 01 00       	push   $0x16c67
   11ea5:	68 00 bb 01 00       	push   $0x1bb00
   11eaa:	e8 79 05 00 00       	call   12428 <__sprint>
   11eaf:	83 c4 20             	add    $0x20,%esp
   11eb2:	83 ec 08             	sub    $0x8,%esp
   11eb5:	68 81 6c 01 00       	push   $0x16c81
   11eba:	68 00 bb 01 00       	push   $0x1bb00
   11ebf:	e8 72 09 00 00       	call   12836 <_kpanic>
   11ec4:	83 c4 10             	add    $0x10,%esp
   11ec7:	83 ec 0c             	sub    $0xc,%esp
   11eca:	ff 75 f4             	pushl  -0xc(%ebp)
   11ecd:	e8 12 20 00 00       	call   13ee4 <_schedule>
   11ed2:	83 c4 10             	add    $0x10,%esp
   11ed5:	8b 45 f4             	mov    -0xc(%ebp),%eax
   11ed8:	a3 60 be 01 00       	mov    %eax,0x1be60
   11edd:	c7 05 44 be 01 00 01 	movl   $0x1,0x1be44
   11ee4:	00 00 00 
   11ee7:	83 ec 0c             	sub    $0xc,%esp
   11eea:	6a 02                	push   $0x2
   11eec:	e8 ba 26 00 00       	call   145ab <_sio_enable>
   11ef1:	83 c4 10             	add    $0x10,%esp
   11ef4:	e8 fe 20 00 00       	call   13ff7 <_dispatch>
   11ef9:	83 ec 0c             	sub    $0xc,%esp
   11efc:	68 8c 6c 01 00       	push   $0x16c8c
   11f01:	e8 77 f0 ff ff       	call   10f7d <__cio_puts>
   11f06:	83 c4 10             	add    $0x10,%esp
   11f09:	83 ec 0c             	sub    $0xc,%esp
   11f0c:	68 10 6c 01 00       	push   $0x16c10
   11f11:	e8 67 f0 ff ff       	call   10f7d <__cio_puts>
   11f16:	83 c4 10             	add    $0x10,%esp
   11f19:	90                   	nop
   11f1a:	c9                   	leave  
   11f1b:	c3                   	ret    

00011f1c <_shell>:
   11f1c:	55                   	push   %ebp
   11f1d:	89 e5                	mov    %esp,%ebp
   11f1f:	83 ec 18             	sub    $0x18,%esp
   11f22:	e8 06 f8 ff ff       	call   1172d <__cio_getchar>
   11f27:	83 ec 0c             	sub    $0xc,%esp
   11f2a:	68 b0 6c 01 00       	push   $0x16cb0
   11f2f:	e8 49 f0 ff ff       	call   10f7d <__cio_puts>
   11f34:	83 c4 10             	add    $0x10,%esp
   11f37:	83 7d 08 78          	cmpl   $0x78,0x8(%ebp)
   11f3b:	0f 84 8c 02 00 00    	je     121cd <_shell+0x2b1>
   11f41:	83 7d 08 04          	cmpl   $0x4,0x8(%ebp)
   11f45:	0f 84 82 02 00 00    	je     121cd <_shell+0x2b1>
   11f4b:	8b 45 08             	mov    0x8(%ebp),%eax
   11f4e:	83 f8 63             	cmp    $0x63,%eax
   11f51:	0f 84 0b 01 00 00    	je     12062 <_shell+0x146>
   11f57:	83 f8 63             	cmp    $0x63,%eax
   11f5a:	7f 20                	jg     11f7c <_shell+0x60>
   11f5c:	83 f8 0d             	cmp    $0xd,%eax
   11f5f:	0f 84 4a 02 00 00    	je     121af <_shell+0x293>
   11f65:	83 f8 61             	cmp    $0x61,%eax
   11f68:	0f 84 c6 00 00 00    	je     12034 <_shell+0x118>
   11f6e:	83 f8 0a             	cmp    $0xa,%eax
   11f71:	0f 84 38 02 00 00    	je     121af <_shell+0x293>
   11f77:	e9 9e 01 00 00       	jmp    1211a <_shell+0x1fe>
   11f7c:	83 f8 70             	cmp    $0x70,%eax
   11f7f:	0f 84 c6 00 00 00    	je     1204b <_shell+0x12f>
   11f85:	83 f8 70             	cmp    $0x70,%eax
   11f88:	7f 0e                	jg     11f98 <_shell+0x7c>
   11f8a:	83 f8 68             	cmp    $0x68,%eax
   11f8d:	0f 84 9a 01 00 00    	je     1212d <_shell+0x211>
   11f93:	e9 82 01 00 00       	jmp    1211a <_shell+0x1fe>
   11f98:	83 f8 71             	cmp    $0x71,%eax
   11f9b:	74 0e                	je     11fab <_shell+0x8f>
   11f9d:	83 f8 73             	cmp    $0x73,%eax
   11fa0:	0f 84 d1 00 00 00    	je     12077 <_shell+0x15b>
   11fa6:	e9 6f 01 00 00       	jmp    1211a <_shell+0x1fe>
   11fab:	a1 e0 ba 01 00       	mov    0x1bae0,%eax
   11fb0:	83 ec 08             	sub    $0x8,%esp
   11fb3:	50                   	push   %eax
   11fb4:	68 d1 6c 01 00       	push   $0x16cd1
   11fb9:	e8 77 1d 00 00       	call   13d35 <_que_dump>
   11fbe:	83 c4 10             	add    $0x10,%esp
   11fc1:	a1 d8 be 01 00       	mov    0x1bed8,%eax
   11fc6:	83 ec 08             	sub    $0x8,%esp
   11fc9:	50                   	push   %eax
   11fca:	68 dd 6c 01 00       	push   $0x16cdd
   11fcf:	e8 61 1d 00 00       	call   13d35 <_que_dump>
   11fd4:	83 c4 10             	add    $0x10,%esp
   11fd7:	a1 c4 be 01 00       	mov    0x1bec4,%eax
   11fdc:	83 ec 08             	sub    $0x8,%esp
   11fdf:	50                   	push   %eax
   11fe0:	68 eb 6c 01 00       	push   $0x16ceb
   11fe5:	e8 4b 1d 00 00       	call   13d35 <_que_dump>
   11fea:	83 c4 10             	add    $0x10,%esp
   11fed:	a1 c8 be 01 00       	mov    0x1bec8,%eax
   11ff2:	83 ec 08             	sub    $0x8,%esp
   11ff5:	50                   	push   %eax
   11ff6:	68 f9 6c 01 00       	push   $0x16cf9
   11ffb:	e8 35 1d 00 00       	call   13d35 <_que_dump>
   12000:	83 c4 10             	add    $0x10,%esp
   12003:	a1 cc be 01 00       	mov    0x1becc,%eax
   12008:	83 ec 08             	sub    $0x8,%esp
   1200b:	50                   	push   %eax
   1200c:	68 07 6d 01 00       	push   $0x16d07
   12011:	e8 1f 1d 00 00       	call   13d35 <_que_dump>
   12016:	83 c4 10             	add    $0x10,%esp
   12019:	a1 d0 be 01 00       	mov    0x1bed0,%eax
   1201e:	83 ec 08             	sub    $0x8,%esp
   12021:	50                   	push   %eax
   12022:	68 15 6d 01 00       	push   $0x16d15
   12027:	e8 09 1d 00 00       	call   13d35 <_que_dump>
   1202c:	83 c4 10             	add    $0x10,%esp
   1202f:	e9 7c 01 00 00       	jmp    121b0 <_shell+0x294>
   12034:	83 ec 08             	sub    $0x8,%esp
   12037:	6a 00                	push   $0x0
   12039:	68 23 6d 01 00       	push   $0x16d23
   1203e:	e8 ea 15 00 00       	call   1362d <_active_dump>
   12043:	83 c4 10             	add    $0x10,%esp
   12046:	e9 65 01 00 00       	jmp    121b0 <_shell+0x294>
   1204b:	83 ec 08             	sub    $0x8,%esp
   1204e:	6a 01                	push   $0x1
   12050:	68 23 6d 01 00       	push   $0x16d23
   12055:	e8 d3 15 00 00       	call   1362d <_active_dump>
   1205a:	83 c4 10             	add    $0x10,%esp
   1205d:	e9 4e 01 00 00       	jmp    121b0 <_shell+0x294>
   12062:	83 ec 0c             	sub    $0xc,%esp
   12065:	68 35 6d 01 00       	push   $0x16d35
   1206a:	e8 1c 15 00 00       	call   1358b <_context_dump_all>
   1206f:	83 c4 10             	add    $0x10,%esp
   12072:	e9 39 01 00 00       	jmp    121b0 <_shell+0x294>
   12077:	83 ec 0c             	sub    $0xc,%esp
   1207a:	68 44 6d 01 00       	push   $0x16d44
   1207f:	e8 f9 ee ff ff       	call   10f7d <__cio_puts>
   12084:	83 c4 10             	add    $0x10,%esp
   12087:	c7 45 f4 00 00 00 00 	movl   $0x0,-0xc(%ebp)
   1208e:	eb 7b                	jmp    1210b <_shell+0x1ef>
   12090:	8b 45 f4             	mov    -0xc(%ebp),%eax
   12093:	8b 04 85 60 be 01 00 	mov    0x1be60(,%eax,4),%eax
   1209a:	0f b6 40 14          	movzbl 0x14(%eax),%eax
   1209e:	84 c0                	test   %al,%al
   120a0:	74 65                	je     12107 <_shell+0x1eb>
   120a2:	8b 45 f4             	mov    -0xc(%ebp),%eax
   120a5:	8b 04 85 60 be 01 00 	mov    0x1be60(,%eax,4),%eax
   120ac:	89 45 f0             	mov    %eax,-0x10(%ebp)
   120af:	8b 45 f0             	mov    -0x10(%ebp),%eax
   120b2:	0f b7 40 10          	movzwl 0x10(%eax),%eax
   120b6:	98                   	cwtl   
   120b7:	83 ec 08             	sub    $0x8,%esp
   120ba:	50                   	push   %eax
   120bb:	68 67 6d 01 00       	push   $0x16d67
   120c0:	e8 eb f4 ff ff       	call   115b0 <__cio_printf>
   120c5:	83 c4 10             	add    $0x10,%esp
   120c8:	8b 45 f0             	mov    -0x10(%ebp),%eax
   120cb:	8b 00                	mov    (%eax),%eax
   120cd:	8b 40 3c             	mov    0x3c(%eax),%eax
   120d0:	83 ec 08             	sub    $0x8,%esp
   120d3:	50                   	push   %eax
   120d4:	68 71 6d 01 00       	push   $0x16d71
   120d9:	e8 d2 f4 ff ff       	call   115b0 <__cio_printf>
   120de:	83 c4 10             	add    $0x10,%esp
   120e1:	8b 45 f0             	mov    -0x10(%ebp),%eax
   120e4:	8b 40 04             	mov    0x4(%eax),%eax
   120e7:	83 ec 04             	sub    $0x4,%esp
   120ea:	6a 0c                	push   $0xc
   120ec:	50                   	push   %eax
   120ed:	6a 00                	push   $0x0
   120ef:	e8 79 2a 00 00       	call   14b6d <_stk_dump>
   120f4:	83 c4 10             	add    $0x10,%esp
   120f7:	83 ec 0c             	sub    $0xc,%esp
   120fa:	68 c8 00 00 00       	push   $0xc8
   120ff:	e8 34 fa ff ff       	call   11b38 <__delay>
   12104:	83 c4 10             	add    $0x10,%esp
   12107:	83 45 f4 01          	addl   $0x1,-0xc(%ebp)
   1210b:	83 7d f4 18          	cmpl   $0x18,-0xc(%ebp)
   1210f:	0f 8e 7b ff ff ff    	jle    12090 <_shell+0x174>
   12115:	e9 96 00 00 00       	jmp    121b0 <_shell+0x294>
   1211a:	83 ec 08             	sub    $0x8,%esp
   1211d:	ff 75 08             	pushl  0x8(%ebp)
   12120:	68 7c 6d 01 00       	push   $0x16d7c
   12125:	e8 86 f4 ff ff       	call   115b0 <__cio_printf>
   1212a:	83 c4 10             	add    $0x10,%esp
   1212d:	83 ec 0c             	sub    $0xc,%esp
   12130:	68 9d 6d 01 00       	push   $0x16d9d
   12135:	e8 43 ee ff ff       	call   10f7d <__cio_puts>
   1213a:	83 c4 10             	add    $0x10,%esp
   1213d:	83 ec 0c             	sub    $0xc,%esp
   12140:	68 ac 6d 01 00       	push   $0x16dac
   12145:	e8 33 ee ff ff       	call   10f7d <__cio_puts>
   1214a:	83 c4 10             	add    $0x10,%esp
   1214d:	83 ec 0c             	sub    $0xc,%esp
   12150:	68 cc 6d 01 00       	push   $0x16dcc
   12155:	e8 23 ee ff ff       	call   10f7d <__cio_puts>
   1215a:	83 c4 10             	add    $0x10,%esp
   1215d:	83 ec 0c             	sub    $0xc,%esp
   12160:	68 f9 6d 01 00       	push   $0x16df9
   12165:	e8 13 ee ff ff       	call   10f7d <__cio_puts>
   1216a:	83 c4 10             	add    $0x10,%esp
   1216d:	83 ec 0c             	sub    $0xc,%esp
   12170:	68 10 6e 01 00       	push   $0x16e10
   12175:	e8 03 ee ff ff       	call   10f7d <__cio_puts>
   1217a:	83 c4 10             	add    $0x10,%esp
   1217d:	83 ec 0c             	sub    $0xc,%esp
   12180:	68 3d 6e 01 00       	push   $0x16e3d
   12185:	e8 f3 ed ff ff       	call   10f7d <__cio_puts>
   1218a:	83 c4 10             	add    $0x10,%esp
   1218d:	83 ec 0c             	sub    $0xc,%esp
   12190:	68 58 6e 01 00       	push   $0x16e58
   12195:	e8 e3 ed ff ff       	call   10f7d <__cio_puts>
   1219a:	83 c4 10             	add    $0x10,%esp
   1219d:	83 ec 0c             	sub    $0xc,%esp
   121a0:	68 83 6e 01 00       	push   $0x16e83
   121a5:	e8 d3 ed ff ff       	call   10f7d <__cio_puts>
   121aa:	83 c4 10             	add    $0x10,%esp
   121ad:	eb 01                	jmp    121b0 <_shell+0x294>
   121af:	90                   	nop
   121b0:	83 ec 0c             	sub    $0xc,%esp
   121b3:	68 92 6e 01 00       	push   $0x16e92
   121b8:	e8 c0 ed ff ff       	call   10f7d <__cio_puts>
   121bd:	83 c4 10             	add    $0x10,%esp
   121c0:	e8 68 f5 ff ff       	call   1172d <__cio_getchar>
   121c5:	89 45 08             	mov    %eax,0x8(%ebp)
   121c8:	e9 6a fd ff ff       	jmp    11f37 <_shell+0x1b>
   121cd:	83 ec 0c             	sub    $0xc,%esp
   121d0:	68 96 6e 01 00       	push   $0x16e96
   121d5:	e8 a3 ed ff ff       	call   10f7d <__cio_puts>
   121da:	83 c4 10             	add    $0x10,%esp
   121dd:	e8 4b f5 ff ff       	call   1172d <__cio_getchar>
   121e2:	90                   	nop
   121e3:	c9                   	leave  
   121e4:	c3                   	ret    

000121e5 <__put_char_or_code>:
   121e5:	55                   	push   %ebp
   121e6:	89 e5                	mov    %esp,%ebp
   121e8:	83 ec 08             	sub    $0x8,%esp
   121eb:	83 7d 08 1f          	cmpl   $0x1f,0x8(%ebp)
   121ef:	7e 17                	jle    12208 <__put_char_or_code+0x23>
   121f1:	83 7d 08 7e          	cmpl   $0x7e,0x8(%ebp)
   121f5:	7f 11                	jg     12208 <__put_char_or_code+0x23>
   121f7:	8b 45 08             	mov    0x8(%ebp),%eax
   121fa:	83 ec 0c             	sub    $0xc,%esp
   121fd:	50                   	push   %eax
   121fe:	e8 3a ec ff ff       	call   10e3d <__cio_putchar>
   12203:	83 c4 10             	add    $0x10,%esp
   12206:	eb 13                	jmp    1221b <__put_char_or_code+0x36>
   12208:	83 ec 08             	sub    $0x8,%esp
   1220b:	ff 75 08             	pushl  0x8(%ebp)
   1220e:	68 bc 6e 01 00       	push   $0x16ebc
   12213:	e8 98 f3 ff ff       	call   115b0 <__cio_printf>
   12218:	83 c4 10             	add    $0x10,%esp
   1221b:	90                   	nop
   1221c:	c9                   	leave  
   1221d:	c3                   	ret    

0001221e <__bound>:
   1221e:	55                   	push   %ebp
   1221f:	89 e5                	mov    %esp,%ebp
   12221:	8b 45 0c             	mov    0xc(%ebp),%eax
   12224:	3b 45 08             	cmp    0x8(%ebp),%eax
   12227:	73 06                	jae    1222f <__bound+0x11>
   12229:	8b 45 08             	mov    0x8(%ebp),%eax
   1222c:	89 45 0c             	mov    %eax,0xc(%ebp)
   1222f:	8b 45 0c             	mov    0xc(%ebp),%eax
   12232:	3b 45 10             	cmp    0x10(%ebp),%eax
   12235:	76 06                	jbe    1223d <__bound+0x1f>
   12237:	8b 45 10             	mov    0x10(%ebp),%eax
   1223a:	89 45 0c             	mov    %eax,0xc(%ebp)
   1223d:	8b 45 0c             	mov    0xc(%ebp),%eax
   12240:	5d                   	pop    %ebp
   12241:	c3                   	ret    

00012242 <__memset>:
   12242:	55                   	push   %ebp
   12243:	89 e5                	mov    %esp,%ebp
   12245:	53                   	push   %ebx
   12246:	8b 4d 0c             	mov    0xc(%ebp),%ecx
   12249:	8b 5d 08             	mov    0x8(%ebp),%ebx
   1224c:	eb 0b                	jmp    12259 <__memset+0x17>
   1224e:	89 d8                	mov    %ebx,%eax
   12250:	8d 58 01             	lea    0x1(%eax),%ebx
   12253:	0f b6 55 10          	movzbl 0x10(%ebp),%edx
   12257:	88 10                	mov    %dl,(%eax)
   12259:	89 c8                	mov    %ecx,%eax
   1225b:	8d 48 ff             	lea    -0x1(%eax),%ecx
   1225e:	85 c0                	test   %eax,%eax
   12260:	75 ec                	jne    1224e <__memset+0xc>
   12262:	90                   	nop
   12263:	5b                   	pop    %ebx
   12264:	5d                   	pop    %ebp
   12265:	c3                   	ret    

00012266 <__memclr>:
   12266:	55                   	push   %ebp
   12267:	89 e5                	mov    %esp,%ebp
   12269:	53                   	push   %ebx
   1226a:	8b 55 0c             	mov    0xc(%ebp),%edx
   1226d:	8b 5d 08             	mov    0x8(%ebp),%ebx
   12270:	eb 08                	jmp    1227a <__memclr+0x14>
   12272:	89 d8                	mov    %ebx,%eax
   12274:	8d 58 01             	lea    0x1(%eax),%ebx
   12277:	c6 00 00             	movb   $0x0,(%eax)
   1227a:	89 d0                	mov    %edx,%eax
   1227c:	8d 50 ff             	lea    -0x1(%eax),%edx
   1227f:	85 c0                	test   %eax,%eax
   12281:	75 ef                	jne    12272 <__memclr+0xc>
   12283:	90                   	nop
   12284:	5b                   	pop    %ebx
   12285:	5d                   	pop    %ebp
   12286:	c3                   	ret    

00012287 <__memcpy>:
   12287:	55                   	push   %ebp
   12288:	89 e5                	mov    %esp,%ebp
   1228a:	56                   	push   %esi
   1228b:	53                   	push   %ebx
   1228c:	8b 4d 10             	mov    0x10(%ebp),%ecx
   1228f:	8b 5d 08             	mov    0x8(%ebp),%ebx
   12292:	8b 75 0c             	mov    0xc(%ebp),%esi
   12295:	eb 0f                	jmp    122a6 <__memcpy+0x1f>
   12297:	89 f2                	mov    %esi,%edx
   12299:	8d 72 01             	lea    0x1(%edx),%esi
   1229c:	89 d8                	mov    %ebx,%eax
   1229e:	8d 58 01             	lea    0x1(%eax),%ebx
   122a1:	0f b6 12             	movzbl (%edx),%edx
   122a4:	88 10                	mov    %dl,(%eax)
   122a6:	89 c8                	mov    %ecx,%eax
   122a8:	8d 48 ff             	lea    -0x1(%eax),%ecx
   122ab:	85 c0                	test   %eax,%eax
   122ad:	75 e8                	jne    12297 <__memcpy+0x10>
   122af:	90                   	nop
   122b0:	5b                   	pop    %ebx
   122b1:	5e                   	pop    %esi
   122b2:	5d                   	pop    %ebp
   122b3:	c3                   	ret    

000122b4 <__strlen>:
   122b4:	55                   	push   %ebp
   122b5:	89 e5                	mov    %esp,%ebp
   122b7:	53                   	push   %ebx
   122b8:	8b 55 08             	mov    0x8(%ebp),%edx
   122bb:	bb 00 00 00 00       	mov    $0x0,%ebx
   122c0:	eb 03                	jmp    122c5 <__strlen+0x11>
   122c2:	83 c3 01             	add    $0x1,%ebx
   122c5:	89 d0                	mov    %edx,%eax
   122c7:	8d 50 01             	lea    0x1(%eax),%edx
   122ca:	0f b6 00             	movzbl (%eax),%eax
   122cd:	84 c0                	test   %al,%al
   122cf:	75 f1                	jne    122c2 <__strlen+0xe>
   122d1:	89 d8                	mov    %ebx,%eax
   122d3:	5b                   	pop    %ebx
   122d4:	5d                   	pop    %ebp
   122d5:	c3                   	ret    

000122d6 <__strcmp>:
   122d6:	55                   	push   %ebp
   122d7:	89 e5                	mov    %esp,%ebp
   122d9:	53                   	push   %ebx
   122da:	8b 45 08             	mov    0x8(%ebp),%eax
   122dd:	8b 55 0c             	mov    0xc(%ebp),%edx
   122e0:	eb 06                	jmp    122e8 <__strcmp+0x12>
   122e2:	83 c0 01             	add    $0x1,%eax
   122e5:	83 c2 01             	add    $0x1,%edx
   122e8:	0f b6 08             	movzbl (%eax),%ecx
   122eb:	84 c9                	test   %cl,%cl
   122ed:	74 0a                	je     122f9 <__strcmp+0x23>
   122ef:	0f b6 18             	movzbl (%eax),%ebx
   122f2:	0f b6 0a             	movzbl (%edx),%ecx
   122f5:	38 cb                	cmp    %cl,%bl
   122f7:	74 e9                	je     122e2 <__strcmp+0xc>
   122f9:	0f b6 00             	movzbl (%eax),%eax
   122fc:	0f be c8             	movsbl %al,%ecx
   122ff:	0f b6 02             	movzbl (%edx),%eax
   12302:	0f be c0             	movsbl %al,%eax
   12305:	29 c1                	sub    %eax,%ecx
   12307:	89 c8                	mov    %ecx,%eax
   12309:	5b                   	pop    %ebx
   1230a:	5d                   	pop    %ebp
   1230b:	c3                   	ret    

0001230c <__strcpy>:
   1230c:	55                   	push   %ebp
   1230d:	89 e5                	mov    %esp,%ebp
   1230f:	53                   	push   %ebx
   12310:	83 ec 10             	sub    $0x10,%esp
   12313:	8b 55 08             	mov    0x8(%ebp),%edx
   12316:	8b 5d 0c             	mov    0xc(%ebp),%ebx
   12319:	89 55 f8             	mov    %edx,-0x8(%ebp)
   1231c:	90                   	nop
   1231d:	89 d9                	mov    %ebx,%ecx
   1231f:	8d 59 01             	lea    0x1(%ecx),%ebx
   12322:	89 d0                	mov    %edx,%eax
   12324:	8d 50 01             	lea    0x1(%eax),%edx
   12327:	0f b6 09             	movzbl (%ecx),%ecx
   1232a:	88 08                	mov    %cl,(%eax)
   1232c:	0f b6 00             	movzbl (%eax),%eax
   1232f:	84 c0                	test   %al,%al
   12331:	75 ea                	jne    1231d <__strcpy+0x11>
   12333:	8b 45 f8             	mov    -0x8(%ebp),%eax
   12336:	83 c4 10             	add    $0x10,%esp
   12339:	5b                   	pop    %ebx
   1233a:	5d                   	pop    %ebp
   1233b:	c3                   	ret    

0001233c <__strcat>:
   1233c:	55                   	push   %ebp
   1233d:	89 e5                	mov    %esp,%ebp
   1233f:	56                   	push   %esi
   12340:	53                   	push   %ebx
   12341:	8b 45 08             	mov    0x8(%ebp),%eax
   12344:	8b 75 0c             	mov    0xc(%ebp),%esi
   12347:	89 c3                	mov    %eax,%ebx
   12349:	eb 03                	jmp    1234e <__strcat+0x12>
   1234b:	83 c0 01             	add    $0x1,%eax
   1234e:	0f b6 10             	movzbl (%eax),%edx
   12351:	84 d2                	test   %dl,%dl
   12353:	75 f6                	jne    1234b <__strcat+0xf>
   12355:	90                   	nop
   12356:	89 f1                	mov    %esi,%ecx
   12358:	8d 71 01             	lea    0x1(%ecx),%esi
   1235b:	89 c2                	mov    %eax,%edx
   1235d:	8d 42 01             	lea    0x1(%edx),%eax
   12360:	0f b6 09             	movzbl (%ecx),%ecx
   12363:	88 0a                	mov    %cl,(%edx)
   12365:	0f b6 12             	movzbl (%edx),%edx
   12368:	84 d2                	test   %dl,%dl
   1236a:	75 ea                	jne    12356 <__strcat+0x1a>
   1236c:	89 d8                	mov    %ebx,%eax
   1236e:	5b                   	pop    %ebx
   1236f:	5e                   	pop    %esi
   12370:	5d                   	pop    %ebp
   12371:	c3                   	ret    

00012372 <__pad>:
   12372:	55                   	push   %ebp
   12373:	89 e5                	mov    %esp,%ebp
   12375:	eb 12                	jmp    12389 <__pad+0x17>
   12377:	8b 45 08             	mov    0x8(%ebp),%eax
   1237a:	8d 50 01             	lea    0x1(%eax),%edx
   1237d:	89 55 08             	mov    %edx,0x8(%ebp)
   12380:	8b 55 10             	mov    0x10(%ebp),%edx
   12383:	88 10                	mov    %dl,(%eax)
   12385:	83 6d 0c 01          	subl   $0x1,0xc(%ebp)
   12389:	83 7d 0c 00          	cmpl   $0x0,0xc(%ebp)
   1238d:	7f e8                	jg     12377 <__pad+0x5>
   1238f:	8b 45 08             	mov    0x8(%ebp),%eax
   12392:	5d                   	pop    %ebp
   12393:	c3                   	ret    

00012394 <__padstr>:
   12394:	55                   	push   %ebp
   12395:	89 e5                	mov    %esp,%ebp
   12397:	83 ec 10             	sub    $0x10,%esp
   1239a:	83 7d 10 00          	cmpl   $0x0,0x10(%ebp)
   1239e:	79 0e                	jns    123ae <__padstr+0x1a>
   123a0:	ff 75 0c             	pushl  0xc(%ebp)
   123a3:	e8 0c ff ff ff       	call   122b4 <__strlen>
   123a8:	83 c4 04             	add    $0x4,%esp
   123ab:	89 45 10             	mov    %eax,0x10(%ebp)
   123ae:	8b 45 14             	mov    0x14(%ebp),%eax
   123b1:	2b 45 10             	sub    0x10(%ebp),%eax
   123b4:	89 45 f8             	mov    %eax,-0x8(%ebp)
   123b7:	83 7d f8 00          	cmpl   $0x0,-0x8(%ebp)
   123bb:	7e 1a                	jle    123d7 <__padstr+0x43>
   123bd:	83 7d 18 00          	cmpl   $0x0,0x18(%ebp)
   123c1:	75 14                	jne    123d7 <__padstr+0x43>
   123c3:	ff 75 1c             	pushl  0x1c(%ebp)
   123c6:	ff 75 f8             	pushl  -0x8(%ebp)
   123c9:	ff 75 08             	pushl  0x8(%ebp)
   123cc:	e8 a1 ff ff ff       	call   12372 <__pad>
   123d1:	83 c4 0c             	add    $0xc,%esp
   123d4:	89 45 08             	mov    %eax,0x8(%ebp)
   123d7:	c7 45 fc 00 00 00 00 	movl   $0x0,-0x4(%ebp)
   123de:	eb 1b                	jmp    123fb <__padstr+0x67>
   123e0:	8b 55 fc             	mov    -0x4(%ebp),%edx
   123e3:	8b 45 0c             	mov    0xc(%ebp),%eax
   123e6:	8d 0c 02             	lea    (%edx,%eax,1),%ecx
   123e9:	8b 45 08             	mov    0x8(%ebp),%eax
   123ec:	8d 50 01             	lea    0x1(%eax),%edx
   123ef:	89 55 08             	mov    %edx,0x8(%ebp)
   123f2:	0f b6 11             	movzbl (%ecx),%edx
   123f5:	88 10                	mov    %dl,(%eax)
   123f7:	83 45 fc 01          	addl   $0x1,-0x4(%ebp)
   123fb:	8b 45 fc             	mov    -0x4(%ebp),%eax
   123fe:	3b 45 10             	cmp    0x10(%ebp),%eax
   12401:	7c dd                	jl     123e0 <__padstr+0x4c>
   12403:	83 7d f8 00          	cmpl   $0x0,-0x8(%ebp)
   12407:	7e 1a                	jle    12423 <__padstr+0x8f>
   12409:	83 7d 18 00          	cmpl   $0x0,0x18(%ebp)
   1240d:	74 14                	je     12423 <__padstr+0x8f>
   1240f:	ff 75 1c             	pushl  0x1c(%ebp)
   12412:	ff 75 f8             	pushl  -0x8(%ebp)
   12415:	ff 75 08             	pushl  0x8(%ebp)
   12418:	e8 55 ff ff ff       	call   12372 <__pad>
   1241d:	83 c4 0c             	add    $0xc,%esp
   12420:	89 45 08             	mov    %eax,0x8(%ebp)
   12423:	8b 45 08             	mov    0x8(%ebp),%eax
   12426:	c9                   	leave  
   12427:	c3                   	ret    

00012428 <__sprint>:
   12428:	55                   	push   %ebp
   12429:	89 e5                	mov    %esp,%ebp
   1242b:	83 ec 38             	sub    $0x38,%esp
   1242e:	8d 45 0c             	lea    0xc(%ebp),%eax
   12431:	83 c0 04             	add    $0x4,%eax
   12434:	89 45 f4             	mov    %eax,-0xc(%ebp)
   12437:	e9 fb 01 00 00       	jmp    12637 <__sprint+0x20f>
   1243c:	80 7d f3 25          	cmpb   $0x25,-0xd(%ebp)
   12440:	0f 85 e2 01 00 00    	jne    12628 <__sprint+0x200>
   12446:	c7 45 ec 00 00 00 00 	movl   $0x0,-0x14(%ebp)
   1244d:	c7 45 e4 20 00 00 00 	movl   $0x20,-0x1c(%ebp)
   12454:	c7 45 e8 00 00 00 00 	movl   $0x0,-0x18(%ebp)
   1245b:	8b 45 0c             	mov    0xc(%ebp),%eax
   1245e:	8d 50 01             	lea    0x1(%eax),%edx
   12461:	89 55 0c             	mov    %edx,0xc(%ebp)
   12464:	0f b6 00             	movzbl (%eax),%eax
   12467:	88 45 f3             	mov    %al,-0xd(%ebp)
   1246a:	80 7d f3 2d          	cmpb   $0x2d,-0xd(%ebp)
   1246e:	75 16                	jne    12486 <__sprint+0x5e>
   12470:	c7 45 ec 01 00 00 00 	movl   $0x1,-0x14(%ebp)
   12477:	8b 45 0c             	mov    0xc(%ebp),%eax
   1247a:	8d 50 01             	lea    0x1(%eax),%edx
   1247d:	89 55 0c             	mov    %edx,0xc(%ebp)
   12480:	0f b6 00             	movzbl (%eax),%eax
   12483:	88 45 f3             	mov    %al,-0xd(%ebp)
   12486:	80 7d f3 30          	cmpb   $0x30,-0xd(%ebp)
   1248a:	75 40                	jne    124cc <__sprint+0xa4>
   1248c:	c7 45 e4 30 00 00 00 	movl   $0x30,-0x1c(%ebp)
   12493:	8b 45 0c             	mov    0xc(%ebp),%eax
   12496:	8d 50 01             	lea    0x1(%eax),%edx
   12499:	89 55 0c             	mov    %edx,0xc(%ebp)
   1249c:	0f b6 00             	movzbl (%eax),%eax
   1249f:	88 45 f3             	mov    %al,-0xd(%ebp)
   124a2:	eb 28                	jmp    124cc <__sprint+0xa4>
   124a4:	8b 55 e8             	mov    -0x18(%ebp),%edx
   124a7:	89 d0                	mov    %edx,%eax
   124a9:	c1 e0 02             	shl    $0x2,%eax
   124ac:	01 d0                	add    %edx,%eax
   124ae:	01 c0                	add    %eax,%eax
   124b0:	89 45 e8             	mov    %eax,-0x18(%ebp)
   124b3:	0f be 45 f3          	movsbl -0xd(%ebp),%eax
   124b7:	83 e8 30             	sub    $0x30,%eax
   124ba:	01 45 e8             	add    %eax,-0x18(%ebp)
   124bd:	8b 45 0c             	mov    0xc(%ebp),%eax
   124c0:	8d 50 01             	lea    0x1(%eax),%edx
   124c3:	89 55 0c             	mov    %edx,0xc(%ebp)
   124c6:	0f b6 00             	movzbl (%eax),%eax
   124c9:	88 45 f3             	mov    %al,-0xd(%ebp)
   124cc:	80 7d f3 2f          	cmpb   $0x2f,-0xd(%ebp)
   124d0:	7e 06                	jle    124d8 <__sprint+0xb0>
   124d2:	80 7d f3 39          	cmpb   $0x39,-0xd(%ebp)
   124d6:	7e cc                	jle    124a4 <__sprint+0x7c>
   124d8:	0f be 45 f3          	movsbl -0xd(%ebp),%eax
   124dc:	83 e8 63             	sub    $0x63,%eax
   124df:	83 f8 15             	cmp    $0x15,%eax
   124e2:	0f 87 4f 01 00 00    	ja     12637 <__sprint+0x20f>
   124e8:	8b 04 85 c4 6e 01 00 	mov    0x16ec4(,%eax,4),%eax
   124ef:	ff e0                	jmp    *%eax
   124f1:	8b 45 f4             	mov    -0xc(%ebp),%eax
   124f4:	8d 50 04             	lea    0x4(%eax),%edx
   124f7:	89 55 f4             	mov    %edx,-0xc(%ebp)
   124fa:	8b 00                	mov    (%eax),%eax
   124fc:	88 45 f3             	mov    %al,-0xd(%ebp)
   124ff:	0f b6 45 f3          	movzbl -0xd(%ebp),%eax
   12503:	88 45 d0             	mov    %al,-0x30(%ebp)
   12506:	c6 45 d1 00          	movb   $0x0,-0x2f(%ebp)
   1250a:	ff 75 e4             	pushl  -0x1c(%ebp)
   1250d:	ff 75 ec             	pushl  -0x14(%ebp)
   12510:	ff 75 e8             	pushl  -0x18(%ebp)
   12513:	6a 01                	push   $0x1
   12515:	8d 45 d0             	lea    -0x30(%ebp),%eax
   12518:	50                   	push   %eax
   12519:	ff 75 08             	pushl  0x8(%ebp)
   1251c:	e8 73 fe ff ff       	call   12394 <__padstr>
   12521:	83 c4 18             	add    $0x18,%esp
   12524:	89 45 08             	mov    %eax,0x8(%ebp)
   12527:	e9 0b 01 00 00       	jmp    12637 <__sprint+0x20f>
   1252c:	8b 45 f4             	mov    -0xc(%ebp),%eax
   1252f:	8d 50 04             	lea    0x4(%eax),%edx
   12532:	89 55 f4             	mov    %edx,-0xc(%ebp)
   12535:	8b 00                	mov    (%eax),%eax
   12537:	83 ec 08             	sub    $0x8,%esp
   1253a:	50                   	push   %eax
   1253b:	8d 45 d0             	lea    -0x30(%ebp),%eax
   1253e:	50                   	push   %eax
   1253f:	e8 9e 01 00 00       	call   126e2 <__cvtdec>
   12544:	83 c4 10             	add    $0x10,%esp
   12547:	89 45 e0             	mov    %eax,-0x20(%ebp)
   1254a:	83 ec 08             	sub    $0x8,%esp
   1254d:	ff 75 e4             	pushl  -0x1c(%ebp)
   12550:	ff 75 ec             	pushl  -0x14(%ebp)
   12553:	ff 75 e8             	pushl  -0x18(%ebp)
   12556:	ff 75 e0             	pushl  -0x20(%ebp)
   12559:	8d 45 d0             	lea    -0x30(%ebp),%eax
   1255c:	50                   	push   %eax
   1255d:	ff 75 08             	pushl  0x8(%ebp)
   12560:	e8 2f fe ff ff       	call   12394 <__padstr>
   12565:	83 c4 20             	add    $0x20,%esp
   12568:	89 45 08             	mov    %eax,0x8(%ebp)
   1256b:	e9 c7 00 00 00       	jmp    12637 <__sprint+0x20f>
   12570:	8b 45 f4             	mov    -0xc(%ebp),%eax
   12573:	8d 50 04             	lea    0x4(%eax),%edx
   12576:	89 55 f4             	mov    %edx,-0xc(%ebp)
   12579:	8b 00                	mov    (%eax),%eax
   1257b:	89 45 dc             	mov    %eax,-0x24(%ebp)
   1257e:	83 ec 08             	sub    $0x8,%esp
   12581:	ff 75 e4             	pushl  -0x1c(%ebp)
   12584:	ff 75 ec             	pushl  -0x14(%ebp)
   12587:	ff 75 e8             	pushl  -0x18(%ebp)
   1258a:	6a ff                	push   $0xffffffff
   1258c:	ff 75 dc             	pushl  -0x24(%ebp)
   1258f:	ff 75 08             	pushl  0x8(%ebp)
   12592:	e8 fd fd ff ff       	call   12394 <__padstr>
   12597:	83 c4 20             	add    $0x20,%esp
   1259a:	89 45 08             	mov    %eax,0x8(%ebp)
   1259d:	e9 95 00 00 00       	jmp    12637 <__sprint+0x20f>
   125a2:	8b 45 f4             	mov    -0xc(%ebp),%eax
   125a5:	8d 50 04             	lea    0x4(%eax),%edx
   125a8:	89 55 f4             	mov    %edx,-0xc(%ebp)
   125ab:	8b 00                	mov    (%eax),%eax
   125ad:	83 ec 08             	sub    $0x8,%esp
   125b0:	50                   	push   %eax
   125b1:	8d 45 d0             	lea    -0x30(%ebp),%eax
   125b4:	50                   	push   %eax
   125b5:	e8 6f 01 00 00       	call   12729 <__cvthex>
   125ba:	83 c4 10             	add    $0x10,%esp
   125bd:	83 c0 02             	add    $0x2,%eax
   125c0:	89 45 e0             	mov    %eax,-0x20(%ebp)
   125c3:	83 ec 08             	sub    $0x8,%esp
   125c6:	ff 75 e4             	pushl  -0x1c(%ebp)
   125c9:	ff 75 ec             	pushl  -0x14(%ebp)
   125cc:	ff 75 e8             	pushl  -0x18(%ebp)
   125cf:	ff 75 e0             	pushl  -0x20(%ebp)
   125d2:	8d 45 d0             	lea    -0x30(%ebp),%eax
   125d5:	50                   	push   %eax
   125d6:	ff 75 08             	pushl  0x8(%ebp)
   125d9:	e8 b6 fd ff ff       	call   12394 <__padstr>
   125de:	83 c4 20             	add    $0x20,%esp
   125e1:	89 45 08             	mov    %eax,0x8(%ebp)
   125e4:	eb 51                	jmp    12637 <__sprint+0x20f>
   125e6:	8b 45 f4             	mov    -0xc(%ebp),%eax
   125e9:	8d 50 04             	lea    0x4(%eax),%edx
   125ec:	89 55 f4             	mov    %edx,-0xc(%ebp)
   125ef:	8b 00                	mov    (%eax),%eax
   125f1:	83 ec 08             	sub    $0x8,%esp
   125f4:	50                   	push   %eax
   125f5:	8d 45 d0             	lea    -0x30(%ebp),%eax
   125f8:	50                   	push   %eax
   125f9:	e8 aa 01 00 00       	call   127a8 <__cvtoct>
   125fe:	83 c4 10             	add    $0x10,%esp
   12601:	89 45 e0             	mov    %eax,-0x20(%ebp)
   12604:	83 ec 08             	sub    $0x8,%esp
   12607:	ff 75 e4             	pushl  -0x1c(%ebp)
   1260a:	ff 75 ec             	pushl  -0x14(%ebp)
   1260d:	ff 75 e8             	pushl  -0x18(%ebp)
   12610:	ff 75 e0             	pushl  -0x20(%ebp)
   12613:	8d 45 d0             	lea    -0x30(%ebp),%eax
   12616:	50                   	push   %eax
   12617:	ff 75 08             	pushl  0x8(%ebp)
   1261a:	e8 75 fd ff ff       	call   12394 <__padstr>
   1261f:	83 c4 20             	add    $0x20,%esp
   12622:	89 45 08             	mov    %eax,0x8(%ebp)
   12625:	90                   	nop
   12626:	eb 0f                	jmp    12637 <__sprint+0x20f>
   12628:	8b 45 08             	mov    0x8(%ebp),%eax
   1262b:	8d 50 01             	lea    0x1(%eax),%edx
   1262e:	89 55 08             	mov    %edx,0x8(%ebp)
   12631:	0f b6 55 f3          	movzbl -0xd(%ebp),%edx
   12635:	88 10                	mov    %dl,(%eax)
   12637:	8b 45 0c             	mov    0xc(%ebp),%eax
   1263a:	8d 50 01             	lea    0x1(%eax),%edx
   1263d:	89 55 0c             	mov    %edx,0xc(%ebp)
   12640:	0f b6 00             	movzbl (%eax),%eax
   12643:	88 45 f3             	mov    %al,-0xd(%ebp)
   12646:	80 7d f3 00          	cmpb   $0x0,-0xd(%ebp)
   1264a:	0f 85 ec fd ff ff    	jne    1243c <__sprint+0x14>
   12650:	8b 45 08             	mov    0x8(%ebp),%eax
   12653:	c6 00 00             	movb   $0x0,(%eax)
   12656:	90                   	nop
   12657:	c9                   	leave  
   12658:	c3                   	ret    

00012659 <__cvtdec0>:
   12659:	55                   	push   %ebp
   1265a:	89 e5                	mov    %esp,%ebp
   1265c:	83 ec 18             	sub    $0x18,%esp
   1265f:	8b 4d 0c             	mov    0xc(%ebp),%ecx
   12662:	ba 67 66 66 66       	mov    $0x66666667,%edx
   12667:	89 c8                	mov    %ecx,%eax
   12669:	f7 ea                	imul   %edx
   1266b:	c1 fa 02             	sar    $0x2,%edx
   1266e:	89 c8                	mov    %ecx,%eax
   12670:	c1 f8 1f             	sar    $0x1f,%eax
   12673:	29 c2                	sub    %eax,%edx
   12675:	89 d0                	mov    %edx,%eax
   12677:	89 45 f4             	mov    %eax,-0xc(%ebp)
   1267a:	83 7d f4 00          	cmpl   $0x0,-0xc(%ebp)
   1267e:	79 0e                	jns    1268e <__cvtdec0+0x35>
   12680:	c7 45 f4 cc cc cc 0c 	movl   $0xccccccc,-0xc(%ebp)
   12687:	c7 45 0c 08 00 00 00 	movl   $0x8,0xc(%ebp)
   1268e:	83 7d f4 00          	cmpl   $0x0,-0xc(%ebp)
   12692:	74 14                	je     126a8 <__cvtdec0+0x4f>
   12694:	83 ec 08             	sub    $0x8,%esp
   12697:	ff 75 f4             	pushl  -0xc(%ebp)
   1269a:	ff 75 08             	pushl  0x8(%ebp)
   1269d:	e8 b7 ff ff ff       	call   12659 <__cvtdec0>
   126a2:	83 c4 10             	add    $0x10,%esp
   126a5:	89 45 08             	mov    %eax,0x8(%ebp)
   126a8:	8b 4d 0c             	mov    0xc(%ebp),%ecx
   126ab:	ba 67 66 66 66       	mov    $0x66666667,%edx
   126b0:	89 c8                	mov    %ecx,%eax
   126b2:	f7 ea                	imul   %edx
   126b4:	c1 fa 02             	sar    $0x2,%edx
   126b7:	89 c8                	mov    %ecx,%eax
   126b9:	c1 f8 1f             	sar    $0x1f,%eax
   126bc:	29 c2                	sub    %eax,%edx
   126be:	89 d0                	mov    %edx,%eax
   126c0:	c1 e0 02             	shl    $0x2,%eax
   126c3:	01 d0                	add    %edx,%eax
   126c5:	01 c0                	add    %eax,%eax
   126c7:	29 c1                	sub    %eax,%ecx
   126c9:	89 ca                	mov    %ecx,%edx
   126cb:	89 d0                	mov    %edx,%eax
   126cd:	8d 48 30             	lea    0x30(%eax),%ecx
   126d0:	8b 45 08             	mov    0x8(%ebp),%eax
   126d3:	8d 50 01             	lea    0x1(%eax),%edx
   126d6:	89 55 08             	mov    %edx,0x8(%ebp)
   126d9:	89 ca                	mov    %ecx,%edx
   126db:	88 10                	mov    %dl,(%eax)
   126dd:	8b 45 08             	mov    0x8(%ebp),%eax
   126e0:	c9                   	leave  
   126e1:	c3                   	ret    

000126e2 <__cvtdec>:
   126e2:	55                   	push   %ebp
   126e3:	89 e5                	mov    %esp,%ebp
   126e5:	83 ec 18             	sub    $0x18,%esp
   126e8:	8b 45 08             	mov    0x8(%ebp),%eax
   126eb:	89 45 f4             	mov    %eax,-0xc(%ebp)
   126ee:	83 7d 0c 00          	cmpl   $0x0,0xc(%ebp)
   126f2:	79 0f                	jns    12703 <__cvtdec+0x21>
   126f4:	8b 45 f4             	mov    -0xc(%ebp),%eax
   126f7:	8d 50 01             	lea    0x1(%eax),%edx
   126fa:	89 55 f4             	mov    %edx,-0xc(%ebp)
   126fd:	c6 00 2d             	movb   $0x2d,(%eax)
   12700:	f7 5d 0c             	negl   0xc(%ebp)
   12703:	83 ec 08             	sub    $0x8,%esp
   12706:	ff 75 0c             	pushl  0xc(%ebp)
   12709:	ff 75 f4             	pushl  -0xc(%ebp)
   1270c:	e8 48 ff ff ff       	call   12659 <__cvtdec0>
   12711:	83 c4 10             	add    $0x10,%esp
   12714:	89 45 f4             	mov    %eax,-0xc(%ebp)
   12717:	8b 45 f4             	mov    -0xc(%ebp),%eax
   1271a:	c6 00 00             	movb   $0x0,(%eax)
   1271d:	8b 55 f4             	mov    -0xc(%ebp),%edx
   12720:	8b 45 08             	mov    0x8(%ebp),%eax
   12723:	29 c2                	sub    %eax,%edx
   12725:	89 d0                	mov    %edx,%eax
   12727:	c9                   	leave  
   12728:	c3                   	ret    

00012729 <__cvthex>:
   12729:	55                   	push   %ebp
   1272a:	89 e5                	mov    %esp,%ebp
   1272c:	83 ec 10             	sub    $0x10,%esp
   1272f:	c7 45 f8 00 00 00 00 	movl   $0x0,-0x8(%ebp)
   12736:	8b 45 08             	mov    0x8(%ebp),%eax
   12739:	89 45 f4             	mov    %eax,-0xc(%ebp)
   1273c:	c7 45 fc 00 00 00 00 	movl   $0x0,-0x4(%ebp)
   12743:	eb 4b                	jmp    12790 <__cvthex+0x67>
   12745:	8b 45 0c             	mov    0xc(%ebp),%eax
   12748:	25 00 00 00 f0       	and    $0xf0000000,%eax
   1274d:	89 45 f0             	mov    %eax,-0x10(%ebp)
   12750:	83 7d fc 07          	cmpl   $0x7,-0x4(%ebp)
   12754:	74 0c                	je     12762 <__cvthex+0x39>
   12756:	83 7d f0 00          	cmpl   $0x0,-0x10(%ebp)
   1275a:	75 06                	jne    12762 <__cvthex+0x39>
   1275c:	83 7d f8 00          	cmpl   $0x0,-0x8(%ebp)
   12760:	74 26                	je     12788 <__cvthex+0x5f>
   12762:	c7 45 f8 01 00 00 00 	movl   $0x1,-0x8(%ebp)
   12769:	c1 7d f0 1c          	sarl   $0x1c,-0x10(%ebp)
   1276d:	83 65 f0 0f          	andl   $0xf,-0x10(%ebp)
   12771:	8b 45 f4             	mov    -0xc(%ebp),%eax
   12774:	8d 50 01             	lea    0x1(%eax),%edx
   12777:	89 55 f4             	mov    %edx,-0xc(%ebp)
   1277a:	8b 55 f0             	mov    -0x10(%ebp),%edx
   1277d:	81 c2 0c a5 01 00    	add    $0x1a50c,%edx
   12783:	0f b6 12             	movzbl (%edx),%edx
   12786:	88 10                	mov    %dl,(%eax)
   12788:	c1 65 0c 04          	shll   $0x4,0xc(%ebp)
   1278c:	83 45 fc 01          	addl   $0x1,-0x4(%ebp)
   12790:	83 7d fc 07          	cmpl   $0x7,-0x4(%ebp)
   12794:	7e af                	jle    12745 <__cvthex+0x1c>
   12796:	8b 45 f4             	mov    -0xc(%ebp),%eax
   12799:	c6 00 00             	movb   $0x0,(%eax)
   1279c:	8b 55 f4             	mov    -0xc(%ebp),%edx
   1279f:	8b 45 08             	mov    0x8(%ebp),%eax
   127a2:	29 c2                	sub    %eax,%edx
   127a4:	89 d0                	mov    %edx,%eax
   127a6:	c9                   	leave  
   127a7:	c3                   	ret    

000127a8 <__cvtoct>:
   127a8:	55                   	push   %ebp
   127a9:	89 e5                	mov    %esp,%ebp
   127ab:	83 ec 10             	sub    $0x10,%esp
   127ae:	c7 45 f8 00 00 00 00 	movl   $0x0,-0x8(%ebp)
   127b5:	8b 45 08             	mov    0x8(%ebp),%eax
   127b8:	89 45 f4             	mov    %eax,-0xc(%ebp)
   127bb:	8b 45 0c             	mov    0xc(%ebp),%eax
   127be:	25 00 00 00 c0       	and    $0xc0000000,%eax
   127c3:	89 45 f0             	mov    %eax,-0x10(%ebp)
   127c6:	c1 7d f0 1e          	sarl   $0x1e,-0x10(%ebp)
   127ca:	c7 45 fc 00 00 00 00 	movl   $0x0,-0x4(%ebp)
   127d1:	eb 4b                	jmp    1281e <__cvtoct+0x76>
   127d3:	83 7d fc 0a          	cmpl   $0xa,-0x4(%ebp)
   127d7:	74 0c                	je     127e5 <__cvtoct+0x3d>
   127d9:	83 7d f0 00          	cmpl   $0x0,-0x10(%ebp)
   127dd:	75 06                	jne    127e5 <__cvtoct+0x3d>
   127df:	83 7d f8 00          	cmpl   $0x0,-0x8(%ebp)
   127e3:	74 22                	je     12807 <__cvtoct+0x5f>
   127e5:	c7 45 f8 01 00 00 00 	movl   $0x1,-0x8(%ebp)
   127ec:	83 65 f0 07          	andl   $0x7,-0x10(%ebp)
   127f0:	8b 45 f4             	mov    -0xc(%ebp),%eax
   127f3:	8d 50 01             	lea    0x1(%eax),%edx
   127f6:	89 55 f4             	mov    %edx,-0xc(%ebp)
   127f9:	8b 55 f0             	mov    -0x10(%ebp),%edx
   127fc:	81 c2 0c a5 01 00    	add    $0x1a50c,%edx
   12802:	0f b6 12             	movzbl (%edx),%edx
   12805:	88 10                	mov    %dl,(%eax)
   12807:	c1 65 0c 03          	shll   $0x3,0xc(%ebp)
   1280b:	8b 45 0c             	mov    0xc(%ebp),%eax
   1280e:	25 00 00 00 e0       	and    $0xe0000000,%eax
   12813:	89 45 f0             	mov    %eax,-0x10(%ebp)
   12816:	c1 7d f0 1d          	sarl   $0x1d,-0x10(%ebp)
   1281a:	83 45 fc 01          	addl   $0x1,-0x4(%ebp)
   1281e:	83 7d fc 0a          	cmpl   $0xa,-0x4(%ebp)
   12822:	7e af                	jle    127d3 <__cvtoct+0x2b>
   12824:	8b 45 f4             	mov    -0xc(%ebp),%eax
   12827:	c6 00 00             	movb   $0x0,(%eax)
   1282a:	8b 55 f4             	mov    -0xc(%ebp),%edx
   1282d:	8b 45 08             	mov    0x8(%ebp),%eax
   12830:	29 c2                	sub    %eax,%edx
   12832:	89 d0                	mov    %edx,%eax
   12834:	c9                   	leave  
   12835:	c3                   	ret    

00012836 <_kpanic>:
   12836:	55                   	push   %ebp
   12837:	89 e5                	mov    %esp,%ebp
   12839:	83 ec 08             	sub    $0x8,%esp
   1283c:	83 ec 0c             	sub    $0xc,%esp
   1283f:	68 1c 6f 01 00       	push   $0x16f1c
   12844:	e8 34 e7 ff ff       	call   10f7d <__cio_puts>
   12849:	83 c4 10             	add    $0x10,%esp
   1284c:	83 7d 0c 00          	cmpl   $0x0,0xc(%ebp)
   12850:	74 05                	je     12857 <_kpanic+0x21>
   12852:	8b 45 0c             	mov    0xc(%ebp),%eax
   12855:	eb 05                	jmp    1285c <_kpanic+0x26>
   12857:	b8 39 6f 01 00       	mov    $0x16f39,%eax
   1285c:	83 ec 04             	sub    $0x4,%esp
   1285f:	50                   	push   %eax
   12860:	ff 75 08             	pushl  0x8(%ebp)
   12863:	68 40 6f 01 00       	push   $0x16f40
   12868:	e8 43 ed ff ff       	call   115b0 <__cio_printf>
   1286d:	83 c4 10             	add    $0x10,%esp
   12870:	83 ec 0c             	sub    $0xc,%esp
   12873:	68 54 6f 01 00       	push   $0x16f54
   12878:	e8 67 f2 ff ff       	call   11ae4 <__panic>
   1287d:	83 c4 10             	add    $0x10,%esp
   12880:	90                   	nop
   12881:	c9                   	leave  
   12882:	c3                   	ret    

00012883 <_add_block>:
   12883:	55                   	push   %ebp
   12884:	89 e5                	mov    %esp,%ebp
   12886:	83 ec 18             	sub    $0x18,%esp
   12889:	81 7d 0c ff 0f 00 00 	cmpl   $0xfff,0xc(%ebp)
   12890:	0f 86 d9 00 00 00    	jbe    1296f <_add_block+0xec>
   12896:	8b 45 0c             	mov    0xc(%ebp),%eax
   12899:	25 ff 0f 00 00       	and    $0xfff,%eax
   1289e:	85 c0                	test   %eax,%eax
   128a0:	74 07                	je     128a9 <_add_block+0x26>
   128a2:	81 65 0c 00 f0 ff ff 	andl   $0xfffff000,0xc(%ebp)
   128a9:	8b 45 08             	mov    0x8(%ebp),%eax
   128ac:	89 45 ec             	mov    %eax,-0x14(%ebp)
   128af:	8b 45 0c             	mov    0xc(%ebp),%eax
   128b2:	c1 e8 0c             	shr    $0xc,%eax
   128b5:	89 c2                	mov    %eax,%edx
   128b7:	8b 45 ec             	mov    -0x14(%ebp),%eax
   128ba:	89 10                	mov    %edx,(%eax)
   128bc:	8b 45 ec             	mov    -0x14(%ebp),%eax
   128bf:	c7 40 04 00 00 00 00 	movl   $0x0,0x4(%eax)
   128c6:	a1 14 a6 01 00       	mov    0x1a614,%eax
   128cb:	85 c0                	test   %eax,%eax
   128cd:	75 0d                	jne    128dc <_add_block+0x59>
   128cf:	8b 45 ec             	mov    -0x14(%ebp),%eax
   128d2:	a3 14 a6 01 00       	mov    %eax,0x1a614
   128d7:	e9 94 00 00 00       	jmp    12970 <_add_block+0xed>
   128dc:	c7 45 f4 00 00 00 00 	movl   $0x0,-0xc(%ebp)
   128e3:	a1 14 a6 01 00       	mov    0x1a614,%eax
   128e8:	89 45 f0             	mov    %eax,-0x10(%ebp)
   128eb:	eb 0f                	jmp    128fc <_add_block+0x79>
   128ed:	8b 45 f0             	mov    -0x10(%ebp),%eax
   128f0:	89 45 f4             	mov    %eax,-0xc(%ebp)
   128f3:	8b 45 f0             	mov    -0x10(%ebp),%eax
   128f6:	8b 40 04             	mov    0x4(%eax),%eax
   128f9:	89 45 f0             	mov    %eax,-0x10(%ebp)
   128fc:	83 7d f0 00          	cmpl   $0x0,-0x10(%ebp)
   12900:	74 08                	je     1290a <_add_block+0x87>
   12902:	8b 45 f0             	mov    -0x10(%ebp),%eax
   12905:	3b 45 ec             	cmp    -0x14(%ebp),%eax
   12908:	72 e3                	jb     128ed <_add_block+0x6a>
   1290a:	8b 45 ec             	mov    -0x14(%ebp),%eax
   1290d:	8b 55 f0             	mov    -0x10(%ebp),%edx
   12910:	89 50 04             	mov    %edx,0x4(%eax)
   12913:	83 7d f4 00          	cmpl   $0x0,-0xc(%ebp)
   12917:	75 4b                	jne    12964 <_add_block+0xe1>
   12919:	83 7d f0 00          	cmpl   $0x0,-0x10(%ebp)
   1291d:	75 3b                	jne    1295a <_add_block+0xd7>
   1291f:	83 ec 08             	sub    $0x8,%esp
   12922:	6a 00                	push   $0x0
   12924:	68 f5 00 00 00       	push   $0xf5
   12929:	68 64 6f 01 00       	push   $0x16f64
   1292e:	68 04 70 01 00       	push   $0x17004
   12933:	68 6b 6f 01 00       	push   $0x16f6b
   12938:	68 00 bb 01 00       	push   $0x1bb00
   1293d:	e8 e6 fa ff ff       	call   12428 <__sprint>
   12942:	83 c4 20             	add    $0x20,%esp
   12945:	83 ec 08             	sub    $0x8,%esp
   12948:	68 85 6f 01 00       	push   $0x16f85
   1294d:	68 00 bb 01 00       	push   $0x1bb00
   12952:	e8 df fe ff ff       	call   12836 <_kpanic>
   12957:	83 c4 10             	add    $0x10,%esp
   1295a:	8b 45 ec             	mov    -0x14(%ebp),%eax
   1295d:	a3 14 a6 01 00       	mov    %eax,0x1a614
   12962:	eb 0c                	jmp    12970 <_add_block+0xed>
   12964:	8b 45 f4             	mov    -0xc(%ebp),%eax
   12967:	8b 55 ec             	mov    -0x14(%ebp),%edx
   1296a:	89 50 04             	mov    %edx,0x4(%eax)
   1296d:	eb 01                	jmp    12970 <_add_block+0xed>
   1296f:	90                   	nop
   12970:	c9                   	leave  
   12971:	c3                   	ret    

00012972 <_km_init>:
   12972:	55                   	push   %ebp
   12973:	89 e5                	mov    %esp,%ebp
   12975:	56                   	push   %esi
   12976:	53                   	push   %ebx
   12977:	83 ec 60             	sub    $0x60,%esp
   1297a:	83 ec 0c             	sub    $0xc,%esp
   1297d:	68 8a 6f 01 00       	push   $0x16f8a
   12982:	e8 f6 e5 ff ff       	call   10f7d <__cio_puts>
   12987:	83 c4 10             	add    $0x10,%esp
   1298a:	c7 05 18 a6 01 00 00 	movl   $0x0,0x1a618
   12991:	00 00 00 
   12994:	c7 05 14 a6 01 00 00 	movl   $0x0,0x1a614
   1299b:	00 00 00 
   1299e:	b8 04 c7 01 00       	mov    $0x1c704,%eax
   129a3:	89 45 e8             	mov    %eax,-0x18(%ebp)
   129a6:	c7 45 ec 00 00 00 00 	movl   $0x0,-0x14(%ebp)
   129ad:	8b 45 e8             	mov    -0x18(%ebp),%eax
   129b0:	25 ff 0f 00 00       	and    $0xfff,%eax
   129b5:	89 45 a0             	mov    %eax,-0x60(%ebp)
   129b8:	8b 45 ec             	mov    -0x14(%ebp),%eax
   129bb:	83 e0 00             	and    $0x0,%eax
   129be:	89 45 a4             	mov    %eax,-0x5c(%ebp)
   129c1:	8b 45 a0             	mov    -0x60(%ebp),%eax
   129c4:	8b 55 a4             	mov    -0x5c(%ebp),%edx
   129c7:	89 c1                	mov    %eax,%ecx
   129c9:	80 f5 00             	xor    $0x0,%ch
   129cc:	89 cb                	mov    %ecx,%ebx
   129ce:	89 d0                	mov    %edx,%eax
   129d0:	80 f4 00             	xor    $0x0,%ah
   129d3:	89 c6                	mov    %eax,%esi
   129d5:	89 f0                	mov    %esi,%eax
   129d7:	09 d8                	or     %ebx,%eax
   129d9:	85 c0                	test   %eax,%eax
   129db:	74 16                	je     129f3 <_km_init+0x81>
   129dd:	81 65 e8 00 f0 ff ff 	andl   $0xfffff000,-0x18(%ebp)
   129e4:	83 65 ec 00          	andl   $0x0,-0x14(%ebp)
   129e8:	81 45 e8 00 10 00 00 	addl   $0x1000,-0x18(%ebp)
   129ef:	83 55 ec 00          	adcl   $0x0,-0x14(%ebp)
   129f3:	b8 00 2d 00 00       	mov    $0x2d00,%eax
   129f8:	8b 00                	mov    (%eax),%eax
   129fa:	89 45 cc             	mov    %eax,-0x34(%ebp)
   129fd:	83 7d cc 00          	cmpl   $0x0,-0x34(%ebp)
   12a01:	0f 8e 6b 01 00 00    	jle    12b72 <_km_init+0x200>
   12a07:	c7 45 f4 04 2d 00 00 	movl   $0x2d04,-0xc(%ebp)
   12a0e:	c7 45 e4 00 00 00 00 	movl   $0x0,-0x1c(%ebp)
   12a15:	e9 30 01 00 00       	jmp    12b4a <_km_init+0x1d8>
   12a1a:	8b 45 f4             	mov    -0xc(%ebp),%eax
   12a1d:	8b 40 14             	mov    0x14(%eax),%eax
   12a20:	83 e0 01             	and    $0x1,%eax
   12a23:	85 c0                	test   %eax,%eax
   12a25:	0f 84 0a 01 00 00    	je     12b35 <_km_init+0x1c3>
   12a2b:	8b 45 f4             	mov    -0xc(%ebp),%eax
   12a2e:	8b 40 14             	mov    0x14(%eax),%eax
   12a31:	83 e0 02             	and    $0x2,%eax
   12a34:	85 c0                	test   %eax,%eax
   12a36:	0f 85 fc 00 00 00    	jne    12b38 <_km_init+0x1c6>
   12a3c:	8b 45 f4             	mov    -0xc(%ebp),%eax
   12a3f:	8b 40 10             	mov    0x10(%eax),%eax
   12a42:	83 f8 01             	cmp    $0x1,%eax
   12a45:	0f 85 f0 00 00 00    	jne    12b3b <_km_init+0x1c9>
   12a4b:	8b 45 f4             	mov    -0xc(%ebp),%eax
   12a4e:	8b 40 04             	mov    0x4(%eax),%eax
   12a51:	85 c0                	test   %eax,%eax
   12a53:	0f 85 e5 00 00 00    	jne    12b3e <_km_init+0x1cc>
   12a59:	8b 45 f4             	mov    -0xc(%ebp),%eax
   12a5c:	8b 50 04             	mov    0x4(%eax),%edx
   12a5f:	8b 00                	mov    (%eax),%eax
   12a61:	89 45 d8             	mov    %eax,-0x28(%ebp)
   12a64:	89 55 dc             	mov    %edx,-0x24(%ebp)
   12a67:	8b 45 f4             	mov    -0xc(%ebp),%eax
   12a6a:	8b 50 0c             	mov    0xc(%eax),%edx
   12a6d:	8b 40 08             	mov    0x8(%eax),%eax
   12a70:	89 45 d0             	mov    %eax,-0x30(%ebp)
   12a73:	89 55 d4             	mov    %edx,-0x2c(%ebp)
   12a76:	8b 45 d8             	mov    -0x28(%ebp),%eax
   12a79:	8b 55 dc             	mov    -0x24(%ebp),%edx
   12a7c:	3b 55 ec             	cmp    -0x14(%ebp),%edx
   12a7f:	77 5b                	ja     12adc <_km_init+0x16a>
   12a81:	3b 55 ec             	cmp    -0x14(%ebp),%edx
   12a84:	72 05                	jb     12a8b <_km_init+0x119>
   12a86:	3b 45 e8             	cmp    -0x18(%ebp),%eax
   12a89:	73 51                	jae    12adc <_km_init+0x16a>
   12a8b:	8b 4d d8             	mov    -0x28(%ebp),%ecx
   12a8e:	8b 5d dc             	mov    -0x24(%ebp),%ebx
   12a91:	8b 45 d0             	mov    -0x30(%ebp),%eax
   12a94:	8b 55 d4             	mov    -0x2c(%ebp),%edx
   12a97:	01 c8                	add    %ecx,%eax
   12a99:	11 da                	adc    %ebx,%edx
   12a9b:	39 55 ec             	cmp    %edx,-0x14(%ebp)
   12a9e:	72 12                	jb     12ab2 <_km_init+0x140>
   12aa0:	39 55 ec             	cmp    %edx,-0x14(%ebp)
   12aa3:	0f 87 98 00 00 00    	ja     12b41 <_km_init+0x1cf>
   12aa9:	39 45 e8             	cmp    %eax,-0x18(%ebp)
   12aac:	0f 87 8f 00 00 00    	ja     12b41 <_km_init+0x1cf>
   12ab2:	8b 45 e8             	mov    -0x18(%ebp),%eax
   12ab5:	8b 55 ec             	mov    -0x14(%ebp),%edx
   12ab8:	2b 45 d8             	sub    -0x28(%ebp),%eax
   12abb:	1b 55 dc             	sbb    -0x24(%ebp),%edx
   12abe:	89 45 c0             	mov    %eax,-0x40(%ebp)
   12ac1:	89 55 c4             	mov    %edx,-0x3c(%ebp)
   12ac4:	8b 45 c0             	mov    -0x40(%ebp),%eax
   12ac7:	8b 55 c4             	mov    -0x3c(%ebp),%edx
   12aca:	29 45 d0             	sub    %eax,-0x30(%ebp)
   12acd:	19 55 d4             	sbb    %edx,-0x2c(%ebp)
   12ad0:	8b 45 e8             	mov    -0x18(%ebp),%eax
   12ad3:	8b 55 ec             	mov    -0x14(%ebp),%edx
   12ad6:	89 45 d8             	mov    %eax,-0x28(%ebp)
   12ad9:	89 55 dc             	mov    %edx,-0x24(%ebp)
   12adc:	8b 4d d8             	mov    -0x28(%ebp),%ecx
   12adf:	8b 5d dc             	mov    -0x24(%ebp),%ebx
   12ae2:	8b 45 d0             	mov    -0x30(%ebp),%eax
   12ae5:	8b 55 d4             	mov    -0x2c(%ebp),%edx
   12ae8:	01 c8                	add    %ecx,%eax
   12aea:	11 da                	adc    %ebx,%edx
   12aec:	83 fa 00             	cmp    $0x0,%edx
   12aef:	76 25                	jbe    12b16 <_km_init+0x1a4>
   12af1:	8b 4d d8             	mov    -0x28(%ebp),%ecx
   12af4:	8b 5d dc             	mov    -0x24(%ebp),%ebx
   12af7:	8b 45 d0             	mov    -0x30(%ebp),%eax
   12afa:	8b 55 d4             	mov    -0x2c(%ebp),%edx
   12afd:	01 c8                	add    %ecx,%eax
   12aff:	11 da                	adc    %ebx,%edx
   12b01:	83 ea 01             	sub    $0x1,%edx
   12b04:	89 45 b8             	mov    %eax,-0x48(%ebp)
   12b07:	89 55 bc             	mov    %edx,-0x44(%ebp)
   12b0a:	8b 45 b8             	mov    -0x48(%ebp),%eax
   12b0d:	8b 55 bc             	mov    -0x44(%ebp),%edx
   12b10:	29 45 d0             	sub    %eax,-0x30(%ebp)
   12b13:	19 55 d4             	sbb    %edx,-0x2c(%ebp)
   12b16:	8b 45 d8             	mov    -0x28(%ebp),%eax
   12b19:	89 45 b4             	mov    %eax,-0x4c(%ebp)
   12b1c:	8b 45 d0             	mov    -0x30(%ebp),%eax
   12b1f:	89 45 b0             	mov    %eax,-0x50(%ebp)
   12b22:	83 ec 08             	sub    $0x8,%esp
   12b25:	ff 75 b0             	pushl  -0x50(%ebp)
   12b28:	ff 75 b4             	pushl  -0x4c(%ebp)
   12b2b:	e8 53 fd ff ff       	call   12883 <_add_block>
   12b30:	83 c4 10             	add    $0x10,%esp
   12b33:	eb 0d                	jmp    12b42 <_km_init+0x1d0>
   12b35:	90                   	nop
   12b36:	eb 0a                	jmp    12b42 <_km_init+0x1d0>
   12b38:	90                   	nop
   12b39:	eb 07                	jmp    12b42 <_km_init+0x1d0>
   12b3b:	90                   	nop
   12b3c:	eb 04                	jmp    12b42 <_km_init+0x1d0>
   12b3e:	90                   	nop
   12b3f:	eb 01                	jmp    12b42 <_km_init+0x1d0>
   12b41:	90                   	nop
   12b42:	83 45 e4 01          	addl   $0x1,-0x1c(%ebp)
   12b46:	83 45 f4 18          	addl   $0x18,-0xc(%ebp)
   12b4a:	8b 45 e4             	mov    -0x1c(%ebp),%eax
   12b4d:	3b 45 cc             	cmp    -0x34(%ebp),%eax
   12b50:	0f 8c c4 fe ff ff    	jl     12a1a <_km_init+0xa8>
   12b56:	c7 05 1c a6 01 00 01 	movl   $0x1,0x1a61c
   12b5d:	00 00 00 
   12b60:	83 ec 0c             	sub    $0xc,%esp
   12b63:	68 91 6f 01 00       	push   $0x16f91
   12b68:	e8 10 e4 ff ff       	call   10f7d <__cio_puts>
   12b6d:	83 c4 10             	add    $0x10,%esp
   12b70:	eb 01                	jmp    12b73 <_km_init+0x201>
   12b72:	90                   	nop
   12b73:	8d 65 f8             	lea    -0x8(%ebp),%esp
   12b76:	5b                   	pop    %ebx
   12b77:	5e                   	pop    %esi
   12b78:	5d                   	pop    %ebp
   12b79:	c3                   	ret    

00012b7a <_km_dump>:
   12b7a:	55                   	push   %ebp
   12b7b:	89 e5                	mov    %esp,%ebp
   12b7d:	83 ec 18             	sub    $0x18,%esp
   12b80:	83 ec 08             	sub    $0x8,%esp
   12b83:	68 14 a6 01 00       	push   $0x1a614
   12b88:	68 97 6f 01 00       	push   $0x16f97
   12b8d:	e8 1e ea ff ff       	call   115b0 <__cio_printf>
   12b92:	83 c4 10             	add    $0x10,%esp
   12b95:	a1 14 a6 01 00       	mov    0x1a614,%eax
   12b9a:	89 45 f4             	mov    %eax,-0xc(%ebp)
   12b9d:	eb 39                	jmp    12bd8 <_km_dump+0x5e>
   12b9f:	8b 45 f4             	mov    -0xc(%ebp),%eax
   12ba2:	8b 50 04             	mov    0x4(%eax),%edx
   12ba5:	8b 45 f4             	mov    -0xc(%ebp),%eax
   12ba8:	8b 00                	mov    (%eax),%eax
   12baa:	c1 e0 0c             	shl    $0xc,%eax
   12bad:	89 c1                	mov    %eax,%ecx
   12baf:	8b 45 f4             	mov    -0xc(%ebp),%eax
   12bb2:	01 c1                	add    %eax,%ecx
   12bb4:	8b 45 f4             	mov    -0xc(%ebp),%eax
   12bb7:	8b 00                	mov    (%eax),%eax
   12bb9:	83 ec 0c             	sub    $0xc,%esp
   12bbc:	52                   	push   %edx
   12bbd:	51                   	push   %ecx
   12bbe:	50                   	push   %eax
   12bbf:	ff 75 f4             	pushl  -0xc(%ebp)
   12bc2:	68 ac 6f 01 00       	push   $0x16fac
   12bc7:	e8 e4 e9 ff ff       	call   115b0 <__cio_printf>
   12bcc:	83 c4 20             	add    $0x20,%esp
   12bcf:	8b 45 f4             	mov    -0xc(%ebp),%eax
   12bd2:	8b 40 04             	mov    0x4(%eax),%eax
   12bd5:	89 45 f4             	mov    %eax,-0xc(%ebp)
   12bd8:	83 7d f4 00          	cmpl   $0x0,-0xc(%ebp)
   12bdc:	75 c1                	jne    12b9f <_km_dump+0x25>
   12bde:	90                   	nop
   12bdf:	c9                   	leave  
   12be0:	c3                   	ret    

00012be1 <_km_page_alloc>:
   12be1:	55                   	push   %ebp
   12be2:	89 e5                	mov    %esp,%ebp
   12be4:	83 ec 28             	sub    $0x28,%esp
   12be7:	a1 1c a6 01 00       	mov    0x1a61c,%eax
   12bec:	85 c0                	test   %eax,%eax
   12bee:	75 3b                	jne    12c2b <_km_page_alloc+0x4a>
   12bf0:	83 ec 08             	sub    $0x8,%esp
   12bf3:	6a 00                	push   $0x0
   12bf5:	68 a9 01 00 00       	push   $0x1a9
   12bfa:	68 64 6f 01 00       	push   $0x16f64
   12bff:	68 10 70 01 00       	push   $0x17010
   12c04:	68 6b 6f 01 00       	push   $0x16f6b
   12c09:	68 00 bb 01 00       	push   $0x1bb00
   12c0e:	e8 15 f8 ff ff       	call   12428 <__sprint>
   12c13:	83 c4 20             	add    $0x20,%esp
   12c16:	83 ec 08             	sub    $0x8,%esp
   12c19:	68 e8 6f 01 00       	push   $0x16fe8
   12c1e:	68 00 bb 01 00       	push   $0x1bb00
   12c23:	e8 0e fc ff ff       	call   12836 <_kpanic>
   12c28:	83 c4 10             	add    $0x10,%esp
   12c2b:	83 7d 08 00          	cmpl   $0x0,0x8(%ebp)
   12c2f:	75 0a                	jne    12c3b <_km_page_alloc+0x5a>
   12c31:	b8 00 00 00 00       	mov    $0x0,%eax
   12c36:	e9 9c 00 00 00       	jmp    12cd7 <_km_page_alloc+0xf6>
   12c3b:	a1 14 a6 01 00       	mov    0x1a614,%eax
   12c40:	89 45 f4             	mov    %eax,-0xc(%ebp)
   12c43:	c7 45 f0 14 a6 01 00 	movl   $0x1a614,-0x10(%ebp)
   12c4a:	eb 11                	jmp    12c5d <_km_page_alloc+0x7c>
   12c4c:	8b 45 f4             	mov    -0xc(%ebp),%eax
   12c4f:	83 c0 04             	add    $0x4,%eax
   12c52:	89 45 f0             	mov    %eax,-0x10(%ebp)
   12c55:	8b 45 f0             	mov    -0x10(%ebp),%eax
   12c58:	8b 00                	mov    (%eax),%eax
   12c5a:	89 45 f4             	mov    %eax,-0xc(%ebp)
   12c5d:	83 7d f4 00          	cmpl   $0x0,-0xc(%ebp)
   12c61:	74 0a                	je     12c6d <_km_page_alloc+0x8c>
   12c63:	8b 45 f4             	mov    -0xc(%ebp),%eax
   12c66:	8b 00                	mov    (%eax),%eax
   12c68:	39 45 08             	cmp    %eax,0x8(%ebp)
   12c6b:	77 df                	ja     12c4c <_km_page_alloc+0x6b>
   12c6d:	83 7d f4 00          	cmpl   $0x0,-0xc(%ebp)
   12c71:	75 07                	jne    12c7a <_km_page_alloc+0x99>
   12c73:	b8 00 00 00 00       	mov    $0x0,%eax
   12c78:	eb 5d                	jmp    12cd7 <_km_page_alloc+0xf6>
   12c7a:	8b 45 f4             	mov    -0xc(%ebp),%eax
   12c7d:	8b 00                	mov    (%eax),%eax
   12c7f:	39 45 08             	cmp    %eax,0x8(%ebp)
   12c82:	75 0d                	jne    12c91 <_km_page_alloc+0xb0>
   12c84:	8b 45 f4             	mov    -0xc(%ebp),%eax
   12c87:	8b 50 04             	mov    0x4(%eax),%edx
   12c8a:	8b 45 f0             	mov    -0x10(%ebp),%eax
   12c8d:	89 10                	mov    %edx,(%eax)
   12c8f:	eb 43                	jmp    12cd4 <_km_page_alloc+0xf3>
   12c91:	8b 45 f4             	mov    -0xc(%ebp),%eax
   12c94:	89 45 ec             	mov    %eax,-0x14(%ebp)
   12c97:	8b 45 f4             	mov    -0xc(%ebp),%eax
   12c9a:	8b 00                	mov    (%eax),%eax
   12c9c:	2b 45 08             	sub    0x8(%ebp),%eax
   12c9f:	89 45 e8             	mov    %eax,-0x18(%ebp)
   12ca2:	8b 45 08             	mov    0x8(%ebp),%eax
   12ca5:	c1 e0 0c             	shl    $0xc,%eax
   12ca8:	89 c2                	mov    %eax,%edx
   12caa:	8b 45 f4             	mov    -0xc(%ebp),%eax
   12cad:	01 d0                	add    %edx,%eax
   12caf:	89 45 e4             	mov    %eax,-0x1c(%ebp)
   12cb2:	8b 55 e8             	mov    -0x18(%ebp),%edx
   12cb5:	8b 45 e4             	mov    -0x1c(%ebp),%eax
   12cb8:	89 10                	mov    %edx,(%eax)
   12cba:	8b 45 f4             	mov    -0xc(%ebp),%eax
   12cbd:	8b 50 04             	mov    0x4(%eax),%edx
   12cc0:	8b 45 e4             	mov    -0x1c(%ebp),%eax
   12cc3:	89 50 04             	mov    %edx,0x4(%eax)
   12cc6:	8b 45 f0             	mov    -0x10(%ebp),%eax
   12cc9:	8b 55 e4             	mov    -0x1c(%ebp),%edx
   12ccc:	89 10                	mov    %edx,(%eax)
   12cce:	8b 45 ec             	mov    -0x14(%ebp),%eax
   12cd1:	89 45 f4             	mov    %eax,-0xc(%ebp)
   12cd4:	8b 45 f4             	mov    -0xc(%ebp),%eax
   12cd7:	c9                   	leave  
   12cd8:	c3                   	ret    

00012cd9 <_km_page_free>:
   12cd9:	55                   	push   %ebp
   12cda:	89 e5                	mov    %esp,%ebp
   12cdc:	83 ec 18             	sub    $0x18,%esp
   12cdf:	a1 1c a6 01 00       	mov    0x1a61c,%eax
   12ce4:	85 c0                	test   %eax,%eax
   12ce6:	75 3b                	jne    12d23 <_km_page_free+0x4a>
   12ce8:	83 ec 08             	sub    $0x8,%esp
   12ceb:	6a 00                	push   $0x0
   12ced:	68 f9 01 00 00       	push   $0x1f9
   12cf2:	68 64 6f 01 00       	push   $0x16f64
   12cf7:	68 20 70 01 00       	push   $0x17020
   12cfc:	68 6b 6f 01 00       	push   $0x16f6b
   12d01:	68 00 bb 01 00       	push   $0x1bb00
   12d06:	e8 1d f7 ff ff       	call   12428 <__sprint>
   12d0b:	83 c4 20             	add    $0x20,%esp
   12d0e:	83 ec 08             	sub    $0x8,%esp
   12d11:	68 e8 6f 01 00       	push   $0x16fe8
   12d16:	68 00 bb 01 00       	push   $0x1bb00
   12d1b:	e8 16 fb ff ff       	call   12836 <_kpanic>
   12d20:	83 c4 10             	add    $0x10,%esp
   12d23:	83 7d 08 00          	cmpl   $0x0,0x8(%ebp)
   12d27:	0f 84 d4 00 00 00    	je     12e01 <_km_page_free+0x128>
   12d2d:	8b 45 08             	mov    0x8(%ebp),%eax
   12d30:	89 45 f4             	mov    %eax,-0xc(%ebp)
   12d33:	8b 45 f4             	mov    -0xc(%ebp),%eax
   12d36:	c7 00 01 00 00 00    	movl   $0x1,(%eax)
   12d3c:	c7 45 f0 00 00 00 00 	movl   $0x0,-0x10(%ebp)
   12d43:	a1 14 a6 01 00       	mov    0x1a614,%eax
   12d48:	89 45 ec             	mov    %eax,-0x14(%ebp)
   12d4b:	eb 0f                	jmp    12d5c <_km_page_free+0x83>
   12d4d:	8b 45 ec             	mov    -0x14(%ebp),%eax
   12d50:	89 45 f0             	mov    %eax,-0x10(%ebp)
   12d53:	8b 45 ec             	mov    -0x14(%ebp),%eax
   12d56:	8b 40 04             	mov    0x4(%eax),%eax
   12d59:	89 45 ec             	mov    %eax,-0x14(%ebp)
   12d5c:	83 7d ec 00          	cmpl   $0x0,-0x14(%ebp)
   12d60:	74 08                	je     12d6a <_km_page_free+0x91>
   12d62:	8b 45 ec             	mov    -0x14(%ebp),%eax
   12d65:	3b 45 f4             	cmp    -0xc(%ebp),%eax
   12d68:	72 e3                	jb     12d4d <_km_page_free+0x74>
   12d6a:	83 7d f0 00          	cmpl   $0x0,-0x10(%ebp)
   12d6e:	74 44                	je     12db4 <_km_page_free+0xdb>
   12d70:	8b 45 f0             	mov    -0x10(%ebp),%eax
   12d73:	8b 00                	mov    (%eax),%eax
   12d75:	c1 e0 0c             	shl    $0xc,%eax
   12d78:	89 c2                	mov    %eax,%edx
   12d7a:	8b 45 f0             	mov    -0x10(%ebp),%eax
   12d7d:	01 d0                	add    %edx,%eax
   12d7f:	39 45 f4             	cmp    %eax,-0xc(%ebp)
   12d82:	75 19                	jne    12d9d <_km_page_free+0xc4>
   12d84:	8b 45 f0             	mov    -0x10(%ebp),%eax
   12d87:	8b 10                	mov    (%eax),%edx
   12d89:	8b 45 f4             	mov    -0xc(%ebp),%eax
   12d8c:	8b 00                	mov    (%eax),%eax
   12d8e:	01 c2                	add    %eax,%edx
   12d90:	8b 45 f0             	mov    -0x10(%ebp),%eax
   12d93:	89 10                	mov    %edx,(%eax)
   12d95:	8b 45 f0             	mov    -0x10(%ebp),%eax
   12d98:	89 45 f4             	mov    %eax,-0xc(%ebp)
   12d9b:	eb 2b                	jmp    12dc8 <_km_page_free+0xef>
   12d9d:	8b 45 f0             	mov    -0x10(%ebp),%eax
   12da0:	8b 50 04             	mov    0x4(%eax),%edx
   12da3:	8b 45 f4             	mov    -0xc(%ebp),%eax
   12da6:	89 50 04             	mov    %edx,0x4(%eax)
   12da9:	8b 45 f0             	mov    -0x10(%ebp),%eax
   12dac:	8b 55 f4             	mov    -0xc(%ebp),%edx
   12daf:	89 50 04             	mov    %edx,0x4(%eax)
   12db2:	eb 14                	jmp    12dc8 <_km_page_free+0xef>
   12db4:	8b 15 14 a6 01 00    	mov    0x1a614,%edx
   12dba:	8b 45 f4             	mov    -0xc(%ebp),%eax
   12dbd:	89 50 04             	mov    %edx,0x4(%eax)
   12dc0:	8b 45 f4             	mov    -0xc(%ebp),%eax
   12dc3:	a3 14 a6 01 00       	mov    %eax,0x1a614
   12dc8:	83 7d ec 00          	cmpl   $0x0,-0x14(%ebp)
   12dcc:	74 34                	je     12e02 <_km_page_free+0x129>
   12dce:	8b 45 f4             	mov    -0xc(%ebp),%eax
   12dd1:	8b 00                	mov    (%eax),%eax
   12dd3:	c1 e0 0c             	shl    $0xc,%eax
   12dd6:	89 c2                	mov    %eax,%edx
   12dd8:	8b 45 f4             	mov    -0xc(%ebp),%eax
   12ddb:	01 d0                	add    %edx,%eax
   12ddd:	39 45 ec             	cmp    %eax,-0x14(%ebp)
   12de0:	75 20                	jne    12e02 <_km_page_free+0x129>
   12de2:	8b 45 ec             	mov    -0x14(%ebp),%eax
   12de5:	8b 50 04             	mov    0x4(%eax),%edx
   12de8:	8b 45 f4             	mov    -0xc(%ebp),%eax
   12deb:	89 50 04             	mov    %edx,0x4(%eax)
   12dee:	8b 45 f4             	mov    -0xc(%ebp),%eax
   12df1:	8b 10                	mov    (%eax),%edx
   12df3:	8b 45 ec             	mov    -0x14(%ebp),%eax
   12df6:	8b 00                	mov    (%eax),%eax
   12df8:	01 c2                	add    %eax,%edx
   12dfa:	8b 45 f4             	mov    -0xc(%ebp),%eax
   12dfd:	89 10                	mov    %edx,(%eax)
   12dff:	eb 01                	jmp    12e02 <_km_page_free+0x129>
   12e01:	90                   	nop
   12e02:	c9                   	leave  
   12e03:	c3                   	ret    

00012e04 <_carve_slices>:
   12e04:	55                   	push   %ebp
   12e05:	89 e5                	mov    %esp,%ebp
   12e07:	83 ec 18             	sub    $0x18,%esp
   12e0a:	83 ec 0c             	sub    $0xc,%esp
   12e0d:	6a 01                	push   $0x1
   12e0f:	e8 cd fd ff ff       	call   12be1 <_km_page_alloc>
   12e14:	83 c4 10             	add    $0x10,%esp
   12e17:	89 45 ec             	mov    %eax,-0x14(%ebp)
   12e1a:	83 7d ec 00          	cmpl   $0x0,-0x14(%ebp)
   12e1e:	75 3b                	jne    12e5b <_carve_slices+0x57>
   12e20:	83 ec 08             	sub    $0x8,%esp
   12e23:	6a 00                	push   $0x0
   12e25:	68 7c 02 00 00       	push   $0x27c
   12e2a:	68 64 6f 01 00       	push   $0x16f64
   12e2f:	68 30 70 01 00       	push   $0x17030
   12e34:	68 6b 6f 01 00       	push   $0x16f6b
   12e39:	68 00 bb 01 00       	push   $0x1bb00
   12e3e:	e8 e5 f5 ff ff       	call   12428 <__sprint>
   12e43:	83 c4 20             	add    $0x20,%esp
   12e46:	83 ec 08             	sub    $0x8,%esp
   12e49:	68 f8 6f 01 00       	push   $0x16ff8
   12e4e:	68 00 bb 01 00       	push   $0x1bb00
   12e53:	e8 de f9 ff ff       	call   12836 <_kpanic>
   12e58:	83 c4 10             	add    $0x10,%esp
   12e5b:	8b 45 ec             	mov    -0x14(%ebp),%eax
   12e5e:	89 45 f4             	mov    %eax,-0xc(%ebp)
   12e61:	c7 45 f0 00 00 00 00 	movl   $0x0,-0x10(%ebp)
   12e68:	eb 19                	jmp    12e83 <_carve_slices+0x7f>
   12e6a:	83 ec 0c             	sub    $0xc,%esp
   12e6d:	ff 75 f4             	pushl  -0xc(%ebp)
   12e70:	e8 db 00 00 00       	call   12f50 <_km_slice_free>
   12e75:	83 c4 10             	add    $0x10,%esp
   12e78:	81 45 f4 00 04 00 00 	addl   $0x400,-0xc(%ebp)
   12e7f:	83 45 f0 01          	addl   $0x1,-0x10(%ebp)
   12e83:	83 7d f0 03          	cmpl   $0x3,-0x10(%ebp)
   12e87:	7e e1                	jle    12e6a <_carve_slices+0x66>
   12e89:	90                   	nop
   12e8a:	c9                   	leave  
   12e8b:	c3                   	ret    

00012e8c <_km_slice_alloc>:
   12e8c:	55                   	push   %ebp
   12e8d:	89 e5                	mov    %esp,%ebp
   12e8f:	83 ec 18             	sub    $0x18,%esp
   12e92:	a1 1c a6 01 00       	mov    0x1a61c,%eax
   12e97:	85 c0                	test   %eax,%eax
   12e99:	75 3b                	jne    12ed6 <_km_slice_alloc+0x4a>
   12e9b:	83 ec 08             	sub    $0x8,%esp
   12e9e:	6a 00                	push   $0x0
   12ea0:	68 91 02 00 00       	push   $0x291
   12ea5:	68 64 6f 01 00       	push   $0x16f64
   12eaa:	68 40 70 01 00       	push   $0x17040
   12eaf:	68 6b 6f 01 00       	push   $0x16f6b
   12eb4:	68 00 bb 01 00       	push   $0x1bb00
   12eb9:	e8 6a f5 ff ff       	call   12428 <__sprint>
   12ebe:	83 c4 20             	add    $0x20,%esp
   12ec1:	83 ec 08             	sub    $0x8,%esp
   12ec4:	68 e8 6f 01 00       	push   $0x16fe8
   12ec9:	68 00 bb 01 00       	push   $0x1bb00
   12ece:	e8 63 f9 ff ff       	call   12836 <_kpanic>
   12ed3:	83 c4 10             	add    $0x10,%esp
   12ed6:	a1 18 a6 01 00       	mov    0x1a618,%eax
   12edb:	85 c0                	test   %eax,%eax
   12edd:	75 05                	jne    12ee4 <_km_slice_alloc+0x58>
   12edf:	e8 20 ff ff ff       	call   12e04 <_carve_slices>
   12ee4:	a1 18 a6 01 00       	mov    0x1a618,%eax
   12ee9:	89 45 f4             	mov    %eax,-0xc(%ebp)
   12eec:	83 7d f4 00          	cmpl   $0x0,-0xc(%ebp)
   12ef0:	75 3b                	jne    12f2d <_km_slice_alloc+0xa1>
   12ef2:	83 ec 08             	sub    $0x8,%esp
   12ef5:	6a 00                	push   $0x0
   12ef7:	68 9a 02 00 00       	push   $0x29a
   12efc:	68 64 6f 01 00       	push   $0x16f64
   12f01:	68 40 70 01 00       	push   $0x17040
   12f06:	68 6b 6f 01 00       	push   $0x16f6b
   12f0b:	68 00 bb 01 00       	push   $0x1bb00
   12f10:	e8 13 f5 ff ff       	call   12428 <__sprint>
   12f15:	83 c4 20             	add    $0x20,%esp
   12f18:	83 ec 08             	sub    $0x8,%esp
   12f1b:	68 fd 6f 01 00       	push   $0x16ffd
   12f20:	68 00 bb 01 00       	push   $0x1bb00
   12f25:	e8 0c f9 ff ff       	call   12836 <_kpanic>
   12f2a:	83 c4 10             	add    $0x10,%esp
   12f2d:	8b 45 f4             	mov    -0xc(%ebp),%eax
   12f30:	8b 40 04             	mov    0x4(%eax),%eax
   12f33:	a3 18 a6 01 00       	mov    %eax,0x1a618
   12f38:	83 ec 08             	sub    $0x8,%esp
   12f3b:	68 00 04 00 00       	push   $0x400
   12f40:	ff 75 f4             	pushl  -0xc(%ebp)
   12f43:	e8 1e f3 ff ff       	call   12266 <__memclr>
   12f48:	83 c4 10             	add    $0x10,%esp
   12f4b:	8b 45 f4             	mov    -0xc(%ebp),%eax
   12f4e:	c9                   	leave  
   12f4f:	c3                   	ret    

00012f50 <_km_slice_free>:
   12f50:	55                   	push   %ebp
   12f51:	89 e5                	mov    %esp,%ebp
   12f53:	83 ec 18             	sub    $0x18,%esp
   12f56:	8b 45 08             	mov    0x8(%ebp),%eax
   12f59:	89 45 f4             	mov    %eax,-0xc(%ebp)
   12f5c:	a1 1c a6 01 00       	mov    0x1a61c,%eax
   12f61:	85 c0                	test   %eax,%eax
   12f63:	75 3b                	jne    12fa0 <_km_slice_free+0x50>
   12f65:	83 ec 08             	sub    $0x8,%esp
   12f68:	6a 00                	push   $0x0
   12f6a:	68 b2 02 00 00       	push   $0x2b2
   12f6f:	68 64 6f 01 00       	push   $0x16f64
   12f74:	68 50 70 01 00       	push   $0x17050
   12f79:	68 6b 6f 01 00       	push   $0x16f6b
   12f7e:	68 00 bb 01 00       	push   $0x1bb00
   12f83:	e8 a0 f4 ff ff       	call   12428 <__sprint>
   12f88:	83 c4 20             	add    $0x20,%esp
   12f8b:	83 ec 08             	sub    $0x8,%esp
   12f8e:	68 e8 6f 01 00       	push   $0x16fe8
   12f93:	68 00 bb 01 00       	push   $0x1bb00
   12f98:	e8 99 f8 ff ff       	call   12836 <_kpanic>
   12f9d:	83 c4 10             	add    $0x10,%esp
   12fa0:	8b 45 f4             	mov    -0xc(%ebp),%eax
   12fa3:	c7 00 00 04 00 00    	movl   $0x400,(%eax)
   12fa9:	8b 15 18 a6 01 00    	mov    0x1a618,%edx
   12faf:	8b 45 f4             	mov    -0xc(%ebp),%eax
   12fb2:	89 50 04             	mov    %edx,0x4(%eax)
   12fb5:	8b 45 f4             	mov    -0xc(%ebp),%eax
   12fb8:	a3 18 a6 01 00       	mov    %eax,0x1a618
   12fbd:	90                   	nop
   12fbe:	c9                   	leave  
   12fbf:	c3                   	ret    

00012fc0 <_new_pcbs>:
   12fc0:	55                   	push   %ebp
   12fc1:	89 e5                	mov    %esp,%ebp
   12fc3:	83 ec 28             	sub    $0x28,%esp
   12fc6:	8b 45 08             	mov    0x8(%ebp),%eax
   12fc9:	88 45 e4             	mov    %al,-0x1c(%ebp)
   12fcc:	e8 bb fe ff ff       	call   12e8c <_km_slice_alloc>
   12fd1:	89 45 f0             	mov    %eax,-0x10(%ebp)
   12fd4:	80 7d e4 00          	cmpb   $0x0,-0x1c(%ebp)
   12fd8:	74 3e                	je     13018 <_new_pcbs+0x58>
   12fda:	83 7d f0 00          	cmpl   $0x0,-0x10(%ebp)
   12fde:	75 38                	jne    13018 <_new_pcbs+0x58>
   12fe0:	83 ec 08             	sub    $0x8,%esp
   12fe3:	6a 00                	push   $0x0
   12fe5:	6a 46                	push   $0x46
   12fe7:	68 60 70 01 00       	push   $0x17060
   12fec:	68 4c 72 01 00       	push   $0x1724c
   12ff1:	68 6a 70 01 00       	push   $0x1706a
   12ff6:	68 00 bb 01 00       	push   $0x1bb00
   12ffb:	e8 28 f4 ff ff       	call   12428 <__sprint>
   13000:	83 c4 20             	add    $0x20,%esp
   13003:	83 ec 08             	sub    $0x8,%esp
   13006:	68 84 70 01 00       	push   $0x17084
   1300b:	68 00 bb 01 00       	push   $0x1bb00
   13010:	e8 21 f8 ff ff       	call   12836 <_kpanic>
   13015:	83 c4 10             	add    $0x10,%esp
   13018:	83 7d f0 00          	cmpl   $0x0,-0x10(%ebp)
   1301c:	75 07                	jne    13025 <_new_pcbs+0x65>
   1301e:	b8 00 00 00 00       	mov    $0x0,%eax
   13023:	eb 46                	jmp    1306b <_new_pcbs+0xab>
   13025:	83 ec 08             	sub    $0x8,%esp
   13028:	68 00 04 00 00       	push   $0x400
   1302d:	ff 75 f0             	pushl  -0x10(%ebp)
   13030:	e8 31 f2 ff ff       	call   12266 <__memclr>
   13035:	83 c4 10             	add    $0x10,%esp
   13038:	c7 45 f4 00 00 00 00 	movl   $0x0,-0xc(%ebp)
   1303f:	eb 1d                	jmp    1305e <_new_pcbs+0x9e>
   13041:	8b 45 f4             	mov    -0xc(%ebp),%eax
   13044:	c1 e0 05             	shl    $0x5,%eax
   13047:	89 c2                	mov    %eax,%edx
   13049:	8b 45 f0             	mov    -0x10(%ebp),%eax
   1304c:	01 d0                	add    %edx,%eax
   1304e:	83 ec 0c             	sub    $0xc,%esp
   13051:	50                   	push   %eax
   13052:	e8 64 00 00 00       	call   130bb <_pcb_free>
   13057:	83 c4 10             	add    $0x10,%esp
   1305a:	83 45 f4 01          	addl   $0x1,-0xc(%ebp)
   1305e:	8b 45 f4             	mov    -0xc(%ebp),%eax
   13061:	83 f8 1f             	cmp    $0x1f,%eax
   13064:	76 db                	jbe    13041 <_new_pcbs+0x81>
   13066:	b8 01 00 00 00       	mov    $0x1,%eax
   1306b:	c9                   	leave  
   1306c:	c3                   	ret    

0001306d <_pcb_alloc>:
   1306d:	55                   	push   %ebp
   1306e:	89 e5                	mov    %esp,%ebp
   13070:	83 ec 18             	sub    $0x18,%esp
   13073:	a1 20 a6 01 00       	mov    0x1a620,%eax
   13078:	85 c0                	test   %eax,%eax
   1307a:	75 18                	jne    13094 <_pcb_alloc+0x27>
   1307c:	83 ec 0c             	sub    $0xc,%esp
   1307f:	6a 00                	push   $0x0
   13081:	e8 3a ff ff ff       	call   12fc0 <_new_pcbs>
   13086:	83 c4 10             	add    $0x10,%esp
   13089:	84 c0                	test   %al,%al
   1308b:	75 07                	jne    13094 <_pcb_alloc+0x27>
   1308d:	b8 00 00 00 00       	mov    $0x0,%eax
   13092:	eb 25                	jmp    130b9 <_pcb_alloc+0x4c>
   13094:	a1 20 a6 01 00       	mov    0x1a620,%eax
   13099:	89 45 f4             	mov    %eax,-0xc(%ebp)
   1309c:	8b 45 f4             	mov    -0xc(%ebp),%eax
   1309f:	8b 00                	mov    (%eax),%eax
   130a1:	a3 20 a6 01 00       	mov    %eax,0x1a620
   130a6:	83 ec 08             	sub    $0x8,%esp
   130a9:	6a 20                	push   $0x20
   130ab:	ff 75 f4             	pushl  -0xc(%ebp)
   130ae:	e8 b3 f1 ff ff       	call   12266 <__memclr>
   130b3:	83 c4 10             	add    $0x10,%esp
   130b6:	8b 45 f4             	mov    -0xc(%ebp),%eax
   130b9:	c9                   	leave  
   130ba:	c3                   	ret    

000130bb <_pcb_free>:
   130bb:	55                   	push   %ebp
   130bc:	89 e5                	mov    %esp,%ebp
   130be:	83 7d 08 00          	cmpl   $0x0,0x8(%ebp)
   130c2:	74 1c                	je     130e0 <_pcb_free+0x25>
   130c4:	8b 45 08             	mov    0x8(%ebp),%eax
   130c7:	c6 40 14 00          	movb   $0x0,0x14(%eax)
   130cb:	8b 15 20 a6 01 00    	mov    0x1a620,%edx
   130d1:	8b 45 08             	mov    0x8(%ebp),%eax
   130d4:	89 10                	mov    %edx,(%eax)
   130d6:	8b 45 08             	mov    0x8(%ebp),%eax
   130d9:	a3 20 a6 01 00       	mov    %eax,0x1a620
   130de:	eb 01                	jmp    130e1 <_pcb_free+0x26>
   130e0:	90                   	nop
   130e1:	5d                   	pop    %ebp
   130e2:	c3                   	ret    

000130e3 <_pcb_find_pid>:
   130e3:	55                   	push   %ebp
   130e4:	89 e5                	mov    %esp,%ebp
   130e6:	83 ec 14             	sub    $0x14,%esp
   130e9:	8b 45 08             	mov    0x8(%ebp),%eax
   130ec:	66 89 45 ec          	mov    %ax,-0x14(%ebp)
   130f0:	c7 45 fc 00 00 00 00 	movl   $0x0,-0x4(%ebp)
   130f7:	eb 32                	jmp    1312b <_pcb_find_pid+0x48>
   130f9:	8b 45 fc             	mov    -0x4(%ebp),%eax
   130fc:	8b 04 85 60 be 01 00 	mov    0x1be60(,%eax,4),%eax
   13103:	85 c0                	test   %eax,%eax
   13105:	74 20                	je     13127 <_pcb_find_pid+0x44>
   13107:	8b 45 fc             	mov    -0x4(%ebp),%eax
   1310a:	8b 04 85 60 be 01 00 	mov    0x1be60(,%eax,4),%eax
   13111:	0f b7 40 10          	movzwl 0x10(%eax),%eax
   13115:	66 39 45 ec          	cmp    %ax,-0x14(%ebp)
   13119:	75 0c                	jne    13127 <_pcb_find_pid+0x44>
   1311b:	8b 45 fc             	mov    -0x4(%ebp),%eax
   1311e:	8b 04 85 60 be 01 00 	mov    0x1be60(,%eax,4),%eax
   13125:	eb 0f                	jmp    13136 <_pcb_find_pid+0x53>
   13127:	83 45 fc 01          	addl   $0x1,-0x4(%ebp)
   1312b:	83 7d fc 18          	cmpl   $0x18,-0x4(%ebp)
   1312f:	7e c8                	jle    130f9 <_pcb_find_pid+0x16>
   13131:	b8 00 00 00 00       	mov    $0x0,%eax
   13136:	c9                   	leave  
   13137:	c3                   	ret    

00013138 <_pcb_cleanup>:
   13138:	55                   	push   %ebp
   13139:	89 e5                	mov    %esp,%ebp
   1313b:	83 ec 18             	sub    $0x18,%esp
   1313e:	83 7d 08 00          	cmpl   $0x0,0x8(%ebp)
   13142:	74 5e                	je     131a2 <_pcb_cleanup+0x6a>
   13144:	c7 45 f4 00 00 00 00 	movl   $0x0,-0xc(%ebp)
   1314b:	eb 23                	jmp    13170 <_pcb_cleanup+0x38>
   1314d:	8b 45 f4             	mov    -0xc(%ebp),%eax
   13150:	8b 04 85 60 be 01 00 	mov    0x1be60(,%eax,4),%eax
   13157:	39 45 08             	cmp    %eax,0x8(%ebp)
   1315a:	75 10                	jne    1316c <_pcb_cleanup+0x34>
   1315c:	8b 45 f4             	mov    -0xc(%ebp),%eax
   1315f:	c7 04 85 60 be 01 00 	movl   $0x0,0x1be60(,%eax,4)
   13166:	00 00 00 00 
   1316a:	eb 0a                	jmp    13176 <_pcb_cleanup+0x3e>
   1316c:	83 45 f4 01          	addl   $0x1,-0xc(%ebp)
   13170:	83 7d f4 18          	cmpl   $0x18,-0xc(%ebp)
   13174:	7e d7                	jle    1314d <_pcb_cleanup+0x15>
   13176:	8b 45 08             	mov    0x8(%ebp),%eax
   13179:	8b 40 04             	mov    0x4(%eax),%eax
   1317c:	85 c0                	test   %eax,%eax
   1317e:	74 12                	je     13192 <_pcb_cleanup+0x5a>
   13180:	8b 45 08             	mov    0x8(%ebp),%eax
   13183:	8b 40 04             	mov    0x4(%eax),%eax
   13186:	83 ec 0c             	sub    $0xc,%esp
   13189:	50                   	push   %eax
   1318a:	e8 bc 19 00 00       	call   14b4b <_stk_free>
   1318f:	83 c4 10             	add    $0x10,%esp
   13192:	83 ec 0c             	sub    $0xc,%esp
   13195:	ff 75 08             	pushl  0x8(%ebp)
   13198:	e8 1e ff ff ff       	call   130bb <_pcb_free>
   1319d:	83 c4 10             	add    $0x10,%esp
   131a0:	eb 01                	jmp    131a3 <_pcb_cleanup+0x6b>
   131a2:	90                   	nop
   131a3:	c9                   	leave  
   131a4:	c3                   	ret    

000131a5 <_proc_init>:
   131a5:	55                   	push   %ebp
   131a6:	89 e5                	mov    %esp,%ebp
   131a8:	83 ec 18             	sub    $0x18,%esp
   131ab:	83 ec 0c             	sub    $0xc,%esp
   131ae:	68 9c 70 01 00       	push   $0x1709c
   131b3:	e8 c5 dd ff ff       	call   10f7d <__cio_puts>
   131b8:	83 c4 10             	add    $0x10,%esp
   131bb:	c7 05 20 a6 01 00 00 	movl   $0x0,0x1a620
   131c2:	00 00 00 
   131c5:	83 ec 0c             	sub    $0xc,%esp
   131c8:	6a 01                	push   $0x1
   131ca:	e8 f1 fd ff ff       	call   12fc0 <_new_pcbs>
   131cf:	83 c4 10             	add    $0x10,%esp
   131d2:	c7 05 44 be 01 00 00 	movl   $0x0,0x1be44
   131d9:	00 00 00 
   131dc:	c7 45 f4 00 00 00 00 	movl   $0x0,-0xc(%ebp)
   131e3:	eb 12                	jmp    131f7 <_proc_init+0x52>
   131e5:	8b 45 f4             	mov    -0xc(%ebp),%eax
   131e8:	c7 04 85 60 be 01 00 	movl   $0x0,0x1be60(,%eax,4)
   131ef:	00 00 00 00 
   131f3:	83 45 f4 01          	addl   $0x1,-0xc(%ebp)
   131f7:	83 7d f4 18          	cmpl   $0x18,-0xc(%ebp)
   131fb:	7e e8                	jle    131e5 <_proc_init+0x40>
   131fd:	66 c7 05 40 be 01 00 	movw   $0x2,0x1be40
   13204:	02 00 
   13206:	83 ec 0c             	sub    $0xc,%esp
   13209:	68 a6 70 01 00       	push   $0x170a6
   1320e:	e8 6a dd ff ff       	call   10f7d <__cio_puts>
   13213:	83 c4 10             	add    $0x10,%esp
   13216:	90                   	nop
   13217:	c9                   	leave  
   13218:	c3                   	ret    

00013219 <_proc_create>:
   13219:	55                   	push   %ebp
   1321a:	89 e5                	mov    %esp,%ebp
   1321c:	83 ec 28             	sub    $0x28,%esp
   1321f:	8b 55 0c             	mov    0xc(%ebp),%edx
   13222:	8b 45 10             	mov    0x10(%ebp),%eax
   13225:	66 89 55 e4          	mov    %dx,-0x1c(%ebp)
   13229:	66 89 45 e0          	mov    %ax,-0x20(%ebp)
   1322d:	e8 3b fe ff ff       	call   1306d <_pcb_alloc>
   13232:	89 45 f4             	mov    %eax,-0xc(%ebp)
   13235:	83 7d f4 00          	cmpl   $0x0,-0xc(%ebp)
   13239:	75 0a                	jne    13245 <_proc_create+0x2c>
   1323b:	b8 00 00 00 00       	mov    $0x0,%eax
   13240:	e9 29 01 00 00       	jmp    1336e <_proc_create+0x155>
   13245:	e8 b6 18 00 00       	call   14b00 <_stk_alloc>
   1324a:	89 45 f0             	mov    %eax,-0x10(%ebp)
   1324d:	83 7d f0 00          	cmpl   $0x0,-0x10(%ebp)
   13251:	75 18                	jne    1326b <_proc_create+0x52>
   13253:	83 ec 0c             	sub    $0xc,%esp
   13256:	ff 75 f4             	pushl  -0xc(%ebp)
   13259:	e8 5d fe ff ff       	call   130bb <_pcb_free>
   1325e:	83 c4 10             	add    $0x10,%esp
   13261:	b8 00 00 00 00       	mov    $0x0,%eax
   13266:	e9 03 01 00 00       	jmp    1336e <_proc_create+0x155>
   1326b:	8b 45 f4             	mov    -0xc(%ebp),%eax
   1326e:	8b 55 f0             	mov    -0x10(%ebp),%edx
   13271:	89 50 04             	mov    %edx,0x4(%eax)
   13274:	8b 45 f4             	mov    -0xc(%ebp),%eax
   13277:	0f b7 55 e4          	movzwl -0x1c(%ebp),%edx
   1327b:	66 89 50 10          	mov    %dx,0x10(%eax)
   1327f:	8b 45 f4             	mov    -0xc(%ebp),%eax
   13282:	0f b7 55 e0          	movzwl -0x20(%ebp),%edx
   13286:	66 89 50 12          	mov    %dx,0x12(%eax)
   1328a:	8b 45 f4             	mov    -0xc(%ebp),%eax
   1328d:	c6 40 14 01          	movb   $0x1,0x14(%eax)
   13291:	8b 45 08             	mov    0x8(%ebp),%eax
   13294:	83 c0 04             	add    $0x4,%eax
   13297:	8b 00                	mov    (%eax),%eax
   13299:	89 c2                	mov    %eax,%edx
   1329b:	8b 45 f4             	mov    -0xc(%ebp),%eax
   1329e:	88 50 15             	mov    %dl,0x15(%eax)
   132a1:	8b 45 f4             	mov    -0xc(%ebp),%eax
   132a4:	c6 40 16 02          	movb   $0x2,0x16(%eax)
   132a8:	8b 45 f0             	mov    -0x10(%ebp),%eax
   132ab:	05 00 40 00 00       	add    $0x4000,%eax
   132b0:	83 e8 04             	sub    $0x4,%eax
   132b3:	89 45 ec             	mov    %eax,-0x14(%ebp)
   132b6:	8b 45 ec             	mov    -0x14(%ebp),%eax
   132b9:	8d 50 fc             	lea    -0x4(%eax),%edx
   132bc:	89 55 ec             	mov    %edx,-0x14(%ebp)
   132bf:	c7 00 00 00 00 00    	movl   $0x0,(%eax)
   132c5:	8b 45 ec             	mov    -0x14(%ebp),%eax
   132c8:	8d 50 fc             	lea    -0x4(%eax),%edx
   132cb:	89 55 ec             	mov    %edx,-0x14(%ebp)
   132ce:	c7 00 00 00 00 00    	movl   $0x0,(%eax)
   132d4:	8b 45 ec             	mov    -0x14(%ebp),%eax
   132d7:	8d 50 fc             	lea    -0x4(%eax),%edx
   132da:	89 55 ec             	mov    %edx,-0x14(%ebp)
   132dd:	8b 55 08             	mov    0x8(%ebp),%edx
   132e0:	8b 52 0c             	mov    0xc(%edx),%edx
   132e3:	89 10                	mov    %edx,(%eax)
   132e5:	8b 45 ec             	mov    -0x14(%ebp),%eax
   132e8:	8d 50 fc             	lea    -0x4(%eax),%edx
   132eb:	89 55 ec             	mov    %edx,-0x14(%ebp)
   132ee:	8b 55 08             	mov    0x8(%ebp),%edx
   132f1:	8b 52 08             	mov    0x8(%edx),%edx
   132f4:	89 10                	mov    %edx,(%eax)
   132f6:	ba 5a 6a 01 00       	mov    $0x16a5a,%edx
   132fb:	8b 45 ec             	mov    -0x14(%ebp),%eax
   132fe:	89 10                	mov    %edx,(%eax)
   13300:	8b 45 ec             	mov    -0x14(%ebp),%eax
   13303:	8d 50 b8             	lea    -0x48(%eax),%edx
   13306:	8b 45 f4             	mov    -0xc(%ebp),%eax
   13309:	89 10                	mov    %edx,(%eax)
   1330b:	8b 45 f4             	mov    -0xc(%ebp),%eax
   1330e:	8b 00                	mov    (%eax),%eax
   13310:	c7 00 20 00 00 00    	movl   $0x20,(%eax)
   13316:	8b 45 f4             	mov    -0xc(%ebp),%eax
   13319:	8b 00                	mov    (%eax),%eax
   1331b:	c7 40 04 18 00 00 00 	movl   $0x18,0x4(%eax)
   13322:	8b 45 f4             	mov    -0xc(%ebp),%eax
   13325:	8b 00                	mov    (%eax),%eax
   13327:	c7 40 08 18 00 00 00 	movl   $0x18,0x8(%eax)
   1332e:	8b 45 f4             	mov    -0xc(%ebp),%eax
   13331:	8b 00                	mov    (%eax),%eax
   13333:	c7 40 0c 18 00 00 00 	movl   $0x18,0xc(%eax)
   1333a:	8b 45 f4             	mov    -0xc(%ebp),%eax
   1333d:	8b 00                	mov    (%eax),%eax
   1333f:	c7 40 10 18 00 00 00 	movl   $0x18,0x10(%eax)
   13346:	8b 45 f4             	mov    -0xc(%ebp),%eax
   13349:	8b 00                	mov    (%eax),%eax
   1334b:	c7 40 40 10 00 00 00 	movl   $0x10,0x40(%eax)
   13352:	8b 45 f4             	mov    -0xc(%ebp),%eax
   13355:	8b 00                	mov    (%eax),%eax
   13357:	8b 55 08             	mov    0x8(%ebp),%edx
   1335a:	8b 12                	mov    (%edx),%edx
   1335c:	89 50 3c             	mov    %edx,0x3c(%eax)
   1335f:	8b 45 f4             	mov    -0xc(%ebp),%eax
   13362:	8b 00                	mov    (%eax),%eax
   13364:	c7 40 44 02 02 00 00 	movl   $0x202,0x44(%eax)
   1336b:	8b 45 f4             	mov    -0xc(%ebp),%eax
   1336e:	c9                   	leave  
   1336f:	c3                   	ret    

00013370 <_pcb_dump>:
   13370:	55                   	push   %ebp
   13371:	89 e5                	mov    %esp,%ebp
   13373:	56                   	push   %esi
   13374:	53                   	push   %ebx
   13375:	83 ec 10             	sub    $0x10,%esp
   13378:	8b 5d 0c             	mov    0xc(%ebp),%ebx
   1337b:	83 7d 08 00          	cmpl   $0x0,0x8(%ebp)
   1337f:	74 13                	je     13394 <_pcb_dump+0x24>
   13381:	83 ec 08             	sub    $0x8,%esp
   13384:	ff 75 08             	pushl  0x8(%ebp)
   13387:	68 ac 70 01 00       	push   $0x170ac
   1338c:	e8 1f e2 ff ff       	call   115b0 <__cio_printf>
   13391:	83 c4 10             	add    $0x10,%esp
   13394:	89 d8                	mov    %ebx,%eax
   13396:	83 ec 08             	sub    $0x8,%esp
   13399:	50                   	push   %eax
   1339a:	68 b0 70 01 00       	push   $0x170b0
   1339f:	e8 0c e2 ff ff       	call   115b0 <__cio_printf>
   133a4:	83 c4 10             	add    $0x10,%esp
   133a7:	85 db                	test   %ebx,%ebx
   133a9:	75 15                	jne    133c0 <_pcb_dump+0x50>
   133ab:	83 ec 0c             	sub    $0xc,%esp
   133ae:	68 b9 70 01 00       	push   $0x170b9
   133b3:	e8 c5 db ff ff       	call   10f7d <__cio_puts>
   133b8:	83 c4 10             	add    $0x10,%esp
   133bb:	e9 cd 00 00 00       	jmp    1348d <_pcb_dump+0x11d>
   133c0:	0f b6 43 15          	movzbl 0x15(%ebx),%eax
   133c4:	0f b6 f0             	movzbl %al,%esi
   133c7:	0f b6 43 14          	movzbl 0x14(%ebx),%eax
   133cb:	0f b6 c8             	movzbl %al,%ecx
   133ce:	0f b7 43 12          	movzwl 0x12(%ebx),%eax
   133d2:	0f bf d0             	movswl %ax,%edx
   133d5:	0f b7 43 10          	movzwl 0x10(%ebx),%eax
   133d9:	98                   	cwtl   
   133da:	83 ec 0c             	sub    $0xc,%esp
   133dd:	56                   	push   %esi
   133de:	51                   	push   %ecx
   133df:	52                   	push   %edx
   133e0:	50                   	push   %eax
   133e1:	68 c3 70 01 00       	push   $0x170c3
   133e6:	e8 c5 e1 ff ff       	call   115b0 <__cio_printf>
   133eb:	83 c4 20             	add    $0x20,%esp
   133ee:	8b 4b 08             	mov    0x8(%ebx),%ecx
   133f1:	0f b6 43 16          	movzbl 0x16(%ebx),%eax
   133f5:	0f b6 d0             	movzbl %al,%edx
   133f8:	0f b6 43 17          	movzbl 0x17(%ebx),%eax
   133fc:	0f b6 c0             	movzbl %al,%eax
   133ff:	51                   	push   %ecx
   13400:	52                   	push   %edx
   13401:	50                   	push   %eax
   13402:	68 e0 70 01 00       	push   $0x170e0
   13407:	e8 a4 e1 ff ff       	call   115b0 <__cio_printf>
   1340c:	83 c4 10             	add    $0x10,%esp
   1340f:	8b 43 0c             	mov    0xc(%ebx),%eax
   13412:	83 ec 08             	sub    $0x8,%esp
   13415:	50                   	push   %eax
   13416:	68 f5 70 01 00       	push   $0x170f5
   1341b:	e8 90 e1 ff ff       	call   115b0 <__cio_printf>
   13420:	83 c4 10             	add    $0x10,%esp
   13423:	8b 43 04             	mov    0x4(%ebx),%eax
   13426:	89 c2                	mov    %eax,%edx
   13428:	8b 03                	mov    (%ebx),%eax
   1342a:	83 ec 04             	sub    $0x4,%esp
   1342d:	52                   	push   %edx
   1342e:	50                   	push   %eax
   1342f:	68 01 71 01 00       	push   $0x17101
   13434:	e8 77 e1 ff ff       	call   115b0 <__cio_printf>
   13439:	83 c4 10             	add    $0x10,%esp
   1343c:	83 ec 0c             	sub    $0xc,%esp
   1343f:	68 1b 71 01 00       	push   $0x1711b
   13444:	e8 34 db ff ff       	call   10f7d <__cio_puts>
   13449:	83 c4 10             	add    $0x10,%esp
   1344c:	c7 45 f4 00 00 00 00 	movl   $0x0,-0xc(%ebp)
   13453:	eb 23                	jmp    13478 <_pcb_dump+0x108>
   13455:	8b 45 f4             	mov    -0xc(%ebp),%eax
   13458:	01 d8                	add    %ebx,%eax
   1345a:	83 c0 18             	add    $0x18,%eax
   1345d:	0f b6 00             	movzbl (%eax),%eax
   13460:	0f b6 c0             	movzbl %al,%eax
   13463:	83 ec 08             	sub    $0x8,%esp
   13466:	50                   	push   %eax
   13467:	68 23 71 01 00       	push   $0x17123
   1346c:	e8 3f e1 ff ff       	call   115b0 <__cio_printf>
   13471:	83 c4 10             	add    $0x10,%esp
   13474:	83 45 f4 01          	addl   $0x1,-0xc(%ebp)
   13478:	8b 45 f4             	mov    -0xc(%ebp),%eax
   1347b:	83 f8 07             	cmp    $0x7,%eax
   1347e:	76 d5                	jbe    13455 <_pcb_dump+0xe5>
   13480:	83 ec 0c             	sub    $0xc,%esp
   13483:	6a 0a                	push   $0xa
   13485:	e8 b3 d9 ff ff       	call   10e3d <__cio_putchar>
   1348a:	83 c4 10             	add    $0x10,%esp
   1348d:	8d 65 f8             	lea    -0x8(%ebp),%esp
   13490:	5b                   	pop    %ebx
   13491:	5e                   	pop    %esi
   13492:	5d                   	pop    %ebp
   13493:	c3                   	ret    

00013494 <_context_dump>:
   13494:	55                   	push   %ebp
   13495:	89 e5                	mov    %esp,%ebp
   13497:	57                   	push   %edi
   13498:	56                   	push   %esi
   13499:	53                   	push   %ebx
   1349a:	83 ec 1c             	sub    $0x1c,%esp
   1349d:	8b 5d 0c             	mov    0xc(%ebp),%ebx
   134a0:	83 7d 08 00          	cmpl   $0x0,0x8(%ebp)
   134a4:	74 13                	je     134b9 <_context_dump+0x25>
   134a6:	83 ec 08             	sub    $0x8,%esp
   134a9:	ff 75 08             	pushl  0x8(%ebp)
   134ac:	68 ac 70 01 00       	push   $0x170ac
   134b1:	e8 fa e0 ff ff       	call   115b0 <__cio_printf>
   134b6:	83 c4 10             	add    $0x10,%esp
   134b9:	89 d8                	mov    %ebx,%eax
   134bb:	83 ec 08             	sub    $0x8,%esp
   134be:	50                   	push   %eax
   134bf:	68 b0 70 01 00       	push   $0x170b0
   134c4:	e8 e7 e0 ff ff       	call   115b0 <__cio_printf>
   134c9:	83 c4 10             	add    $0x10,%esp
   134cc:	85 db                	test   %ebx,%ebx
   134ce:	75 15                	jne    134e5 <_context_dump+0x51>
   134d0:	83 ec 0c             	sub    $0xc,%esp
   134d3:	68 b9 70 01 00       	push   $0x170b9
   134d8:	e8 a0 da ff ff       	call   10f7d <__cio_puts>
   134dd:	83 c4 10             	add    $0x10,%esp
   134e0:	e9 9e 00 00 00       	jmp    13583 <_context_dump+0xef>
   134e5:	8b 43 40             	mov    0x40(%ebx),%eax
   134e8:	0f b6 c0             	movzbl %al,%eax
   134eb:	89 45 e4             	mov    %eax,-0x1c(%ebp)
   134ee:	8b 43 10             	mov    0x10(%ebx),%eax
   134f1:	0f b6 f8             	movzbl %al,%edi
   134f4:	8b 43 0c             	mov    0xc(%ebx),%eax
   134f7:	0f b6 f0             	movzbl %al,%esi
   134fa:	8b 43 08             	mov    0x8(%ebx),%eax
   134fd:	0f b6 c8             	movzbl %al,%ecx
   13500:	8b 43 04             	mov    0x4(%ebx),%eax
   13503:	0f b6 d0             	movzbl %al,%edx
   13506:	8b 03                	mov    (%ebx),%eax
   13508:	0f b6 c0             	movzbl %al,%eax
   1350b:	83 ec 04             	sub    $0x4,%esp
   1350e:	ff 75 e4             	pushl  -0x1c(%ebp)
   13511:	57                   	push   %edi
   13512:	56                   	push   %esi
   13513:	51                   	push   %ecx
   13514:	52                   	push   %edx
   13515:	50                   	push   %eax
   13516:	68 28 71 01 00       	push   $0x17128
   1351b:	e8 90 e0 ff ff       	call   115b0 <__cio_printf>
   13520:	83 c4 20             	add    $0x20,%esp
   13523:	8b 73 20             	mov    0x20(%ebx),%esi
   13526:	8b 4b 1c             	mov    0x1c(%ebx),%ecx
   13529:	8b 53 18             	mov    0x18(%ebx),%edx
   1352c:	8b 43 14             	mov    0x14(%ebx),%eax
   1352f:	83 ec 0c             	sub    $0xc,%esp
   13532:	56                   	push   %esi
   13533:	51                   	push   %ecx
   13534:	52                   	push   %edx
   13535:	50                   	push   %eax
   13536:	68 5c 71 01 00       	push   $0x1715c
   1353b:	e8 70 e0 ff ff       	call   115b0 <__cio_printf>
   13540:	83 c4 20             	add    $0x20,%esp
   13543:	8b 73 30             	mov    0x30(%ebx),%esi
   13546:	8b 4b 2c             	mov    0x2c(%ebx),%ecx
   13549:	8b 53 28             	mov    0x28(%ebx),%edx
   1354c:	8b 43 24             	mov    0x24(%ebx),%eax
   1354f:	83 ec 0c             	sub    $0xc,%esp
   13552:	56                   	push   %esi
   13553:	51                   	push   %ecx
   13554:	52                   	push   %edx
   13555:	50                   	push   %eax
   13556:	68 84 71 01 00       	push   $0x17184
   1355b:	e8 50 e0 ff ff       	call   115b0 <__cio_printf>
   13560:	83 c4 20             	add    $0x20,%esp
   13563:	8b 73 44             	mov    0x44(%ebx),%esi
   13566:	8b 4b 3c             	mov    0x3c(%ebx),%ecx
   13569:	8b 53 38             	mov    0x38(%ebx),%edx
   1356c:	8b 43 34             	mov    0x34(%ebx),%eax
   1356f:	83 ec 0c             	sub    $0xc,%esp
   13572:	56                   	push   %esi
   13573:	51                   	push   %ecx
   13574:	52                   	push   %edx
   13575:	50                   	push   %eax
   13576:	68 ac 71 01 00       	push   $0x171ac
   1357b:	e8 30 e0 ff ff       	call   115b0 <__cio_printf>
   13580:	83 c4 20             	add    $0x20,%esp
   13583:	8d 65 f4             	lea    -0xc(%ebp),%esp
   13586:	5b                   	pop    %ebx
   13587:	5e                   	pop    %esi
   13588:	5f                   	pop    %edi
   13589:	5d                   	pop    %ebp
   1358a:	c3                   	ret    

0001358b <_context_dump_all>:
   1358b:	55                   	push   %ebp
   1358c:	89 e5                	mov    %esp,%ebp
   1358e:	83 ec 18             	sub    $0x18,%esp
   13591:	83 7d 08 00          	cmpl   $0x0,0x8(%ebp)
   13595:	74 13                	je     135aa <_context_dump_all+0x1f>
   13597:	83 ec 08             	sub    $0x8,%esp
   1359a:	ff 75 08             	pushl  0x8(%ebp)
   1359d:	68 d6 71 01 00       	push   $0x171d6
   135a2:	e8 09 e0 ff ff       	call   115b0 <__cio_printf>
   135a7:	83 c4 10             	add    $0x10,%esp
   135aa:	a1 44 be 01 00       	mov    0x1be44,%eax
   135af:	83 ec 08             	sub    $0x8,%esp
   135b2:	50                   	push   %eax
   135b3:	68 db 71 01 00       	push   $0x171db
   135b8:	e8 f3 df ff ff       	call   115b0 <__cio_printf>
   135bd:	83 c4 10             	add    $0x10,%esp
   135c0:	a1 44 be 01 00       	mov    0x1be44,%eax
   135c5:	85 c0                	test   %eax,%eax
   135c7:	74 61                	je     1362a <_context_dump_all+0x9f>
   135c9:	c7 45 f4 00 00 00 00 	movl   $0x0,-0xc(%ebp)
   135d0:	c7 45 f0 00 00 00 00 	movl   $0x0,-0x10(%ebp)
   135d7:	eb 49                	jmp    13622 <_context_dump_all+0x97>
   135d9:	8b 45 f0             	mov    -0x10(%ebp),%eax
   135dc:	8b 04 85 60 be 01 00 	mov    0x1be60(,%eax,4),%eax
   135e3:	89 45 ec             	mov    %eax,-0x14(%ebp)
   135e6:	8b 45 ec             	mov    -0x14(%ebp),%eax
   135e9:	0f b6 40 14          	movzbl 0x14(%eax),%eax
   135ed:	84 c0                	test   %al,%al
   135ef:	74 2d                	je     1361e <_context_dump_all+0x93>
   135f1:	83 45 f4 01          	addl   $0x1,-0xc(%ebp)
   135f5:	83 ec 04             	sub    $0x4,%esp
   135f8:	ff 75 f0             	pushl  -0x10(%ebp)
   135fb:	ff 75 f4             	pushl  -0xc(%ebp)
   135fe:	68 f0 71 01 00       	push   $0x171f0
   13603:	e8 a8 df ff ff       	call   115b0 <__cio_printf>
   13608:	83 c4 10             	add    $0x10,%esp
   1360b:	8b 45 ec             	mov    -0x14(%ebp),%eax
   1360e:	8b 00                	mov    (%eax),%eax
   13610:	83 ec 08             	sub    $0x8,%esp
   13613:	50                   	push   %eax
   13614:	6a 00                	push   $0x0
   13616:	e8 79 fe ff ff       	call   13494 <_context_dump>
   1361b:	83 c4 10             	add    $0x10,%esp
   1361e:	83 45 f0 01          	addl   $0x1,-0x10(%ebp)
   13622:	83 7d f0 18          	cmpl   $0x18,-0x10(%ebp)
   13626:	7e b1                	jle    135d9 <_context_dump_all+0x4e>
   13628:	eb 01                	jmp    1362b <_context_dump_all+0xa0>
   1362a:	90                   	nop
   1362b:	c9                   	leave  
   1362c:	c3                   	ret    

0001362d <_active_dump>:
   1362d:	55                   	push   %ebp
   1362e:	89 e5                	mov    %esp,%ebp
   13630:	53                   	push   %ebx
   13631:	83 ec 24             	sub    $0x24,%esp
   13634:	8b 45 0c             	mov    0xc(%ebp),%eax
   13637:	88 45 e4             	mov    %al,-0x1c(%ebp)
   1363a:	83 7d 08 00          	cmpl   $0x0,0x8(%ebp)
   1363e:	74 13                	je     13653 <_active_dump+0x26>
   13640:	83 ec 08             	sub    $0x8,%esp
   13643:	ff 75 08             	pushl  0x8(%ebp)
   13646:	68 d6 71 01 00       	push   $0x171d6
   1364b:	e8 60 df ff ff       	call   115b0 <__cio_printf>
   13650:	83 c4 10             	add    $0x10,%esp
   13653:	c7 45 f4 00 00 00 00 	movl   $0x0,-0xc(%ebp)
   1365a:	c7 45 f0 00 00 00 00 	movl   $0x0,-0x10(%ebp)
   13661:	c7 45 ec 00 00 00 00 	movl   $0x0,-0x14(%ebp)
   13668:	e9 82 00 00 00       	jmp    136ef <_active_dump+0xc2>
   1366d:	8b 45 ec             	mov    -0x14(%ebp),%eax
   13670:	8b 1c 85 60 be 01 00 	mov    0x1be60(,%eax,4),%ebx
   13677:	0f b6 43 14          	movzbl 0x14(%ebx),%eax
   1367b:	84 c0                	test   %al,%al
   1367d:	75 06                	jne    13685 <_active_dump+0x58>
   1367f:	83 45 f0 01          	addl   $0x1,-0x10(%ebp)
   13683:	eb 66                	jmp    136eb <_active_dump+0xbe>
   13685:	83 45 f4 01          	addl   $0x1,-0xc(%ebp)
   13689:	80 7d e4 00          	cmpb   $0x0,-0x1c(%ebp)
   1368d:	75 13                	jne    136a2 <_active_dump+0x75>
   1368f:	83 7d f4 00          	cmpl   $0x0,-0xc(%ebp)
   13693:	74 0d                	je     136a2 <_active_dump+0x75>
   13695:	83 ec 0c             	sub    $0xc,%esp
   13698:	6a 2c                	push   $0x2c
   1369a:	e8 9e d7 ff ff       	call   10e3d <__cio_putchar>
   1369f:	83 c4 10             	add    $0x10,%esp
   136a2:	0f b6 43 14          	movzbl 0x14(%ebx),%eax
   136a6:	0f b6 c8             	movzbl %al,%ecx
   136a9:	0f b7 43 12          	movzwl 0x12(%ebx),%eax
   136ad:	0f bf d0             	movswl %ax,%edx
   136b0:	0f b7 43 10          	movzwl 0x10(%ebx),%eax
   136b4:	98                   	cwtl   
   136b5:	83 ec 0c             	sub    $0xc,%esp
   136b8:	51                   	push   %ecx
   136b9:	52                   	push   %edx
   136ba:	50                   	push   %eax
   136bb:	ff 75 ec             	pushl  -0x14(%ebp)
   136be:	68 fb 71 01 00       	push   $0x171fb
   136c3:	e8 e8 de ff ff       	call   115b0 <__cio_printf>
   136c8:	83 c4 20             	add    $0x20,%esp
   136cb:	80 7d e4 00          	cmpb   $0x0,-0x1c(%ebp)
   136cf:	74 1a                	je     136eb <_active_dump+0xbe>
   136d1:	8b 03                	mov    (%ebx),%eax
   136d3:	8b 40 3c             	mov    0x3c(%eax),%eax
   136d6:	8b 53 04             	mov    0x4(%ebx),%edx
   136d9:	83 ec 04             	sub    $0x4,%esp
   136dc:	50                   	push   %eax
   136dd:	52                   	push   %edx
   136de:	68 0a 72 01 00       	push   $0x1720a
   136e3:	e8 c8 de ff ff       	call   115b0 <__cio_printf>
   136e8:	83 c4 10             	add    $0x10,%esp
   136eb:	83 45 ec 01          	addl   $0x1,-0x14(%ebp)
   136ef:	83 7d ec 18          	cmpl   $0x18,-0x14(%ebp)
   136f3:	0f 8e 74 ff ff ff    	jle    1366d <_active_dump+0x40>
   136f9:	80 7d e4 00          	cmpb   $0x0,-0x1c(%ebp)
   136fd:	75 0d                	jne    1370c <_active_dump+0xdf>
   136ff:	83 ec 0c             	sub    $0xc,%esp
   13702:	6a 0a                	push   $0xa
   13704:	e8 34 d7 ff ff       	call   10e3d <__cio_putchar>
   13709:	83 c4 10             	add    $0x10,%esp
   1370c:	8b 55 f4             	mov    -0xc(%ebp),%edx
   1370f:	8b 45 f0             	mov    -0x10(%ebp),%eax
   13712:	01 d0                	add    %edx,%eax
   13714:	83 f8 19             	cmp    $0x19,%eax
   13717:	74 21                	je     1373a <_active_dump+0x10d>
   13719:	8b 55 f4             	mov    -0xc(%ebp),%edx
   1371c:	8b 45 f0             	mov    -0x10(%ebp),%eax
   1371f:	01 d0                	add    %edx,%eax
   13721:	83 ec 0c             	sub    $0xc,%esp
   13724:	50                   	push   %eax
   13725:	ff 75 f0             	pushl  -0x10(%ebp)
   13728:	ff 75 f4             	pushl  -0xc(%ebp)
   1372b:	6a 19                	push   $0x19
   1372d:	68 20 72 01 00       	push   $0x17220
   13732:	e8 79 de ff ff       	call   115b0 <__cio_printf>
   13737:	83 c4 20             	add    $0x20,%esp
   1373a:	90                   	nop
   1373b:	8b 5d fc             	mov    -0x4(%ebp),%ebx
   1373e:	c9                   	leave  
   1373f:	c3                   	ret    

00013740 <_new_qnodes>:
   13740:	55                   	push   %ebp
   13741:	89 e5                	mov    %esp,%ebp
   13743:	83 ec 28             	sub    $0x28,%esp
   13746:	8b 45 08             	mov    0x8(%ebp),%eax
   13749:	88 45 e4             	mov    %al,-0x1c(%ebp)
   1374c:	e8 3b f7 ff ff       	call   12e8c <_km_slice_alloc>
   13751:	89 45 f0             	mov    %eax,-0x10(%ebp)
   13754:	80 7d e4 00          	cmpb   $0x0,-0x1c(%ebp)
   13758:	74 3e                	je     13798 <_new_qnodes+0x58>
   1375a:	83 7d f0 00          	cmpl   $0x0,-0x10(%ebp)
   1375e:	75 38                	jne    13798 <_new_qnodes+0x58>
   13760:	83 ec 08             	sub    $0x8,%esp
   13763:	6a 00                	push   $0x0
   13765:	6a 6d                	push   $0x6d
   13767:	68 58 72 01 00       	push   $0x17258
   1376c:	68 fc 72 01 00       	push   $0x172fc
   13771:	68 61 72 01 00       	push   $0x17261
   13776:	68 00 bb 01 00       	push   $0x1bb00
   1377b:	e8 a8 ec ff ff       	call   12428 <__sprint>
   13780:	83 c4 20             	add    $0x20,%esp
   13783:	83 ec 08             	sub    $0x8,%esp
   13786:	68 7b 72 01 00       	push   $0x1727b
   1378b:	68 00 bb 01 00       	push   $0x1bb00
   13790:	e8 a1 f0 ff ff       	call   12836 <_kpanic>
   13795:	83 c4 10             	add    $0x10,%esp
   13798:	83 7d f0 00          	cmpl   $0x0,-0x10(%ebp)
   1379c:	75 07                	jne    137a5 <_new_qnodes+0x65>
   1379e:	b8 00 00 00 00       	mov    $0x0,%eax
   137a3:	eb 46                	jmp    137eb <_new_qnodes+0xab>
   137a5:	83 ec 08             	sub    $0x8,%esp
   137a8:	68 00 04 00 00       	push   $0x400
   137ad:	ff 75 f0             	pushl  -0x10(%ebp)
   137b0:	e8 b1 ea ff ff       	call   12266 <__memclr>
   137b5:	83 c4 10             	add    $0x10,%esp
   137b8:	c7 45 f4 00 00 00 00 	movl   $0x0,-0xc(%ebp)
   137bf:	eb 1d                	jmp    137de <_new_qnodes+0x9e>
   137c1:	8b 45 f4             	mov    -0xc(%ebp),%eax
   137c4:	c1 e0 04             	shl    $0x4,%eax
   137c7:	89 c2                	mov    %eax,%edx
   137c9:	8b 45 f0             	mov    -0x10(%ebp),%eax
   137cc:	01 d0                	add    %edx,%eax
   137ce:	83 ec 0c             	sub    $0xc,%esp
   137d1:	50                   	push   %eax
   137d2:	e8 2e 01 00 00       	call   13905 <_qn_free>
   137d7:	83 c4 10             	add    $0x10,%esp
   137da:	83 45 f4 01          	addl   $0x1,-0xc(%ebp)
   137de:	8b 45 f4             	mov    -0xc(%ebp),%eax
   137e1:	83 f8 3f             	cmp    $0x3f,%eax
   137e4:	76 db                	jbe    137c1 <_new_qnodes+0x81>
   137e6:	b8 01 00 00 00       	mov    $0x1,%eax
   137eb:	c9                   	leave  
   137ec:	c3                   	ret    

000137ed <_new_queues>:
   137ed:	55                   	push   %ebp
   137ee:	89 e5                	mov    %esp,%ebp
   137f0:	83 ec 28             	sub    $0x28,%esp
   137f3:	8b 45 08             	mov    0x8(%ebp),%eax
   137f6:	88 45 e4             	mov    %al,-0x1c(%ebp)
   137f9:	e8 8e f6 ff ff       	call   12e8c <_km_slice_alloc>
   137fe:	89 45 f0             	mov    %eax,-0x10(%ebp)
   13801:	80 7d e4 00          	cmpb   $0x0,-0x1c(%ebp)
   13805:	74 41                	je     13848 <_new_queues+0x5b>
   13807:	83 7d f0 00          	cmpl   $0x0,-0x10(%ebp)
   1380b:	75 3b                	jne    13848 <_new_queues+0x5b>
   1380d:	83 ec 08             	sub    $0x8,%esp
   13810:	6a 00                	push   $0x0
   13812:	68 91 00 00 00       	push   $0x91
   13817:	68 58 72 01 00       	push   $0x17258
   1381c:	68 08 73 01 00       	push   $0x17308
   13821:	68 61 72 01 00       	push   $0x17261
   13826:	68 00 bb 01 00       	push   $0x1bb00
   1382b:	e8 f8 eb ff ff       	call   12428 <__sprint>
   13830:	83 c4 20             	add    $0x20,%esp
   13833:	83 ec 08             	sub    $0x8,%esp
   13836:	68 7b 72 01 00       	push   $0x1727b
   1383b:	68 00 bb 01 00       	push   $0x1bb00
   13840:	e8 f1 ef ff ff       	call   12836 <_kpanic>
   13845:	83 c4 10             	add    $0x10,%esp
   13848:	83 7d f0 00          	cmpl   $0x0,-0x10(%ebp)
   1384c:	75 07                	jne    13855 <_new_queues+0x68>
   1384e:	b8 00 00 00 00       	mov    $0x0,%eax
   13853:	eb 46                	jmp    1389b <_new_queues+0xae>
   13855:	83 ec 08             	sub    $0x8,%esp
   13858:	68 00 04 00 00       	push   $0x400
   1385d:	ff 75 f0             	pushl  -0x10(%ebp)
   13860:	e8 01 ea ff ff       	call   12266 <__memclr>
   13865:	83 c4 10             	add    $0x10,%esp
   13868:	c7 45 f4 00 00 00 00 	movl   $0x0,-0xc(%ebp)
   1386f:	eb 1d                	jmp    1388e <_new_queues+0xa1>
   13871:	8b 45 f4             	mov    -0xc(%ebp),%eax
   13874:	c1 e0 04             	shl    $0x4,%eax
   13877:	89 c2                	mov    %eax,%edx
   13879:	8b 45 f0             	mov    -0x10(%ebp),%eax
   1387c:	01 d0                	add    %edx,%eax
   1387e:	83 ec 0c             	sub    $0xc,%esp
   13881:	50                   	push   %eax
   13882:	e8 55 01 00 00       	call   139dc <_que_free>
   13887:	83 c4 10             	add    $0x10,%esp
   1388a:	83 45 f4 01          	addl   $0x1,-0xc(%ebp)
   1388e:	8b 45 f4             	mov    -0xc(%ebp),%eax
   13891:	83 f8 3f             	cmp    $0x3f,%eax
   13894:	76 db                	jbe    13871 <_new_queues+0x84>
   13896:	b8 01 00 00 00       	mov    $0x1,%eax
   1389b:	c9                   	leave  
   1389c:	c3                   	ret    

0001389d <_qn_alloc>:
   1389d:	55                   	push   %ebp
   1389e:	89 e5                	mov    %esp,%ebp
   138a0:	83 ec 18             	sub    $0x18,%esp
   138a3:	a1 24 a6 01 00       	mov    0x1a624,%eax
   138a8:	85 c0                	test   %eax,%eax
   138aa:	75 18                	jne    138c4 <_qn_alloc+0x27>
   138ac:	83 ec 0c             	sub    $0xc,%esp
   138af:	6a 00                	push   $0x0
   138b1:	e8 8a fe ff ff       	call   13740 <_new_qnodes>
   138b6:	83 c4 10             	add    $0x10,%esp
   138b9:	84 c0                	test   %al,%al
   138bb:	75 07                	jne    138c4 <_qn_alloc+0x27>
   138bd:	b8 00 00 00 00       	mov    $0x0,%eax
   138c2:	eb 3f                	jmp    13903 <_qn_alloc+0x66>
   138c4:	a1 24 a6 01 00       	mov    0x1a624,%eax
   138c9:	89 45 f4             	mov    %eax,-0xc(%ebp)
   138cc:	8b 45 f4             	mov    -0xc(%ebp),%eax
   138cf:	8b 40 04             	mov    0x4(%eax),%eax
   138d2:	a3 24 a6 01 00       	mov    %eax,0x1a624
   138d7:	8b 45 f4             	mov    -0xc(%ebp),%eax
   138da:	c7 40 0c 00 00 00 00 	movl   $0x0,0xc(%eax)
   138e1:	8b 45 f4             	mov    -0xc(%ebp),%eax
   138e4:	c7 40 04 00 00 00 00 	movl   $0x0,0x4(%eax)
   138eb:	8b 45 f4             	mov    -0xc(%ebp),%eax
   138ee:	8b 50 04             	mov    0x4(%eax),%edx
   138f1:	8b 45 f4             	mov    -0xc(%ebp),%eax
   138f4:	89 10                	mov    %edx,(%eax)
   138f6:	8b 45 f4             	mov    -0xc(%ebp),%eax
   138f9:	c7 40 08 00 00 00 00 	movl   $0x0,0x8(%eax)
   13900:	8b 45 f4             	mov    -0xc(%ebp),%eax
   13903:	c9                   	leave  
   13904:	c3                   	ret    

00013905 <_qn_free>:
   13905:	55                   	push   %ebp
   13906:	89 e5                	mov    %esp,%ebp
   13908:	8b 15 24 a6 01 00    	mov    0x1a624,%edx
   1390e:	8b 45 08             	mov    0x8(%ebp),%eax
   13911:	89 50 04             	mov    %edx,0x4(%eax)
   13914:	8b 45 08             	mov    0x8(%ebp),%eax
   13917:	a3 24 a6 01 00       	mov    %eax,0x1a624
   1391c:	90                   	nop
   1391d:	5d                   	pop    %ebp
   1391e:	c3                   	ret    

0001391f <_que_init>:
   1391f:	55                   	push   %ebp
   13920:	89 e5                	mov    %esp,%ebp
   13922:	83 ec 08             	sub    $0x8,%esp
   13925:	83 ec 0c             	sub    $0xc,%esp
   13928:	68 93 72 01 00       	push   $0x17293
   1392d:	e8 4b d6 ff ff       	call   10f7d <__cio_puts>
   13932:	83 c4 10             	add    $0x10,%esp
   13935:	c7 05 24 a6 01 00 00 	movl   $0x0,0x1a624
   1393c:	00 00 00 
   1393f:	83 ec 0c             	sub    $0xc,%esp
   13942:	6a 01                	push   $0x1
   13944:	e8 f7 fd ff ff       	call   13740 <_new_qnodes>
   13949:	83 c4 10             	add    $0x10,%esp
   1394c:	c7 05 28 a6 01 00 00 	movl   $0x0,0x1a628
   13953:	00 00 00 
   13956:	83 ec 0c             	sub    $0xc,%esp
   13959:	6a 01                	push   $0x1
   1395b:	e8 8d fe ff ff       	call   137ed <_new_queues>
   13960:	83 c4 10             	add    $0x10,%esp
   13963:	83 ec 0c             	sub    $0xc,%esp
   13966:	68 9b 72 01 00       	push   $0x1729b
   1396b:	e8 0d d6 ff ff       	call   10f7d <__cio_puts>
   13970:	83 c4 10             	add    $0x10,%esp
   13973:	90                   	nop
   13974:	c9                   	leave  
   13975:	c3                   	ret    

00013976 <_que_alloc>:
   13976:	55                   	push   %ebp
   13977:	89 e5                	mov    %esp,%ebp
   13979:	83 ec 18             	sub    $0x18,%esp
   1397c:	a1 28 a6 01 00       	mov    0x1a628,%eax
   13981:	85 c0                	test   %eax,%eax
   13983:	75 18                	jne    1399d <_que_alloc+0x27>
   13985:	83 ec 0c             	sub    $0xc,%esp
   13988:	6a 00                	push   $0x0
   1398a:	e8 5e fe ff ff       	call   137ed <_new_queues>
   1398f:	83 c4 10             	add    $0x10,%esp
   13992:	84 c0                	test   %al,%al
   13994:	75 07                	jne    1399d <_que_alloc+0x27>
   13996:	b8 00 00 00 00       	mov    $0x0,%eax
   1399b:	eb 3d                	jmp    139da <_que_alloc+0x64>
   1399d:	a1 28 a6 01 00       	mov    0x1a628,%eax
   139a2:	89 45 f4             	mov    %eax,-0xc(%ebp)
   139a5:	8b 45 f4             	mov    -0xc(%ebp),%eax
   139a8:	8b 00                	mov    (%eax),%eax
   139aa:	a3 28 a6 01 00       	mov    %eax,0x1a628
   139af:	8b 45 f4             	mov    -0xc(%ebp),%eax
   139b2:	c7 40 04 00 00 00 00 	movl   $0x0,0x4(%eax)
   139b9:	8b 45 f4             	mov    -0xc(%ebp),%eax
   139bc:	8b 50 04             	mov    0x4(%eax),%edx
   139bf:	8b 45 f4             	mov    -0xc(%ebp),%eax
   139c2:	89 10                	mov    %edx,(%eax)
   139c4:	8b 45 f4             	mov    -0xc(%ebp),%eax
   139c7:	c7 40 08 00 00 00 00 	movl   $0x0,0x8(%eax)
   139ce:	8b 45 f4             	mov    -0xc(%ebp),%eax
   139d1:	8b 55 08             	mov    0x8(%ebp),%edx
   139d4:	89 50 0c             	mov    %edx,0xc(%eax)
   139d7:	8b 45 f4             	mov    -0xc(%ebp),%eax
   139da:	c9                   	leave  
   139db:	c3                   	ret    

000139dc <_que_free>:
   139dc:	55                   	push   %ebp
   139dd:	89 e5                	mov    %esp,%ebp
   139df:	83 ec 08             	sub    $0x8,%esp
   139e2:	83 7d 08 00          	cmpl   $0x0,0x8(%ebp)
   139e6:	75 3b                	jne    13a23 <_que_free+0x47>
   139e8:	83 ec 08             	sub    $0x8,%esp
   139eb:	6a 01                	push   $0x1
   139ed:	68 20 01 00 00       	push   $0x120
   139f2:	68 58 72 01 00       	push   $0x17258
   139f7:	68 14 73 01 00       	push   $0x17314
   139fc:	68 61 72 01 00       	push   $0x17261
   13a01:	68 00 bb 01 00       	push   $0x1bb00
   13a06:	e8 1d ea ff ff       	call   12428 <__sprint>
   13a0b:	83 c4 20             	add    $0x20,%esp
   13a0e:	83 ec 08             	sub    $0x8,%esp
   13a11:	68 a1 72 01 00       	push   $0x172a1
   13a16:	68 00 bb 01 00       	push   $0x1bb00
   13a1b:	e8 16 ee ff ff       	call   12836 <_kpanic>
   13a20:	83 c4 10             	add    $0x10,%esp
   13a23:	8b 15 28 a6 01 00    	mov    0x1a628,%edx
   13a29:	8b 45 08             	mov    0x8(%ebp),%eax
   13a2c:	89 10                	mov    %edx,(%eax)
   13a2e:	8b 45 08             	mov    0x8(%ebp),%eax
   13a31:	a3 28 a6 01 00       	mov    %eax,0x1a628
   13a36:	90                   	nop
   13a37:	c9                   	leave  
   13a38:	c3                   	ret    

00013a39 <_que_length>:
   13a39:	55                   	push   %ebp
   13a3a:	89 e5                	mov    %esp,%ebp
   13a3c:	83 ec 08             	sub    $0x8,%esp
   13a3f:	83 7d 08 00          	cmpl   $0x0,0x8(%ebp)
   13a43:	75 3b                	jne    13a80 <_que_length+0x47>
   13a45:	83 ec 08             	sub    $0x8,%esp
   13a48:	6a 01                	push   $0x1
   13a4a:	68 2f 01 00 00       	push   $0x12f
   13a4f:	68 58 72 01 00       	push   $0x17258
   13a54:	68 20 73 01 00       	push   $0x17320
   13a59:	68 61 72 01 00       	push   $0x17261
   13a5e:	68 00 bb 01 00       	push   $0x1bb00
   13a63:	e8 c0 e9 ff ff       	call   12428 <__sprint>
   13a68:	83 c4 20             	add    $0x20,%esp
   13a6b:	83 ec 08             	sub    $0x8,%esp
   13a6e:	68 a1 72 01 00       	push   $0x172a1
   13a73:	68 00 bb 01 00       	push   $0x1bb00
   13a78:	e8 b9 ed ff ff       	call   12836 <_kpanic>
   13a7d:	83 c4 10             	add    $0x10,%esp
   13a80:	8b 45 08             	mov    0x8(%ebp),%eax
   13a83:	8b 40 08             	mov    0x8(%eax),%eax
   13a86:	c9                   	leave  
   13a87:	c3                   	ret    

00013a88 <_que_enque>:
   13a88:	55                   	push   %ebp
   13a89:	89 e5                	mov    %esp,%ebp
   13a8b:	83 ec 18             	sub    $0x18,%esp
   13a8e:	83 7d 08 00          	cmpl   $0x0,0x8(%ebp)
   13a92:	75 3b                	jne    13acf <_que_enque+0x47>
   13a94:	83 ec 08             	sub    $0x8,%esp
   13a97:	6a 01                	push   $0x1
   13a99:	68 41 01 00 00       	push   $0x141
   13a9e:	68 58 72 01 00       	push   $0x17258
   13aa3:	68 2c 73 01 00       	push   $0x1732c
   13aa8:	68 61 72 01 00       	push   $0x17261
   13aad:	68 00 bb 01 00       	push   $0x1bb00
   13ab2:	e8 71 e9 ff ff       	call   12428 <__sprint>
   13ab7:	83 c4 20             	add    $0x20,%esp
   13aba:	83 ec 08             	sub    $0x8,%esp
   13abd:	68 a1 72 01 00       	push   $0x172a1
   13ac2:	68 00 bb 01 00       	push   $0x1bb00
   13ac7:	e8 6a ed ff ff       	call   12836 <_kpanic>
   13acc:	83 c4 10             	add    $0x10,%esp
   13acf:	e8 c9 fd ff ff       	call   1389d <_qn_alloc>
   13ad4:	89 45 f0             	mov    %eax,-0x10(%ebp)
   13ad7:	83 7d f0 00          	cmpl   $0x0,-0x10(%ebp)
   13adb:	75 0a                	jne    13ae7 <_que_enque+0x5f>
   13add:	b8 fe ff ff ff       	mov    $0xfffffffe,%eax
   13ae2:	e9 34 01 00 00       	jmp    13c1b <_que_enque+0x193>
   13ae7:	8b 45 f0             	mov    -0x10(%ebp),%eax
   13aea:	8b 55 0c             	mov    0xc(%ebp),%edx
   13aed:	89 50 0c             	mov    %edx,0xc(%eax)
   13af0:	8b 45 f0             	mov    -0x10(%ebp),%eax
   13af3:	8b 55 10             	mov    0x10(%ebp),%edx
   13af6:	89 50 08             	mov    %edx,0x8(%eax)
   13af9:	8b 45 08             	mov    0x8(%ebp),%eax
   13afc:	8b 40 08             	mov    0x8(%eax),%eax
   13aff:	85 c0                	test   %eax,%eax
   13b01:	75 28                	jne    13b2b <_que_enque+0xa3>
   13b03:	8b 45 08             	mov    0x8(%ebp),%eax
   13b06:	8b 55 f0             	mov    -0x10(%ebp),%edx
   13b09:	89 50 04             	mov    %edx,0x4(%eax)
   13b0c:	8b 45 08             	mov    0x8(%ebp),%eax
   13b0f:	8b 50 04             	mov    0x4(%eax),%edx
   13b12:	8b 45 08             	mov    0x8(%ebp),%eax
   13b15:	89 10                	mov    %edx,(%eax)
   13b17:	8b 45 08             	mov    0x8(%ebp),%eax
   13b1a:	c7 40 08 01 00 00 00 	movl   $0x1,0x8(%eax)
   13b21:	b8 00 00 00 00       	mov    $0x0,%eax
   13b26:	e9 f0 00 00 00       	jmp    13c1b <_que_enque+0x193>
   13b2b:	8b 45 08             	mov    0x8(%ebp),%eax
   13b2e:	8b 40 0c             	mov    0xc(%eax),%eax
   13b31:	85 c0                	test   %eax,%eax
   13b33:	75 39                	jne    13b6e <_que_enque+0xe6>
   13b35:	8b 45 08             	mov    0x8(%ebp),%eax
   13b38:	8b 50 04             	mov    0x4(%eax),%edx
   13b3b:	8b 45 f0             	mov    -0x10(%ebp),%eax
   13b3e:	89 10                	mov    %edx,(%eax)
   13b40:	8b 45 08             	mov    0x8(%ebp),%eax
   13b43:	8b 40 04             	mov    0x4(%eax),%eax
   13b46:	8b 55 f0             	mov    -0x10(%ebp),%edx
   13b49:	89 50 04             	mov    %edx,0x4(%eax)
   13b4c:	8b 45 08             	mov    0x8(%ebp),%eax
   13b4f:	8b 55 f0             	mov    -0x10(%ebp),%edx
   13b52:	89 50 04             	mov    %edx,0x4(%eax)
   13b55:	8b 45 08             	mov    0x8(%ebp),%eax
   13b58:	8b 40 08             	mov    0x8(%eax),%eax
   13b5b:	8d 50 01             	lea    0x1(%eax),%edx
   13b5e:	8b 45 08             	mov    0x8(%ebp),%eax
   13b61:	89 50 08             	mov    %edx,0x8(%eax)
   13b64:	b8 00 00 00 00       	mov    $0x0,%eax
   13b69:	e9 ad 00 00 00       	jmp    13c1b <_que_enque+0x193>
   13b6e:	8b 45 08             	mov    0x8(%ebp),%eax
   13b71:	8b 00                	mov    (%eax),%eax
   13b73:	89 45 f4             	mov    %eax,-0xc(%ebp)
   13b76:	eb 09                	jmp    13b81 <_que_enque+0xf9>
   13b78:	8b 45 f4             	mov    -0xc(%ebp),%eax
   13b7b:	8b 40 04             	mov    0x4(%eax),%eax
   13b7e:	89 45 f4             	mov    %eax,-0xc(%ebp)
   13b81:	83 7d f4 00          	cmpl   $0x0,-0xc(%ebp)
   13b85:	74 1f                	je     13ba6 <_que_enque+0x11e>
   13b87:	8b 45 08             	mov    0x8(%ebp),%eax
   13b8a:	8b 40 0c             	mov    0xc(%eax),%eax
   13b8d:	8b 55 f4             	mov    -0xc(%ebp),%edx
   13b90:	8b 52 08             	mov    0x8(%edx),%edx
   13b93:	89 d1                	mov    %edx,%ecx
   13b95:	8b 55 10             	mov    0x10(%ebp),%edx
   13b98:	83 ec 08             	sub    $0x8,%esp
   13b9b:	51                   	push   %ecx
   13b9c:	52                   	push   %edx
   13b9d:	ff d0                	call   *%eax
   13b9f:	83 c4 10             	add    $0x10,%esp
   13ba2:	85 c0                	test   %eax,%eax
   13ba4:	79 d2                	jns    13b78 <_que_enque+0xf0>
   13ba6:	8b 45 f0             	mov    -0x10(%ebp),%eax
   13ba9:	8b 55 f4             	mov    -0xc(%ebp),%edx
   13bac:	89 50 04             	mov    %edx,0x4(%eax)
   13baf:	83 7d f4 00          	cmpl   $0x0,-0xc(%ebp)
   13bb3:	75 22                	jne    13bd7 <_que_enque+0x14f>
   13bb5:	8b 45 08             	mov    0x8(%ebp),%eax
   13bb8:	8b 50 04             	mov    0x4(%eax),%edx
   13bbb:	8b 45 f0             	mov    -0x10(%ebp),%eax
   13bbe:	89 10                	mov    %edx,(%eax)
   13bc0:	8b 45 08             	mov    0x8(%ebp),%eax
   13bc3:	8b 40 04             	mov    0x4(%eax),%eax
   13bc6:	8b 55 f0             	mov    -0x10(%ebp),%edx
   13bc9:	89 50 04             	mov    %edx,0x4(%eax)
   13bcc:	8b 45 08             	mov    0x8(%ebp),%eax
   13bcf:	8b 55 f0             	mov    -0x10(%ebp),%edx
   13bd2:	89 50 04             	mov    %edx,0x4(%eax)
   13bd5:	eb 30                	jmp    13c07 <_que_enque+0x17f>
   13bd7:	8b 45 f4             	mov    -0xc(%ebp),%eax
   13bda:	8b 10                	mov    (%eax),%edx
   13bdc:	8b 45 f0             	mov    -0x10(%ebp),%eax
   13bdf:	89 10                	mov    %edx,(%eax)
   13be1:	8b 45 f4             	mov    -0xc(%ebp),%eax
   13be4:	8b 00                	mov    (%eax),%eax
   13be6:	85 c0                	test   %eax,%eax
   13be8:	75 0a                	jne    13bf4 <_que_enque+0x16c>
   13bea:	8b 45 08             	mov    0x8(%ebp),%eax
   13bed:	8b 55 f0             	mov    -0x10(%ebp),%edx
   13bf0:	89 10                	mov    %edx,(%eax)
   13bf2:	eb 0b                	jmp    13bff <_que_enque+0x177>
   13bf4:	8b 45 f0             	mov    -0x10(%ebp),%eax
   13bf7:	8b 00                	mov    (%eax),%eax
   13bf9:	8b 55 f0             	mov    -0x10(%ebp),%edx
   13bfc:	89 50 04             	mov    %edx,0x4(%eax)
   13bff:	8b 45 f4             	mov    -0xc(%ebp),%eax
   13c02:	8b 55 f0             	mov    -0x10(%ebp),%edx
   13c05:	89 10                	mov    %edx,(%eax)
   13c07:	8b 45 08             	mov    0x8(%ebp),%eax
   13c0a:	8b 40 08             	mov    0x8(%eax),%eax
   13c0d:	8d 50 01             	lea    0x1(%eax),%edx
   13c10:	8b 45 08             	mov    0x8(%ebp),%eax
   13c13:	89 50 08             	mov    %edx,0x8(%eax)
   13c16:	b8 00 00 00 00       	mov    $0x0,%eax
   13c1b:	c9                   	leave  
   13c1c:	c3                   	ret    

00013c1d <_que_deque>:
   13c1d:	55                   	push   %ebp
   13c1e:	89 e5                	mov    %esp,%ebp
   13c20:	83 ec 18             	sub    $0x18,%esp
   13c23:	83 7d 08 00          	cmpl   $0x0,0x8(%ebp)
   13c27:	75 3b                	jne    13c64 <_que_deque+0x47>
   13c29:	83 ec 08             	sub    $0x8,%esp
   13c2c:	6a 01                	push   $0x1
   13c2e:	68 a0 01 00 00       	push   $0x1a0
   13c33:	68 58 72 01 00       	push   $0x17258
   13c38:	68 38 73 01 00       	push   $0x17338
   13c3d:	68 61 72 01 00       	push   $0x17261
   13c42:	68 00 bb 01 00       	push   $0x1bb00
   13c47:	e8 dc e7 ff ff       	call   12428 <__sprint>
   13c4c:	83 c4 20             	add    $0x20,%esp
   13c4f:	83 ec 08             	sub    $0x8,%esp
   13c52:	68 a1 72 01 00       	push   $0x172a1
   13c57:	68 00 bb 01 00       	push   $0x1bb00
   13c5c:	e8 d5 eb ff ff       	call   12836 <_kpanic>
   13c61:	83 c4 10             	add    $0x10,%esp
   13c64:	8b 45 08             	mov    0x8(%ebp),%eax
   13c67:	8b 40 08             	mov    0x8(%eax),%eax
   13c6a:	85 c0                	test   %eax,%eax
   13c6c:	75 07                	jne    13c75 <_que_deque+0x58>
   13c6e:	b8 00 00 00 00       	mov    $0x0,%eax
   13c73:	eb 5c                	jmp    13cd1 <_que_deque+0xb4>
   13c75:	8b 45 08             	mov    0x8(%ebp),%eax
   13c78:	8b 00                	mov    (%eax),%eax
   13c7a:	89 45 f4             	mov    %eax,-0xc(%ebp)
   13c7d:	8b 45 f4             	mov    -0xc(%ebp),%eax
   13c80:	8b 40 0c             	mov    0xc(%eax),%eax
   13c83:	89 45 f0             	mov    %eax,-0x10(%ebp)
   13c86:	8b 45 f4             	mov    -0xc(%ebp),%eax
   13c89:	8b 50 04             	mov    0x4(%eax),%edx
   13c8c:	8b 45 08             	mov    0x8(%ebp),%eax
   13c8f:	89 10                	mov    %edx,(%eax)
   13c91:	8b 45 08             	mov    0x8(%ebp),%eax
   13c94:	8b 40 08             	mov    0x8(%eax),%eax
   13c97:	8d 50 ff             	lea    -0x1(%eax),%edx
   13c9a:	8b 45 08             	mov    0x8(%ebp),%eax
   13c9d:	89 50 08             	mov    %edx,0x8(%eax)
   13ca0:	8b 45 08             	mov    0x8(%ebp),%eax
   13ca3:	8b 00                	mov    (%eax),%eax
   13ca5:	85 c0                	test   %eax,%eax
   13ca7:	74 0d                	je     13cb6 <_que_deque+0x99>
   13ca9:	8b 45 08             	mov    0x8(%ebp),%eax
   13cac:	8b 00                	mov    (%eax),%eax
   13cae:	c7 00 00 00 00 00    	movl   $0x0,(%eax)
   13cb4:	eb 0a                	jmp    13cc0 <_que_deque+0xa3>
   13cb6:	8b 45 08             	mov    0x8(%ebp),%eax
   13cb9:	c7 40 04 00 00 00 00 	movl   $0x0,0x4(%eax)
   13cc0:	83 ec 0c             	sub    $0xc,%esp
   13cc3:	ff 75 f4             	pushl  -0xc(%ebp)
   13cc6:	e8 3a fc ff ff       	call   13905 <_qn_free>
   13ccb:	83 c4 10             	add    $0x10,%esp
   13cce:	8b 45 f0             	mov    -0x10(%ebp),%eax
   13cd1:	c9                   	leave  
   13cd2:	c3                   	ret    

00013cd3 <_que_peek>:
   13cd3:	55                   	push   %ebp
   13cd4:	89 e5                	mov    %esp,%ebp
   13cd6:	83 ec 08             	sub    $0x8,%esp
   13cd9:	83 7d 08 00          	cmpl   $0x0,0x8(%ebp)
   13cdd:	75 3b                	jne    13d1a <_que_peek+0x47>
   13cdf:	83 ec 08             	sub    $0x8,%esp
   13ce2:	6a 01                	push   $0x1
   13ce4:	68 cc 01 00 00       	push   $0x1cc
   13ce9:	68 58 72 01 00       	push   $0x17258
   13cee:	68 44 73 01 00       	push   $0x17344
   13cf3:	68 61 72 01 00       	push   $0x17261
   13cf8:	68 00 bb 01 00       	push   $0x1bb00
   13cfd:	e8 26 e7 ff ff       	call   12428 <__sprint>
   13d02:	83 c4 20             	add    $0x20,%esp
   13d05:	83 ec 08             	sub    $0x8,%esp
   13d08:	68 a1 72 01 00       	push   $0x172a1
   13d0d:	68 00 bb 01 00       	push   $0x1bb00
   13d12:	e8 1f eb ff ff       	call   12836 <_kpanic>
   13d17:	83 c4 10             	add    $0x10,%esp
   13d1a:	8b 45 08             	mov    0x8(%ebp),%eax
   13d1d:	8b 40 08             	mov    0x8(%eax),%eax
   13d20:	85 c0                	test   %eax,%eax
   13d22:	75 07                	jne    13d2b <_que_peek+0x58>
   13d24:	b8 00 00 00 00       	mov    $0x0,%eax
   13d29:	eb 08                	jmp    13d33 <_que_peek+0x60>
   13d2b:	8b 45 08             	mov    0x8(%ebp),%eax
   13d2e:	8b 00                	mov    (%eax),%eax
   13d30:	8b 40 0c             	mov    0xc(%eax),%eax
   13d33:	c9                   	leave  
   13d34:	c3                   	ret    

00013d35 <_que_dump>:
   13d35:	55                   	push   %ebp
   13d36:	89 e5                	mov    %esp,%ebp
   13d38:	83 ec 18             	sub    $0x18,%esp
   13d3b:	83 ec 08             	sub    $0x8,%esp
   13d3e:	ff 75 08             	pushl  0x8(%ebp)
   13d41:	68 a8 72 01 00       	push   $0x172a8
   13d46:	e8 65 d8 ff ff       	call   115b0 <__cio_printf>
   13d4b:	83 c4 10             	add    $0x10,%esp
   13d4e:	83 7d 0c 00          	cmpl   $0x0,0xc(%ebp)
   13d52:	75 15                	jne    13d69 <_que_dump+0x34>
   13d54:	83 ec 0c             	sub    $0xc,%esp
   13d57:	68 ad 72 01 00       	push   $0x172ad
   13d5c:	e8 1c d2 ff ff       	call   10f7d <__cio_puts>
   13d61:	83 c4 10             	add    $0x10,%esp
   13d64:	e9 d4 00 00 00       	jmp    13e3d <_que_dump+0x108>
   13d69:	8b 45 0c             	mov    0xc(%ebp),%eax
   13d6c:	8b 40 08             	mov    0x8(%eax),%eax
   13d6f:	8b 55 0c             	mov    0xc(%ebp),%edx
   13d72:	8b 52 04             	mov    0x4(%edx),%edx
   13d75:	89 d1                	mov    %edx,%ecx
   13d77:	8b 55 0c             	mov    0xc(%ebp),%edx
   13d7a:	8b 12                	mov    (%edx),%edx
   13d7c:	50                   	push   %eax
   13d7d:	51                   	push   %ecx
   13d7e:	52                   	push   %edx
   13d7f:	68 b6 72 01 00       	push   $0x172b6
   13d84:	e8 27 d8 ff ff       	call   115b0 <__cio_printf>
   13d89:	83 c4 10             	add    $0x10,%esp
   13d8c:	8b 45 0c             	mov    0xc(%ebp),%eax
   13d8f:	8b 40 0c             	mov    0xc(%eax),%eax
   13d92:	85 c0                	test   %eax,%eax
   13d94:	74 19                	je     13daf <_que_dump+0x7a>
   13d96:	8b 45 0c             	mov    0xc(%ebp),%eax
   13d99:	8b 40 0c             	mov    0xc(%eax),%eax
   13d9c:	83 ec 08             	sub    $0x8,%esp
   13d9f:	50                   	push   %eax
   13da0:	68 d3 72 01 00       	push   $0x172d3
   13da5:	e8 06 d8 ff ff       	call   115b0 <__cio_printf>
   13daa:	83 c4 10             	add    $0x10,%esp
   13dad:	eb 10                	jmp    13dbf <_que_dump+0x8a>
   13daf:	83 ec 0c             	sub    $0xc,%esp
   13db2:	68 e0 72 01 00       	push   $0x172e0
   13db7:	e8 c1 d1 ff ff       	call   10f7d <__cio_puts>
   13dbc:	83 c4 10             	add    $0x10,%esp
   13dbf:	8b 45 0c             	mov    0xc(%ebp),%eax
   13dc2:	8b 40 08             	mov    0x8(%eax),%eax
   13dc5:	85 c0                	test   %eax,%eax
   13dc7:	74 74                	je     13e3d <_que_dump+0x108>
   13dc9:	83 ec 0c             	sub    $0xc,%esp
   13dcc:	68 e7 72 01 00       	push   $0x172e7
   13dd1:	e8 a7 d1 ff ff       	call   10f7d <__cio_puts>
   13dd6:	83 c4 10             	add    $0x10,%esp
   13dd9:	c7 45 f0 00 00 00 00 	movl   $0x0,-0x10(%ebp)
   13de0:	8b 45 0c             	mov    0xc(%ebp),%eax
   13de3:	8b 00                	mov    (%eax),%eax
   13de5:	89 45 f4             	mov    %eax,-0xc(%ebp)
   13de8:	eb 24                	jmp    13e0e <_que_dump+0xd9>
   13dea:	8b 45 f4             	mov    -0xc(%ebp),%eax
   13ded:	8b 40 0c             	mov    0xc(%eax),%eax
   13df0:	83 ec 08             	sub    $0x8,%esp
   13df3:	50                   	push   %eax
   13df4:	68 ef 72 01 00       	push   $0x172ef
   13df9:	e8 b2 d7 ff ff       	call   115b0 <__cio_printf>
   13dfe:	83 c4 10             	add    $0x10,%esp
   13e01:	83 45 f0 01          	addl   $0x1,-0x10(%ebp)
   13e05:	8b 45 f4             	mov    -0xc(%ebp),%eax
   13e08:	8b 40 04             	mov    0x4(%eax),%eax
   13e0b:	89 45 f4             	mov    %eax,-0xc(%ebp)
   13e0e:	83 7d f0 04          	cmpl   $0x4,-0x10(%ebp)
   13e12:	7f 06                	jg     13e1a <_que_dump+0xe5>
   13e14:	83 7d f4 00          	cmpl   $0x0,-0xc(%ebp)
   13e18:	75 d0                	jne    13dea <_que_dump+0xb5>
   13e1a:	83 7d f4 00          	cmpl   $0x0,-0xc(%ebp)
   13e1e:	74 10                	je     13e30 <_que_dump+0xfb>
   13e20:	83 ec 0c             	sub    $0xc,%esp
   13e23:	68 f7 72 01 00       	push   $0x172f7
   13e28:	e8 50 d1 ff ff       	call   10f7d <__cio_puts>
   13e2d:	83 c4 10             	add    $0x10,%esp
   13e30:	83 ec 0c             	sub    $0xc,%esp
   13e33:	6a 0a                	push   $0xa
   13e35:	e8 03 d0 ff ff       	call   10e3d <__cio_putchar>
   13e3a:	83 c4 10             	add    $0x10,%esp
   13e3d:	c9                   	leave  
   13e3e:	c3                   	ret    

00013e3f <_sched_init>:
   13e3f:	55                   	push   %ebp
   13e40:	89 e5                	mov    %esp,%ebp
   13e42:	83 ec 18             	sub    $0x18,%esp
   13e45:	83 ec 0c             	sub    $0xc,%esp
   13e48:	68 50 73 01 00       	push   $0x17350
   13e4d:	e8 2b d1 ff ff       	call   10f7d <__cio_puts>
   13e52:	83 c4 10             	add    $0x10,%esp
   13e55:	c7 45 f4 00 00 00 00 	movl   $0x0,-0xc(%ebp)
   13e5c:	eb 63                	jmp    13ec1 <_sched_init+0x82>
   13e5e:	83 ec 0c             	sub    $0xc,%esp
   13e61:	6a 00                	push   $0x0
   13e63:	e8 0e fb ff ff       	call   13976 <_que_alloc>
   13e68:	83 c4 10             	add    $0x10,%esp
   13e6b:	89 c2                	mov    %eax,%edx
   13e6d:	8b 45 f4             	mov    -0xc(%ebp),%eax
   13e70:	89 14 85 c4 be 01 00 	mov    %edx,0x1bec4(,%eax,4)
   13e77:	8b 45 f4             	mov    -0xc(%ebp),%eax
   13e7a:	8b 04 85 c4 be 01 00 	mov    0x1bec4(,%eax,4),%eax
   13e81:	85 c0                	test   %eax,%eax
   13e83:	75 38                	jne    13ebd <_sched_init+0x7e>
   13e85:	83 ec 08             	sub    $0x8,%esp
   13e88:	6a 00                	push   $0x0
   13e8a:	6a 3d                	push   $0x3d
   13e8c:	68 58 73 01 00       	push   $0x17358
   13e91:	68 14 74 01 00       	push   $0x17414
   13e96:	68 64 73 01 00       	push   $0x17364
   13e9b:	68 00 bb 01 00       	push   $0x1bb00
   13ea0:	e8 83 e5 ff ff       	call   12428 <__sprint>
   13ea5:	83 c4 20             	add    $0x20,%esp
   13ea8:	83 ec 08             	sub    $0x8,%esp
   13eab:	68 7e 73 01 00       	push   $0x1737e
   13eb0:	68 00 bb 01 00       	push   $0x1bb00
   13eb5:	e8 7c e9 ff ff       	call   12836 <_kpanic>
   13eba:	83 c4 10             	add    $0x10,%esp
   13ebd:	83 45 f4 01          	addl   $0x1,-0xc(%ebp)
   13ec1:	83 7d f4 03          	cmpl   $0x3,-0xc(%ebp)
   13ec5:	7e 97                	jle    13e5e <_sched_init+0x1f>
   13ec7:	c7 05 d4 be 01 00 00 	movl   $0x0,0x1bed4
   13ece:	00 00 00 
   13ed1:	83 ec 0c             	sub    $0xc,%esp
   13ed4:	68 8d 73 01 00       	push   $0x1738d
   13ed9:	e8 9f d0 ff ff       	call   10f7d <__cio_puts>
   13ede:	83 c4 10             	add    $0x10,%esp
   13ee1:	90                   	nop
   13ee2:	c9                   	leave  
   13ee3:	c3                   	ret    

00013ee4 <_schedule>:
   13ee4:	55                   	push   %ebp
   13ee5:	89 e5                	mov    %esp,%ebp
   13ee7:	83 ec 18             	sub    $0x18,%esp
   13eea:	83 7d 08 00          	cmpl   $0x0,0x8(%ebp)
   13eee:	75 38                	jne    13f28 <_schedule+0x44>
   13ef0:	83 ec 08             	sub    $0x8,%esp
   13ef3:	6a 01                	push   $0x1
   13ef5:	6a 50                	push   $0x50
   13ef7:	68 58 73 01 00       	push   $0x17358
   13efc:	68 20 74 01 00       	push   $0x17420
   13f01:	68 64 73 01 00       	push   $0x17364
   13f06:	68 00 bb 01 00       	push   $0x1bb00
   13f0b:	e8 18 e5 ff ff       	call   12428 <__sprint>
   13f10:	83 c4 20             	add    $0x20,%esp
   13f13:	83 ec 08             	sub    $0x8,%esp
   13f16:	68 93 73 01 00       	push   $0x17393
   13f1b:	68 00 bb 01 00       	push   $0x1bb00
   13f20:	e8 11 e9 ff ff       	call   12836 <_kpanic>
   13f25:	83 c4 10             	add    $0x10,%esp
   13f28:	8b 45 08             	mov    0x8(%ebp),%eax
   13f2b:	0f b6 40 14          	movzbl 0x14(%eax),%eax
   13f2f:	3c 07                	cmp    $0x7,%al
   13f31:	75 15                	jne    13f48 <_schedule+0x64>
   13f33:	83 ec 08             	sub    $0x8,%esp
   13f36:	6a 07                	push   $0x7
   13f38:	ff 75 08             	pushl  0x8(%ebp)
   13f3b:	e8 2b 17 00 00       	call   1566b <_force_exit>
   13f40:	83 c4 10             	add    $0x10,%esp
   13f43:	e9 ad 00 00 00       	jmp    13ff5 <_schedule+0x111>
   13f48:	8b 45 08             	mov    0x8(%ebp),%eax
   13f4b:	0f b6 40 15          	movzbl 0x15(%eax),%eax
   13f4f:	3c 03                	cmp    $0x3,%al
   13f51:	76 38                	jbe    13f8b <_schedule+0xa7>
   13f53:	83 ec 08             	sub    $0x8,%esp
   13f56:	6a 01                	push   $0x1
   13f58:	6a 59                	push   $0x59
   13f5a:	68 58 73 01 00       	push   $0x17358
   13f5f:	68 20 74 01 00       	push   $0x17420
   13f64:	68 64 73 01 00       	push   $0x17364
   13f69:	68 00 bb 01 00       	push   $0x1bb00
   13f6e:	e8 b5 e4 ff ff       	call   12428 <__sprint>
   13f73:	83 c4 20             	add    $0x20,%esp
   13f76:	83 ec 08             	sub    $0x8,%esp
   13f79:	68 9c 73 01 00       	push   $0x1739c
   13f7e:	68 00 bb 01 00       	push   $0x1bb00
   13f83:	e8 ae e8 ff ff       	call   12836 <_kpanic>
   13f88:	83 c4 10             	add    $0x10,%esp
   13f8b:	8b 45 08             	mov    0x8(%ebp),%eax
   13f8e:	c6 40 14 02          	movb   $0x2,0x14(%eax)
   13f92:	8b 45 08             	mov    0x8(%ebp),%eax
   13f95:	0f b6 40 15          	movzbl 0x15(%eax),%eax
   13f99:	0f b6 c0             	movzbl %al,%eax
   13f9c:	8b 04 85 c4 be 01 00 	mov    0x1bec4(,%eax,4),%eax
   13fa3:	83 ec 04             	sub    $0x4,%esp
   13fa6:	6a 00                	push   $0x0
   13fa8:	ff 75 08             	pushl  0x8(%ebp)
   13fab:	50                   	push   %eax
   13fac:	e8 d7 fa ff ff       	call   13a88 <_que_enque>
   13fb1:	83 c4 10             	add    $0x10,%esp
   13fb4:	89 45 f4             	mov    %eax,-0xc(%ebp)
   13fb7:	83 7d f4 00          	cmpl   $0x0,-0xc(%ebp)
   13fbb:	74 38                	je     13ff5 <_schedule+0x111>
   13fbd:	83 ec 08             	sub    $0x8,%esp
   13fc0:	6a 00                	push   $0x0
   13fc2:	6a 62                	push   $0x62
   13fc4:	68 58 73 01 00       	push   $0x17358
   13fc9:	68 20 74 01 00       	push   $0x17420
   13fce:	68 64 73 01 00       	push   $0x17364
   13fd3:	68 00 bb 01 00       	push   $0x1bb00
   13fd8:	e8 4b e4 ff ff       	call   12428 <__sprint>
   13fdd:	83 c4 20             	add    $0x20,%esp
   13fe0:	83 ec 08             	sub    $0x8,%esp
   13fe3:	68 b6 73 01 00       	push   $0x173b6
   13fe8:	68 00 bb 01 00       	push   $0x1bb00
   13fed:	e8 44 e8 ff ff       	call   12836 <_kpanic>
   13ff2:	83 c4 10             	add    $0x10,%esp
   13ff5:	c9                   	leave  
   13ff6:	c3                   	ret    

00013ff7 <_dispatch>:
   13ff7:	55                   	push   %ebp
   13ff8:	89 e5                	mov    %esp,%ebp
   13ffa:	83 ec 18             	sub    $0x18,%esp
   13ffd:	c7 45 f4 00 00 00 00 	movl   $0x0,-0xc(%ebp)
   14004:	eb 1e                	jmp    14024 <_dispatch+0x2d>
   14006:	8b 45 f4             	mov    -0xc(%ebp),%eax
   14009:	8b 04 85 c4 be 01 00 	mov    0x1bec4(,%eax,4),%eax
   14010:	83 ec 0c             	sub    $0xc,%esp
   14013:	50                   	push   %eax
   14014:	e8 20 fa ff ff       	call   13a39 <_que_length>
   14019:	83 c4 10             	add    $0x10,%esp
   1401c:	85 c0                	test   %eax,%eax
   1401e:	75 0c                	jne    1402c <_dispatch+0x35>
   14020:	83 45 f4 01          	addl   $0x1,-0xc(%ebp)
   14024:	83 7d f4 03          	cmpl   $0x3,-0xc(%ebp)
   14028:	7e dc                	jle    14006 <_dispatch+0xf>
   1402a:	eb 01                	jmp    1402d <_dispatch+0x36>
   1402c:	90                   	nop
   1402d:	83 7d f4 03          	cmpl   $0x3,-0xc(%ebp)
   14031:	7e 38                	jle    1406b <_dispatch+0x74>
   14033:	83 ec 08             	sub    $0x8,%esp
   14036:	6a 00                	push   $0x0
   14038:	6a 7c                	push   $0x7c
   1403a:	68 58 73 01 00       	push   $0x17358
   1403f:	68 2c 74 01 00       	push   $0x1742c
   14044:	68 64 73 01 00       	push   $0x17364
   14049:	68 00 bb 01 00       	push   $0x1bb00
   1404e:	e8 d5 e3 ff ff       	call   12428 <__sprint>
   14053:	83 c4 20             	add    $0x20,%esp
   14056:	83 ec 08             	sub    $0x8,%esp
   14059:	68 c4 73 01 00       	push   $0x173c4
   1405e:	68 00 bb 01 00       	push   $0x1bb00
   14063:	e8 ce e7 ff ff       	call   12836 <_kpanic>
   14068:	83 c4 10             	add    $0x10,%esp
   1406b:	8b 45 f4             	mov    -0xc(%ebp),%eax
   1406e:	8b 04 85 c4 be 01 00 	mov    0x1bec4(,%eax,4),%eax
   14075:	83 ec 0c             	sub    $0xc,%esp
   14078:	50                   	push   %eax
   14079:	e8 9f fb ff ff       	call   13c1d <_que_deque>
   1407e:	83 c4 10             	add    $0x10,%esp
   14081:	89 45 f0             	mov    %eax,-0x10(%ebp)
   14084:	83 7d f0 00          	cmpl   $0x0,-0x10(%ebp)
   14088:	75 3b                	jne    140c5 <_dispatch+0xce>
   1408a:	83 ec 08             	sub    $0x8,%esp
   1408d:	6a 00                	push   $0x0
   1408f:	68 82 00 00 00       	push   $0x82
   14094:	68 58 73 01 00       	push   $0x17358
   14099:	68 2c 74 01 00       	push   $0x1742c
   1409e:	68 64 73 01 00       	push   $0x17364
   140a3:	68 00 bb 01 00       	push   $0x1bb00
   140a8:	e8 7b e3 ff ff       	call   12428 <__sprint>
   140ad:	83 c4 20             	add    $0x20,%esp
   140b0:	83 ec 08             	sub    $0x8,%esp
   140b3:	68 d7 73 01 00       	push   $0x173d7
   140b8:	68 00 bb 01 00       	push   $0x1bb00
   140bd:	e8 74 e7 ff ff       	call   12836 <_kpanic>
   140c2:	83 c4 10             	add    $0x10,%esp
   140c5:	8b 45 f0             	mov    -0x10(%ebp),%eax
   140c8:	0f b6 40 14          	movzbl 0x14(%eax),%eax
   140cc:	3c 02                	cmp    $0x2,%al
   140ce:	0f 84 91 00 00 00    	je     14165 <_dispatch+0x16e>
   140d4:	8b 45 f0             	mov    -0x10(%ebp),%eax
   140d7:	0f b6 40 14          	movzbl 0x14(%eax),%eax
   140db:	3c 07                	cmp    $0x7,%al
   140dd:	74 71                	je     14150 <_dispatch+0x159>
   140df:	8b 45 f0             	mov    -0x10(%ebp),%eax
   140e2:	0f b6 40 14          	movzbl 0x14(%eax),%eax
   140e6:	0f b6 d0             	movzbl %al,%edx
   140e9:	8b 45 f0             	mov    -0x10(%ebp),%eax
   140ec:	0f b7 40 10          	movzwl 0x10(%eax),%eax
   140f0:	98                   	cwtl   
   140f1:	52                   	push   %edx
   140f2:	50                   	push   %eax
   140f3:	68 e0 73 01 00       	push   $0x173e0
   140f8:	68 20 bd 01 00       	push   $0x1bd20
   140fd:	e8 26 e3 ff ff       	call   12428 <__sprint>
   14102:	83 c4 10             	add    $0x10,%esp
   14105:	83 ec 0c             	sub    $0xc,%esp
   14108:	68 20 bd 01 00       	push   $0x1bd20
   1410d:	e8 6b ce ff ff       	call   10f7d <__cio_puts>
   14112:	83 c4 10             	add    $0x10,%esp
   14115:	83 ec 08             	sub    $0x8,%esp
   14118:	6a 00                	push   $0x0
   1411a:	68 98 00 00 00       	push   $0x98
   1411f:	68 58 73 01 00       	push   $0x17358
   14124:	68 2c 74 01 00       	push   $0x1742c
   14129:	68 64 73 01 00       	push   $0x17364
   1412e:	68 00 bb 01 00       	push   $0x1bb00
   14133:	e8 f0 e2 ff ff       	call   12428 <__sprint>
   14138:	83 c4 20             	add    $0x20,%esp
   1413b:	83 ec 08             	sub    $0x8,%esp
   1413e:	68 09 74 01 00       	push   $0x17409
   14143:	68 00 bb 01 00       	push   $0x1bb00
   14148:	e8 e9 e6 ff ff       	call   12836 <_kpanic>
   1414d:	83 c4 10             	add    $0x10,%esp
   14150:	83 ec 08             	sub    $0x8,%esp
   14153:	6a 07                	push   $0x7
   14155:	ff 75 f0             	pushl  -0x10(%ebp)
   14158:	e8 0e 15 00 00       	call   1566b <_force_exit>
   1415d:	83 c4 10             	add    $0x10,%esp
   14160:	e9 98 fe ff ff       	jmp    13ffd <_dispatch+0x6>
   14165:	90                   	nop
   14166:	8b 45 f0             	mov    -0x10(%ebp),%eax
   14169:	a3 d4 be 01 00       	mov    %eax,0x1bed4
   1416e:	8b 45 f0             	mov    -0x10(%ebp),%eax
   14171:	c6 40 14 03          	movb   $0x3,0x14(%eax)
   14175:	8b 45 f0             	mov    -0x10(%ebp),%eax
   14178:	0f b6 50 16          	movzbl 0x16(%eax),%edx
   1417c:	8b 45 f0             	mov    -0x10(%ebp),%eax
   1417f:	88 50 17             	mov    %dl,0x17(%eax)
   14182:	90                   	nop
   14183:	c9                   	leave  
   14184:	c3                   	ret    

00014185 <_sio_isr>:
   14185:	55                   	push   %ebp
   14186:	89 e5                	mov    %esp,%ebp
   14188:	83 ec 28             	sub    $0x28,%esp
   1418b:	83 ec 0c             	sub    $0xc,%esp
   1418e:	68 fa 03 00 00       	push   $0x3fa
   14193:	e8 18 1f 00 00       	call   160b0 <__inb>
   14198:	83 c4 10             	add    $0x10,%esp
   1419b:	83 e0 0f             	and    $0xf,%eax
   1419e:	89 45 f0             	mov    %eax,-0x10(%ebp)
   141a1:	83 7d f0 0c          	cmpl   $0xc,-0x10(%ebp)
   141a5:	0f 87 36 02 00 00    	ja     143e1 <_sio_isr+0x25c>
   141ab:	8b 45 f0             	mov    -0x10(%ebp),%eax
   141ae:	c1 e0 02             	shl    $0x2,%eax
   141b1:	05 f4 74 01 00       	add    $0x174f4,%eax
   141b6:	8b 00                	mov    (%eax),%eax
   141b8:	ff e0                	jmp    *%eax
   141ba:	83 ec 0c             	sub    $0xc,%esp
   141bd:	68 fd 03 00 00       	push   $0x3fd
   141c2:	e8 e9 1e 00 00       	call   160b0 <__inb>
   141c7:	83 c4 10             	add    $0x10,%esp
   141ca:	89 45 ec             	mov    %eax,-0x14(%ebp)
   141cd:	83 ec 08             	sub    $0x8,%esp
   141d0:	ff 75 ec             	pushl  -0x14(%ebp)
   141d3:	68 38 74 01 00       	push   $0x17438
   141d8:	e8 d3 d3 ff ff       	call   115b0 <__cio_printf>
   141dd:	83 c4 10             	add    $0x10,%esp
   141e0:	e9 2e 02 00 00       	jmp    14413 <_sio_isr+0x28e>
   141e5:	83 ec 0c             	sub    $0xc,%esp
   141e8:	68 f8 03 00 00       	push   $0x3f8
   141ed:	e8 be 1e 00 00       	call   160b0 <__inb>
   141f2:	83 c4 10             	add    $0x10,%esp
   141f5:	89 45 f4             	mov    %eax,-0xc(%ebp)
   141f8:	83 7d f4 0d          	cmpl   $0xd,-0xc(%ebp)
   141fc:	75 07                	jne    14205 <_sio_isr+0x80>
   141fe:	c7 45 f4 0a 00 00 00 	movl   $0xa,-0xc(%ebp)
   14205:	a1 d8 be 01 00       	mov    0x1bed8,%eax
   1420a:	83 ec 0c             	sub    $0xc,%esp
   1420d:	50                   	push   %eax
   1420e:	e8 26 f8 ff ff       	call   13a39 <_que_length>
   14213:	83 c4 10             	add    $0x10,%esp
   14216:	85 c0                	test   %eax,%eax
   14218:	0f 84 8e 00 00 00    	je     142ac <_sio_isr+0x127>
   1421e:	a1 d8 be 01 00       	mov    0x1bed8,%eax
   14223:	83 ec 0c             	sub    $0xc,%esp
   14226:	50                   	push   %eax
   14227:	e8 f1 f9 ff ff       	call   13c1d <_que_deque>
   1422c:	83 c4 10             	add    $0x10,%esp
   1422f:	89 45 e8             	mov    %eax,-0x18(%ebp)
   14232:	83 7d e8 00          	cmpl   $0x0,-0x18(%ebp)
   14236:	75 3b                	jne    14273 <_sio_isr+0xee>
   14238:	83 ec 08             	sub    $0x8,%esp
   1423b:	6a 00                	push   $0x0
   1423d:	68 9b 00 00 00       	push   $0x9b
   14242:	68 58 74 01 00       	push   $0x17458
   14247:	68 88 75 01 00       	push   $0x17588
   1424c:	68 5e 74 01 00       	push   $0x1745e
   14251:	68 00 bb 01 00       	push   $0x1bb00
   14256:	e8 cd e1 ff ff       	call   12428 <__sprint>
   1425b:	83 c4 20             	add    $0x20,%esp
   1425e:	83 ec 08             	sub    $0x8,%esp
   14261:	68 78 74 01 00       	push   $0x17478
   14266:	68 00 bb 01 00       	push   $0x1bb00
   1426b:	e8 c6 e5 ff ff       	call   12836 <_kpanic>
   14270:	83 c4 10             	add    $0x10,%esp
   14273:	8b 45 e8             	mov    -0x18(%ebp),%eax
   14276:	8b 00                	mov    (%eax),%eax
   14278:	83 c0 48             	add    $0x48,%eax
   1427b:	83 c0 08             	add    $0x8,%eax
   1427e:	8b 00                	mov    (%eax),%eax
   14280:	89 45 e4             	mov    %eax,-0x1c(%ebp)
   14283:	8b 45 f4             	mov    -0xc(%ebp),%eax
   14286:	89 c2                	mov    %eax,%edx
   14288:	8b 45 e4             	mov    -0x1c(%ebp),%eax
   1428b:	88 10                	mov    %dl,(%eax)
   1428d:	8b 45 e8             	mov    -0x18(%ebp),%eax
   14290:	8b 00                	mov    (%eax),%eax
   14292:	c7 40 30 01 00 00 00 	movl   $0x1,0x30(%eax)
   14299:	83 ec 0c             	sub    $0xc,%esp
   1429c:	ff 75 e8             	pushl  -0x18(%ebp)
   1429f:	e8 40 fc ff ff       	call   13ee4 <_schedule>
   142a4:	83 c4 10             	add    $0x10,%esp
   142a7:	e9 66 01 00 00       	jmp    14412 <_sio_isr+0x28d>
   142ac:	a1 48 ae 01 00       	mov    0x1ae48,%eax
   142b1:	3d ff 07 00 00       	cmp    $0x7ff,%eax
   142b6:	0f 87 56 01 00 00    	ja     14412 <_sio_isr+0x28d>
   142bc:	a1 40 ae 01 00       	mov    0x1ae40,%eax
   142c1:	8d 50 01             	lea    0x1(%eax),%edx
   142c4:	89 15 40 ae 01 00    	mov    %edx,0x1ae40
   142ca:	8b 55 f4             	mov    -0xc(%ebp),%edx
   142cd:	88 10                	mov    %dl,(%eax)
   142cf:	a1 48 ae 01 00       	mov    0x1ae48,%eax
   142d4:	83 c0 01             	add    $0x1,%eax
   142d7:	a3 48 ae 01 00       	mov    %eax,0x1ae48
   142dc:	e9 31 01 00 00       	jmp    14412 <_sio_isr+0x28d>
   142e1:	83 ec 0c             	sub    $0xc,%esp
   142e4:	68 f8 03 00 00       	push   $0x3f8
   142e9:	e8 c2 1d 00 00       	call   160b0 <__inb>
   142ee:	83 c4 10             	add    $0x10,%esp
   142f1:	89 45 f4             	mov    %eax,-0xc(%ebp)
   142f4:	83 ec 08             	sub    $0x8,%esp
   142f7:	ff 75 f4             	pushl  -0xc(%ebp)
   142fa:	68 7c 74 01 00       	push   $0x1747c
   142ff:	e8 ac d2 ff ff       	call   115b0 <__cio_printf>
   14304:	83 c4 10             	add    $0x10,%esp
   14307:	e9 07 01 00 00       	jmp    14413 <_sio_isr+0x28e>
   1430c:	a1 6c b6 01 00       	mov    0x1b66c,%eax
   14311:	85 c0                	test   %eax,%eax
   14313:	74 5c                	je     14371 <_sio_isr+0x1ec>
   14315:	a1 68 b6 01 00       	mov    0x1b668,%eax
   1431a:	85 c0                	test   %eax,%eax
   1431c:	74 53                	je     14371 <_sio_isr+0x1ec>
   1431e:	a1 64 b6 01 00       	mov    0x1b664,%eax
   14323:	0f b6 00             	movzbl (%eax),%eax
   14326:	0f be c0             	movsbl %al,%eax
   14329:	83 ec 08             	sub    $0x8,%esp
   1432c:	50                   	push   %eax
   1432d:	68 f8 03 00 00       	push   $0x3f8
   14332:	e8 9b 1d 00 00       	call   160d2 <__outb>
   14337:	83 c4 10             	add    $0x10,%esp
   1433a:	a1 64 b6 01 00       	mov    0x1b664,%eax
   1433f:	83 c0 01             	add    $0x1,%eax
   14342:	a3 64 b6 01 00       	mov    %eax,0x1b664
   14347:	a1 64 b6 01 00       	mov    0x1b664,%eax
   1434c:	ba 60 b6 01 00       	mov    $0x1b660,%edx
   14351:	39 d0                	cmp    %edx,%eax
   14353:	72 0a                	jb     1435f <_sio_isr+0x1da>
   14355:	c7 05 64 b6 01 00 60 	movl   $0x1ae60,0x1b664
   1435c:	ae 01 00 
   1435f:	a1 68 b6 01 00       	mov    0x1b668,%eax
   14364:	83 e8 01             	sub    $0x1,%eax
   14367:	a3 68 b6 01 00       	mov    %eax,0x1b668
   1436c:	e9 a2 00 00 00       	jmp    14413 <_sio_isr+0x28e>
   14371:	c7 05 68 b6 01 00 00 	movl   $0x0,0x1b668
   14378:	00 00 00 
   1437b:	c7 05 64 b6 01 00 60 	movl   $0x1ae60,0x1b664
   14382:	ae 01 00 
   14385:	a1 64 b6 01 00       	mov    0x1b664,%eax
   1438a:	a3 60 b6 01 00       	mov    %eax,0x1b660
   1438f:	c7 05 6c b6 01 00 00 	movl   $0x0,0x1b66c
   14396:	00 00 00 
   14399:	83 ec 0c             	sub    $0xc,%esp
   1439c:	6a 01                	push   $0x1
   1439e:	e8 7f 02 00 00       	call   14622 <_sio_disable>
   143a3:	83 c4 10             	add    $0x10,%esp
   143a6:	eb 6b                	jmp    14413 <_sio_isr+0x28e>
   143a8:	83 ec 08             	sub    $0x8,%esp
   143ab:	6a 20                	push   $0x20
   143ad:	6a 20                	push   $0x20
   143af:	e8 1e 1d 00 00       	call   160d2 <__outb>
   143b4:	83 c4 10             	add    $0x10,%esp
   143b7:	eb 5f                	jmp    14418 <_sio_isr+0x293>
   143b9:	83 ec 0c             	sub    $0xc,%esp
   143bc:	68 fe 03 00 00       	push   $0x3fe
   143c1:	e8 ea 1c 00 00       	call   160b0 <__inb>
   143c6:	83 c4 10             	add    $0x10,%esp
   143c9:	89 45 e0             	mov    %eax,-0x20(%ebp)
   143cc:	83 ec 08             	sub    $0x8,%esp
   143cf:	ff 75 e0             	pushl  -0x20(%ebp)
   143d2:	68 a0 74 01 00       	push   $0x174a0
   143d7:	e8 d4 d1 ff ff       	call   115b0 <__cio_printf>
   143dc:	83 c4 10             	add    $0x10,%esp
   143df:	eb 32                	jmp    14413 <_sio_isr+0x28e>
   143e1:	8b 45 f0             	mov    -0x10(%ebp),%eax
   143e4:	0f b6 c0             	movzbl %al,%eax
   143e7:	83 ec 08             	sub    $0x8,%esp
   143ea:	50                   	push   %eax
   143eb:	68 c1 74 01 00       	push   $0x174c1
   143f0:	e8 bb d1 ff ff       	call   115b0 <__cio_printf>
   143f5:	83 c4 10             	add    $0x10,%esp
   143f8:	83 ec 08             	sub    $0x8,%esp
   143fb:	68 d4 74 01 00       	push   $0x174d4
   14400:	68 ea 74 01 00       	push   $0x174ea
   14405:	e8 2c e4 ff ff       	call   12836 <_kpanic>
   1440a:	83 c4 10             	add    $0x10,%esp
   1440d:	e9 79 fd ff ff       	jmp    1418b <_sio_isr+0x6>
   14412:	90                   	nop
   14413:	e9 73 fd ff ff       	jmp    1418b <_sio_isr+0x6>
   14418:	c9                   	leave  
   14419:	c3                   	ret    

0001441a <_sio_init>:
   1441a:	55                   	push   %ebp
   1441b:	89 e5                	mov    %esp,%ebp
   1441d:	83 ec 08             	sub    $0x8,%esp
   14420:	83 ec 0c             	sub    $0xc,%esp
   14423:	68 28 75 01 00       	push   $0x17528
   14428:	e8 50 cb ff ff       	call   10f7d <__cio_puts>
   1442d:	83 c4 10             	add    $0x10,%esp
   14430:	83 ec 04             	sub    $0x4,%esp
   14433:	6a 00                	push   $0x0
   14435:	68 00 08 00 00       	push   $0x800
   1443a:	68 40 a6 01 00       	push   $0x1a640
   1443f:	e8 fe dd ff ff       	call   12242 <__memset>
   14444:	83 c4 10             	add    $0x10,%esp
   14447:	c7 05 44 ae 01 00 40 	movl   $0x1a640,0x1ae44
   1444e:	a6 01 00 
   14451:	a1 44 ae 01 00       	mov    0x1ae44,%eax
   14456:	a3 40 ae 01 00       	mov    %eax,0x1ae40
   1445b:	c7 05 48 ae 01 00 00 	movl   $0x0,0x1ae48
   14462:	00 00 00 
   14465:	83 ec 04             	sub    $0x4,%esp
   14468:	6a 00                	push   $0x0
   1446a:	68 00 08 00 00       	push   $0x800
   1446f:	68 60 ae 01 00       	push   $0x1ae60
   14474:	e8 c9 dd ff ff       	call   12242 <__memset>
   14479:	83 c4 10             	add    $0x10,%esp
   1447c:	c7 05 64 b6 01 00 60 	movl   $0x1ae60,0x1b664
   14483:	ae 01 00 
   14486:	a1 64 b6 01 00       	mov    0x1b664,%eax
   1448b:	a3 60 b6 01 00       	mov    %eax,0x1b660
   14490:	c7 05 68 b6 01 00 00 	movl   $0x0,0x1b668
   14497:	00 00 00 
   1449a:	c7 05 6c b6 01 00 00 	movl   $0x0,0x1b66c
   144a1:	00 00 00 
   144a4:	83 ec 0c             	sub    $0xc,%esp
   144a7:	6a 00                	push   $0x0
   144a9:	e8 c8 f4 ff ff       	call   13976 <_que_alloc>
   144ae:	83 c4 10             	add    $0x10,%esp
   144b1:	a3 d8 be 01 00       	mov    %eax,0x1bed8
   144b6:	83 ec 08             	sub    $0x8,%esp
   144b9:	6a 20                	push   $0x20
   144bb:	68 fa 03 00 00       	push   $0x3fa
   144c0:	e8 0d 1c 00 00       	call   160d2 <__outb>
   144c5:	83 c4 10             	add    $0x10,%esp
   144c8:	83 ec 08             	sub    $0x8,%esp
   144cb:	6a 00                	push   $0x0
   144cd:	68 fa 03 00 00       	push   $0x3fa
   144d2:	e8 fb 1b 00 00       	call   160d2 <__outb>
   144d7:	83 c4 10             	add    $0x10,%esp
   144da:	83 ec 08             	sub    $0x8,%esp
   144dd:	6a 01                	push   $0x1
   144df:	68 fa 03 00 00       	push   $0x3fa
   144e4:	e8 e9 1b 00 00       	call   160d2 <__outb>
   144e9:	83 c4 10             	add    $0x10,%esp
   144ec:	83 ec 08             	sub    $0x8,%esp
   144ef:	6a 03                	push   $0x3
   144f1:	68 fa 03 00 00       	push   $0x3fa
   144f6:	e8 d7 1b 00 00       	call   160d2 <__outb>
   144fb:	83 c4 10             	add    $0x10,%esp
   144fe:	83 ec 08             	sub    $0x8,%esp
   14501:	6a 07                	push   $0x7
   14503:	68 fa 03 00 00       	push   $0x3fa
   14508:	e8 c5 1b 00 00       	call   160d2 <__outb>
   1450d:	83 c4 10             	add    $0x10,%esp
   14510:	83 ec 08             	sub    $0x8,%esp
   14513:	6a 00                	push   $0x0
   14515:	68 f9 03 00 00       	push   $0x3f9
   1451a:	e8 b3 1b 00 00       	call   160d2 <__outb>
   1451f:	83 c4 10             	add    $0x10,%esp
   14522:	c6 05 70 b6 01 00 00 	movb   $0x0,0x1b670
   14529:	83 ec 08             	sub    $0x8,%esp
   1452c:	68 80 00 00 00       	push   $0x80
   14531:	68 fb 03 00 00       	push   $0x3fb
   14536:	e8 97 1b 00 00       	call   160d2 <__outb>
   1453b:	83 c4 10             	add    $0x10,%esp
   1453e:	83 ec 08             	sub    $0x8,%esp
   14541:	6a 0c                	push   $0xc
   14543:	68 f8 03 00 00       	push   $0x3f8
   14548:	e8 85 1b 00 00       	call   160d2 <__outb>
   1454d:	83 c4 10             	add    $0x10,%esp
   14550:	83 ec 08             	sub    $0x8,%esp
   14553:	6a 00                	push   $0x0
   14555:	68 f9 03 00 00       	push   $0x3f9
   1455a:	e8 73 1b 00 00       	call   160d2 <__outb>
   1455f:	83 c4 10             	add    $0x10,%esp
   14562:	83 ec 08             	sub    $0x8,%esp
   14565:	6a 03                	push   $0x3
   14567:	68 fb 03 00 00       	push   $0x3fb
   1456c:	e8 61 1b 00 00       	call   160d2 <__outb>
   14571:	83 c4 10             	add    $0x10,%esp
   14574:	83 ec 08             	sub    $0x8,%esp
   14577:	6a 0b                	push   $0xb
   14579:	68 fc 03 00 00       	push   $0x3fc
   1457e:	e8 4f 1b 00 00       	call   160d2 <__outb>
   14583:	83 c4 10             	add    $0x10,%esp
   14586:	83 ec 08             	sub    $0x8,%esp
   14589:	68 85 41 01 00       	push   $0x14185
   1458e:	6a 24                	push   $0x24
   14590:	e8 7e d5 ff ff       	call   11b13 <__install_isr>
   14595:	83 c4 10             	add    $0x10,%esp
   14598:	83 ec 0c             	sub    $0xc,%esp
   1459b:	68 2e 75 01 00       	push   $0x1752e
   145a0:	e8 d8 c9 ff ff       	call   10f7d <__cio_puts>
   145a5:	83 c4 10             	add    $0x10,%esp
   145a8:	90                   	nop
   145a9:	c9                   	leave  
   145aa:	c3                   	ret    

000145ab <_sio_enable>:
   145ab:	55                   	push   %ebp
   145ac:	89 e5                	mov    %esp,%ebp
   145ae:	83 ec 28             	sub    $0x28,%esp
   145b1:	8b 45 08             	mov    0x8(%ebp),%eax
   145b4:	88 45 e4             	mov    %al,-0x1c(%ebp)
   145b7:	0f b6 05 70 b6 01 00 	movzbl 0x1b670,%eax
   145be:	88 45 f7             	mov    %al,-0x9(%ebp)
   145c1:	0f b6 45 e4          	movzbl -0x1c(%ebp),%eax
   145c5:	83 e0 01             	and    $0x1,%eax
   145c8:	85 c0                	test   %eax,%eax
   145ca:	74 0f                	je     145db <_sio_enable+0x30>
   145cc:	0f b6 05 70 b6 01 00 	movzbl 0x1b670,%eax
   145d3:	83 c8 02             	or     $0x2,%eax
   145d6:	a2 70 b6 01 00       	mov    %al,0x1b670
   145db:	0f b6 45 e4          	movzbl -0x1c(%ebp),%eax
   145df:	83 e0 02             	and    $0x2,%eax
   145e2:	85 c0                	test   %eax,%eax
   145e4:	74 0f                	je     145f5 <_sio_enable+0x4a>
   145e6:	0f b6 05 70 b6 01 00 	movzbl 0x1b670,%eax
   145ed:	83 c8 01             	or     $0x1,%eax
   145f0:	a2 70 b6 01 00       	mov    %al,0x1b670
   145f5:	0f b6 05 70 b6 01 00 	movzbl 0x1b670,%eax
   145fc:	38 45 f7             	cmp    %al,-0x9(%ebp)
   145ff:	74 1b                	je     1461c <_sio_enable+0x71>
   14601:	0f b6 05 70 b6 01 00 	movzbl 0x1b670,%eax
   14608:	0f b6 c0             	movzbl %al,%eax
   1460b:	83 ec 08             	sub    $0x8,%esp
   1460e:	50                   	push   %eax
   1460f:	68 f9 03 00 00       	push   $0x3f9
   14614:	e8 b9 1a 00 00       	call   160d2 <__outb>
   14619:	83 c4 10             	add    $0x10,%esp
   1461c:	0f b6 45 f7          	movzbl -0x9(%ebp),%eax
   14620:	c9                   	leave  
   14621:	c3                   	ret    

00014622 <_sio_disable>:
   14622:	55                   	push   %ebp
   14623:	89 e5                	mov    %esp,%ebp
   14625:	83 ec 28             	sub    $0x28,%esp
   14628:	8b 45 08             	mov    0x8(%ebp),%eax
   1462b:	88 45 e4             	mov    %al,-0x1c(%ebp)
   1462e:	0f b6 05 70 b6 01 00 	movzbl 0x1b670,%eax
   14635:	88 45 f7             	mov    %al,-0x9(%ebp)
   14638:	0f b6 45 e4          	movzbl -0x1c(%ebp),%eax
   1463c:	83 e0 01             	and    $0x1,%eax
   1463f:	85 c0                	test   %eax,%eax
   14641:	74 0f                	je     14652 <_sio_disable+0x30>
   14643:	0f b6 05 70 b6 01 00 	movzbl 0x1b670,%eax
   1464a:	83 e0 fd             	and    $0xfffffffd,%eax
   1464d:	a2 70 b6 01 00       	mov    %al,0x1b670
   14652:	0f b6 45 e4          	movzbl -0x1c(%ebp),%eax
   14656:	83 e0 02             	and    $0x2,%eax
   14659:	85 c0                	test   %eax,%eax
   1465b:	74 0f                	je     1466c <_sio_disable+0x4a>
   1465d:	0f b6 05 70 b6 01 00 	movzbl 0x1b670,%eax
   14664:	83 e0 fe             	and    $0xfffffffe,%eax
   14667:	a2 70 b6 01 00       	mov    %al,0x1b670
   1466c:	0f b6 05 70 b6 01 00 	movzbl 0x1b670,%eax
   14673:	38 45 f7             	cmp    %al,-0x9(%ebp)
   14676:	74 1b                	je     14693 <_sio_disable+0x71>
   14678:	0f b6 05 70 b6 01 00 	movzbl 0x1b670,%eax
   1467f:	0f b6 c0             	movzbl %al,%eax
   14682:	83 ec 08             	sub    $0x8,%esp
   14685:	50                   	push   %eax
   14686:	68 f9 03 00 00       	push   $0x3f9
   1468b:	e8 42 1a 00 00       	call   160d2 <__outb>
   14690:	83 c4 10             	add    $0x10,%esp
   14693:	0f b6 45 f7          	movzbl -0x9(%ebp),%eax
   14697:	c9                   	leave  
   14698:	c3                   	ret    

00014699 <_sio_inq_length>:
   14699:	55                   	push   %ebp
   1469a:	89 e5                	mov    %esp,%ebp
   1469c:	a1 48 ae 01 00       	mov    0x1ae48,%eax
   146a1:	5d                   	pop    %ebp
   146a2:	c3                   	ret    

000146a3 <_sio_readc>:
   146a3:	55                   	push   %ebp
   146a4:	89 e5                	mov    %esp,%ebp
   146a6:	83 ec 10             	sub    $0x10,%esp
   146a9:	c7 45 fc ff ff ff ff 	movl   $0xffffffff,-0x4(%ebp)
   146b0:	a1 48 ae 01 00       	mov    0x1ae48,%eax
   146b5:	85 c0                	test   %eax,%eax
   146b7:	74 46                	je     146ff <_sio_readc+0x5c>
   146b9:	a1 44 ae 01 00       	mov    0x1ae44,%eax
   146be:	8d 50 01             	lea    0x1(%eax),%edx
   146c1:	89 15 44 ae 01 00    	mov    %edx,0x1ae44
   146c7:	0f b6 00             	movzbl (%eax),%eax
   146ca:	0f be c0             	movsbl %al,%eax
   146cd:	25 ff 00 00 00       	and    $0xff,%eax
   146d2:	89 45 fc             	mov    %eax,-0x4(%ebp)
   146d5:	a1 48 ae 01 00       	mov    0x1ae48,%eax
   146da:	83 e8 01             	sub    $0x1,%eax
   146dd:	a3 48 ae 01 00       	mov    %eax,0x1ae48
   146e2:	a1 48 ae 01 00       	mov    0x1ae48,%eax
   146e7:	85 c0                	test   %eax,%eax
   146e9:	75 14                	jne    146ff <_sio_readc+0x5c>
   146eb:	c7 05 44 ae 01 00 40 	movl   $0x1a640,0x1ae44
   146f2:	a6 01 00 
   146f5:	a1 44 ae 01 00       	mov    0x1ae44,%eax
   146fa:	a3 40 ae 01 00       	mov    %eax,0x1ae40
   146ff:	8b 45 fc             	mov    -0x4(%ebp),%eax
   14702:	c9                   	leave  
   14703:	c3                   	ret    

00014704 <_sio_reads>:
   14704:	55                   	push   %ebp
   14705:	89 e5                	mov    %esp,%ebp
   14707:	83 ec 10             	sub    $0x10,%esp
   1470a:	8b 45 08             	mov    0x8(%ebp),%eax
   1470d:	89 45 fc             	mov    %eax,-0x4(%ebp)
   14710:	c7 45 f8 00 00 00 00 	movl   $0x0,-0x8(%ebp)
   14717:	a1 48 ae 01 00       	mov    0x1ae48,%eax
   1471c:	85 c0                	test   %eax,%eax
   1471e:	75 4c                	jne    1476c <_sio_reads+0x68>
   14720:	b8 00 00 00 00       	mov    $0x0,%eax
   14725:	eb 76                	jmp    1479d <_sio_reads+0x99>
   14727:	8b 15 44 ae 01 00    	mov    0x1ae44,%edx
   1472d:	8d 42 01             	lea    0x1(%edx),%eax
   14730:	a3 44 ae 01 00       	mov    %eax,0x1ae44
   14735:	8b 45 fc             	mov    -0x4(%ebp),%eax
   14738:	8d 48 01             	lea    0x1(%eax),%ecx
   1473b:	89 4d fc             	mov    %ecx,-0x4(%ebp)
   1473e:	0f b6 12             	movzbl (%edx),%edx
   14741:	88 10                	mov    %dl,(%eax)
   14743:	a1 44 ae 01 00       	mov    0x1ae44,%eax
   14748:	ba 40 ae 01 00       	mov    $0x1ae40,%edx
   1474d:	39 d0                	cmp    %edx,%eax
   1474f:	76 0a                	jbe    1475b <_sio_reads+0x57>
   14751:	c7 05 44 ae 01 00 40 	movl   $0x1a640,0x1ae44
   14758:	a6 01 00 
   1475b:	a1 48 ae 01 00       	mov    0x1ae48,%eax
   14760:	83 e8 01             	sub    $0x1,%eax
   14763:	a3 48 ae 01 00       	mov    %eax,0x1ae48
   14768:	83 45 f8 01          	addl   $0x1,-0x8(%ebp)
   1476c:	a1 48 ae 01 00       	mov    0x1ae48,%eax
   14771:	85 c0                	test   %eax,%eax
   14773:	74 08                	je     1477d <_sio_reads+0x79>
   14775:	8b 45 f8             	mov    -0x8(%ebp),%eax
   14778:	3b 45 0c             	cmp    0xc(%ebp),%eax
   1477b:	7c aa                	jl     14727 <_sio_reads+0x23>
   1477d:	a1 48 ae 01 00       	mov    0x1ae48,%eax
   14782:	85 c0                	test   %eax,%eax
   14784:	75 14                	jne    1479a <_sio_reads+0x96>
   14786:	c7 05 44 ae 01 00 40 	movl   $0x1a640,0x1ae44
   1478d:	a6 01 00 
   14790:	a1 44 ae 01 00       	mov    0x1ae44,%eax
   14795:	a3 40 ae 01 00       	mov    %eax,0x1ae40
   1479a:	8b 45 f8             	mov    -0x8(%ebp),%eax
   1479d:	c9                   	leave  
   1479e:	c3                   	ret    

0001479f <_sio_writec>:
   1479f:	55                   	push   %ebp
   147a0:	89 e5                	mov    %esp,%ebp
   147a2:	83 ec 08             	sub    $0x8,%esp
   147a5:	83 7d 08 0a          	cmpl   $0xa,0x8(%ebp)
   147a9:	75 0d                	jne    147b8 <_sio_writec+0x19>
   147ab:	83 ec 0c             	sub    $0xc,%esp
   147ae:	6a 0d                	push   $0xd
   147b0:	e8 ea ff ff ff       	call   1479f <_sio_writec>
   147b5:	83 c4 10             	add    $0x10,%esp
   147b8:	a1 6c b6 01 00       	mov    0x1b66c,%eax
   147bd:	85 c0                	test   %eax,%eax
   147bf:	74 22                	je     147e3 <_sio_writec+0x44>
   147c1:	a1 60 b6 01 00       	mov    0x1b660,%eax
   147c6:	8d 50 01             	lea    0x1(%eax),%edx
   147c9:	89 15 60 b6 01 00    	mov    %edx,0x1b660
   147cf:	8b 55 08             	mov    0x8(%ebp),%edx
   147d2:	88 10                	mov    %dl,(%eax)
   147d4:	a1 68 b6 01 00       	mov    0x1b668,%eax
   147d9:	83 c0 01             	add    $0x1,%eax
   147dc:	a3 68 b6 01 00       	mov    %eax,0x1b668
   147e1:	eb 2a                	jmp    1480d <_sio_writec+0x6e>
   147e3:	c7 05 6c b6 01 00 01 	movl   $0x1,0x1b66c
   147ea:	00 00 00 
   147ed:	83 ec 08             	sub    $0x8,%esp
   147f0:	ff 75 08             	pushl  0x8(%ebp)
   147f3:	68 f8 03 00 00       	push   $0x3f8
   147f8:	e8 d5 18 00 00       	call   160d2 <__outb>
   147fd:	83 c4 10             	add    $0x10,%esp
   14800:	83 ec 0c             	sub    $0xc,%esp
   14803:	6a 01                	push   $0x1
   14805:	e8 a1 fd ff ff       	call   145ab <_sio_enable>
   1480a:	83 c4 10             	add    $0x10,%esp
   1480d:	c9                   	leave  
   1480e:	c3                   	ret    

0001480f <_sio_write>:
   1480f:	55                   	push   %ebp
   14810:	89 e5                	mov    %esp,%ebp
   14812:	83 ec 18             	sub    $0x18,%esp
   14815:	8b 45 08             	mov    0x8(%ebp),%eax
   14818:	0f b6 00             	movzbl (%eax),%eax
   1481b:	0f be c0             	movsbl %al,%eax
   1481e:	89 45 ec             	mov    %eax,-0x14(%ebp)
   14821:	8b 45 08             	mov    0x8(%ebp),%eax
   14824:	89 45 f4             	mov    %eax,-0xc(%ebp)
   14827:	c7 45 f0 00 00 00 00 	movl   $0x0,-0x10(%ebp)
   1482e:	a1 6c b6 01 00       	mov    0x1b66c,%eax
   14833:	85 c0                	test   %eax,%eax
   14835:	75 4f                	jne    14886 <_sio_write+0x77>
   14837:	83 45 f4 01          	addl   $0x1,-0xc(%ebp)
   1483b:	83 45 f0 01          	addl   $0x1,-0x10(%ebp)
   1483f:	eb 45                	jmp    14886 <_sio_write+0x77>
   14841:	8b 55 f4             	mov    -0xc(%ebp),%edx
   14844:	8d 42 01             	lea    0x1(%edx),%eax
   14847:	89 45 f4             	mov    %eax,-0xc(%ebp)
   1484a:	a1 60 b6 01 00       	mov    0x1b660,%eax
   1484f:	8d 48 01             	lea    0x1(%eax),%ecx
   14852:	89 0d 60 b6 01 00    	mov    %ecx,0x1b660
   14858:	0f b6 12             	movzbl (%edx),%edx
   1485b:	88 10                	mov    %dl,(%eax)
   1485d:	a1 60 b6 01 00       	mov    0x1b660,%eax
   14862:	ba 60 b6 01 00       	mov    $0x1b660,%edx
   14867:	39 d0                	cmp    %edx,%eax
   14869:	72 0a                	jb     14875 <_sio_write+0x66>
   1486b:	c7 05 60 b6 01 00 60 	movl   $0x1ae60,0x1b660
   14872:	ae 01 00 
   14875:	a1 68 b6 01 00       	mov    0x1b668,%eax
   1487a:	83 c0 01             	add    $0x1,%eax
   1487d:	a3 68 b6 01 00       	mov    %eax,0x1b668
   14882:	83 45 f0 01          	addl   $0x1,-0x10(%ebp)
   14886:	8b 45 f0             	mov    -0x10(%ebp),%eax
   14889:	3b 45 0c             	cmp    0xc(%ebp),%eax
   1488c:	7d 0c                	jge    1489a <_sio_write+0x8b>
   1488e:	a1 68 b6 01 00       	mov    0x1b668,%eax
   14893:	3d ff 07 00 00       	cmp    $0x7ff,%eax
   14898:	76 a7                	jbe    14841 <_sio_write+0x32>
   1489a:	a1 6c b6 01 00       	mov    0x1b66c,%eax
   1489f:	85 c0                	test   %eax,%eax
   148a1:	75 0e                	jne    148b1 <_sio_write+0xa2>
   148a3:	83 ec 0c             	sub    $0xc,%esp
   148a6:	ff 75 ec             	pushl  -0x14(%ebp)
   148a9:	e8 f1 fe ff ff       	call   1479f <_sio_writec>
   148ae:	83 c4 10             	add    $0x10,%esp
   148b1:	8b 45 f0             	mov    -0x10(%ebp),%eax
   148b4:	c9                   	leave  
   148b5:	c3                   	ret    

000148b6 <_sio_puts>:
   148b6:	55                   	push   %ebp
   148b7:	89 e5                	mov    %esp,%ebp
   148b9:	83 ec 18             	sub    $0x18,%esp
   148bc:	c7 45 f4 00 00 00 00 	movl   $0x0,-0xc(%ebp)
   148c3:	eb 1f                	jmp    148e4 <_sio_puts+0x2e>
   148c5:	8b 45 08             	mov    0x8(%ebp),%eax
   148c8:	8d 50 01             	lea    0x1(%eax),%edx
   148cb:	89 55 08             	mov    %edx,0x8(%ebp)
   148ce:	0f b6 00             	movzbl (%eax),%eax
   148d1:	0f be c0             	movsbl %al,%eax
   148d4:	83 ec 0c             	sub    $0xc,%esp
   148d7:	50                   	push   %eax
   148d8:	e8 c2 fe ff ff       	call   1479f <_sio_writec>
   148dd:	83 c4 10             	add    $0x10,%esp
   148e0:	83 45 f4 01          	addl   $0x1,-0xc(%ebp)
   148e4:	8b 45 08             	mov    0x8(%ebp),%eax
   148e7:	0f b6 00             	movzbl (%eax),%eax
   148ea:	84 c0                	test   %al,%al
   148ec:	75 d7                	jne    148c5 <_sio_puts+0xf>
   148ee:	8b 45 f4             	mov    -0xc(%ebp),%eax
   148f1:	c9                   	leave  
   148f2:	c3                   	ret    

000148f3 <_sio_dump>:
   148f3:	55                   	push   %ebp
   148f4:	89 e5                	mov    %esp,%ebp
   148f6:	57                   	push   %edi
   148f7:	56                   	push   %esi
   148f8:	53                   	push   %ebx
   148f9:	83 ec 2c             	sub    $0x2c,%esp
   148fc:	8b 45 08             	mov    0x8(%ebp),%eax
   148ff:	88 45 d4             	mov    %al,-0x2c(%ebp)
   14902:	8b 0d 68 b6 01 00    	mov    0x1b668,%ecx
   14908:	8b 15 48 ae 01 00    	mov    0x1ae48,%edx
   1490e:	0f b6 05 70 b6 01 00 	movzbl 0x1b670,%eax
   14915:	0f b6 c0             	movzbl %al,%eax
   14918:	83 e0 01             	and    $0x1,%eax
   1491b:	85 c0                	test   %eax,%eax
   1491d:	74 07                	je     14926 <_sio_dump+0x33>
   1491f:	bf 52 00 00 00       	mov    $0x52,%edi
   14924:	eb 05                	jmp    1492b <_sio_dump+0x38>
   14926:	bf 72 00 00 00       	mov    $0x72,%edi
   1492b:	0f b6 05 70 b6 01 00 	movzbl 0x1b670,%eax
   14932:	0f b6 c0             	movzbl %al,%eax
   14935:	83 e0 02             	and    $0x2,%eax
   14938:	85 c0                	test   %eax,%eax
   1493a:	74 07                	je     14943 <_sio_dump+0x50>
   1493c:	be 54 00 00 00       	mov    $0x54,%esi
   14941:	eb 05                	jmp    14948 <_sio_dump+0x55>
   14943:	be 74 00 00 00       	mov    $0x74,%esi
   14948:	a1 6c b6 01 00       	mov    0x1b66c,%eax
   1494d:	85 c0                	test   %eax,%eax
   1494f:	74 07                	je     14958 <_sio_dump+0x65>
   14951:	bb 2a 00 00 00       	mov    $0x2a,%ebx
   14956:	eb 05                	jmp    1495d <_sio_dump+0x6a>
   14958:	bb 2e 00 00 00       	mov    $0x2e,%ebx
   1495d:	0f b6 05 70 b6 01 00 	movzbl 0x1b670,%eax
   14964:	0f b6 c0             	movzbl %al,%eax
   14967:	83 ec 0c             	sub    $0xc,%esp
   1496a:	51                   	push   %ecx
   1496b:	52                   	push   %edx
   1496c:	57                   	push   %edi
   1496d:	56                   	push   %esi
   1496e:	53                   	push   %ebx
   1496f:	50                   	push   %eax
   14970:	68 34 75 01 00       	push   $0x17534
   14975:	6a 00                	push   $0x0
   14977:	6a 30                	push   $0x30
   14979:	e8 12 cc ff ff       	call   11590 <__cio_printf_at>
   1497e:	83 c4 30             	add    $0x30,%esp
   14981:	80 7d d4 00          	cmpb   $0x0,-0x2c(%ebp)
   14985:	0f 84 dc 00 00 00    	je     14a67 <_sio_dump+0x174>
   1498b:	a1 48 ae 01 00       	mov    0x1ae48,%eax
   14990:	85 c0                	test   %eax,%eax
   14992:	74 5c                	je     149f0 <_sio_dump+0xfd>
   14994:	83 ec 0c             	sub    $0xc,%esp
   14997:	68 57 75 01 00       	push   $0x17557
   1499c:	e8 dc c5 ff ff       	call   10f7d <__cio_puts>
   149a1:	83 c4 10             	add    $0x10,%esp
   149a4:	a1 44 ae 01 00       	mov    0x1ae44,%eax
   149a9:	89 45 e0             	mov    %eax,-0x20(%ebp)
   149ac:	c7 45 e4 00 00 00 00 	movl   $0x0,-0x1c(%ebp)
   149b3:	eb 1f                	jmp    149d4 <_sio_dump+0xe1>
   149b5:	8b 45 e0             	mov    -0x20(%ebp),%eax
   149b8:	8d 50 01             	lea    0x1(%eax),%edx
   149bb:	89 55 e0             	mov    %edx,-0x20(%ebp)
   149be:	0f b6 00             	movzbl (%eax),%eax
   149c1:	0f be c0             	movsbl %al,%eax
   149c4:	83 ec 0c             	sub    $0xc,%esp
   149c7:	50                   	push   %eax
   149c8:	e8 18 d8 ff ff       	call   121e5 <__put_char_or_code>
   149cd:	83 c4 10             	add    $0x10,%esp
   149d0:	83 45 e4 01          	addl   $0x1,-0x1c(%ebp)
   149d4:	8b 55 e4             	mov    -0x1c(%ebp),%edx
   149d7:	a1 48 ae 01 00       	mov    0x1ae48,%eax
   149dc:	39 c2                	cmp    %eax,%edx
   149de:	72 d5                	jb     149b5 <_sio_dump+0xc2>
   149e0:	83 ec 0c             	sub    $0xc,%esp
   149e3:	68 6a 75 01 00       	push   $0x1756a
   149e8:	e8 90 c5 ff ff       	call   10f7d <__cio_puts>
   149ed:	83 c4 10             	add    $0x10,%esp
   149f0:	a1 68 b6 01 00       	mov    0x1b668,%eax
   149f5:	85 c0                	test   %eax,%eax
   149f7:	74 6f                	je     14a68 <_sio_dump+0x175>
   149f9:	83 ec 0c             	sub    $0xc,%esp
   149fc:	68 6d 75 01 00       	push   $0x1756d
   14a01:	e8 77 c5 ff ff       	call   10f7d <__cio_puts>
   14a06:	83 c4 10             	add    $0x10,%esp
   14a09:	83 ec 0c             	sub    $0xc,%esp
   14a0c:	68 81 75 01 00       	push   $0x17581
   14a11:	e8 67 c5 ff ff       	call   10f7d <__cio_puts>
   14a16:	83 c4 10             	add    $0x10,%esp
   14a19:	a1 64 b6 01 00       	mov    0x1b664,%eax
   14a1e:	89 45 e0             	mov    %eax,-0x20(%ebp)
   14a21:	c7 45 e4 00 00 00 00 	movl   $0x0,-0x1c(%ebp)
   14a28:	eb 1f                	jmp    14a49 <_sio_dump+0x156>
   14a2a:	8b 45 e0             	mov    -0x20(%ebp),%eax
   14a2d:	8d 50 01             	lea    0x1(%eax),%edx
   14a30:	89 55 e0             	mov    %edx,-0x20(%ebp)
   14a33:	0f b6 00             	movzbl (%eax),%eax
   14a36:	0f be c0             	movsbl %al,%eax
   14a39:	83 ec 0c             	sub    $0xc,%esp
   14a3c:	50                   	push   %eax
   14a3d:	e8 a3 d7 ff ff       	call   121e5 <__put_char_or_code>
   14a42:	83 c4 10             	add    $0x10,%esp
   14a45:	83 45 e4 01          	addl   $0x1,-0x1c(%ebp)
   14a49:	8b 55 e4             	mov    -0x1c(%ebp),%edx
   14a4c:	a1 68 b6 01 00       	mov    0x1b668,%eax
   14a51:	39 c2                	cmp    %eax,%edx
   14a53:	72 d5                	jb     14a2a <_sio_dump+0x137>
   14a55:	83 ec 0c             	sub    $0xc,%esp
   14a58:	68 6a 75 01 00       	push   $0x1756a
   14a5d:	e8 1b c5 ff ff       	call   10f7d <__cio_puts>
   14a62:	83 c4 10             	add    $0x10,%esp
   14a65:	eb 01                	jmp    14a68 <_sio_dump+0x175>
   14a67:	90                   	nop
   14a68:	8d 65 f4             	lea    -0xc(%ebp),%esp
   14a6b:	5b                   	pop    %ebx
   14a6c:	5e                   	pop    %esi
   14a6d:	5f                   	pop    %edi
   14a6e:	5d                   	pop    %ebp
   14a6f:	c3                   	ret    

00014a70 <_stk_init>:
   14a70:	55                   	push   %ebp
   14a71:	89 e5                	mov    %esp,%ebp
   14a73:	83 ec 08             	sub    $0x8,%esp
   14a76:	83 ec 0c             	sub    $0xc,%esp
   14a79:	68 94 75 01 00       	push   $0x17594
   14a7e:	e8 fa c4 ff ff       	call   10f7d <__cio_puts>
   14a83:	83 c4 10             	add    $0x10,%esp
   14a86:	c7 05 74 b6 01 00 00 	movl   $0x0,0x1b674
   14a8d:	00 00 00 
   14a90:	e8 6b 00 00 00       	call   14b00 <_stk_alloc>
   14a95:	a3 00 bd 01 00       	mov    %eax,0x1bd00
   14a9a:	a1 00 bd 01 00       	mov    0x1bd00,%eax
   14a9f:	85 c0                	test   %eax,%eax
   14aa1:	75 38                	jne    14adb <_stk_init+0x6b>
   14aa3:	83 ec 08             	sub    $0x8,%esp
   14aa6:	6a 00                	push   $0x0
   14aa8:	6a 41                	push   $0x41
   14aaa:	68 9d 75 01 00       	push   $0x1759d
   14aaf:	68 fc 75 01 00       	push   $0x175fc
   14ab4:	68 a6 75 01 00       	push   $0x175a6
   14ab9:	68 00 bb 01 00       	push   $0x1bb00
   14abe:	e8 65 d9 ff ff       	call   12428 <__sprint>
   14ac3:	83 c4 20             	add    $0x20,%esp
   14ac6:	83 ec 08             	sub    $0x8,%esp
   14ac9:	68 c0 75 01 00       	push   $0x175c0
   14ace:	68 00 bb 01 00       	push   $0x1bb00
   14ad3:	e8 5e dd ff ff       	call   12836 <_kpanic>
   14ad8:	83 c4 10             	add    $0x10,%esp
   14adb:	a1 00 bd 01 00       	mov    0x1bd00,%eax
   14ae0:	05 00 40 00 00       	add    $0x4000,%eax
   14ae5:	83 e8 08             	sub    $0x8,%eax
   14ae8:	a3 20 be 01 00       	mov    %eax,0x1be20
   14aed:	83 ec 0c             	sub    $0xc,%esp
   14af0:	68 d3 75 01 00       	push   $0x175d3
   14af5:	e8 83 c4 ff ff       	call   10f7d <__cio_puts>
   14afa:	83 c4 10             	add    $0x10,%esp
   14afd:	90                   	nop
   14afe:	c9                   	leave  
   14aff:	c3                   	ret    

00014b00 <_stk_alloc>:
   14b00:	55                   	push   %ebp
   14b01:	89 e5                	mov    %esp,%ebp
   14b03:	83 ec 18             	sub    $0x18,%esp
   14b06:	a1 74 b6 01 00       	mov    0x1b674,%eax
   14b0b:	85 c0                	test   %eax,%eax
   14b0d:	75 12                	jne    14b21 <_stk_alloc+0x21>
   14b0f:	83 ec 0c             	sub    $0xc,%esp
   14b12:	6a 04                	push   $0x4
   14b14:	e8 c8 e0 ff ff       	call   12be1 <_km_page_alloc>
   14b19:	83 c4 10             	add    $0x10,%esp
   14b1c:	89 45 f4             	mov    %eax,-0xc(%ebp)
   14b1f:	eb 25                	jmp    14b46 <_stk_alloc+0x46>
   14b21:	a1 74 b6 01 00       	mov    0x1b674,%eax
   14b26:	89 45 f4             	mov    %eax,-0xc(%ebp)
   14b29:	8b 45 f4             	mov    -0xc(%ebp),%eax
   14b2c:	8b 00                	mov    (%eax),%eax
   14b2e:	a3 74 b6 01 00       	mov    %eax,0x1b674
   14b33:	83 ec 08             	sub    $0x8,%esp
   14b36:	68 00 40 00 00       	push   $0x4000
   14b3b:	ff 75 f4             	pushl  -0xc(%ebp)
   14b3e:	e8 23 d7 ff ff       	call   12266 <__memclr>
   14b43:	83 c4 10             	add    $0x10,%esp
   14b46:	8b 45 f4             	mov    -0xc(%ebp),%eax
   14b49:	c9                   	leave  
   14b4a:	c3                   	ret    

00014b4b <_stk_free>:
   14b4b:	55                   	push   %ebp
   14b4c:	89 e5                	mov    %esp,%ebp
   14b4e:	83 7d 08 00          	cmpl   $0x0,0x8(%ebp)
   14b52:	74 16                	je     14b6a <_stk_free+0x1f>
   14b54:	a1 74 b6 01 00       	mov    0x1b674,%eax
   14b59:	89 c2                	mov    %eax,%edx
   14b5b:	8b 45 08             	mov    0x8(%ebp),%eax
   14b5e:	89 10                	mov    %edx,(%eax)
   14b60:	8b 45 08             	mov    0x8(%ebp),%eax
   14b63:	a3 74 b6 01 00       	mov    %eax,0x1b674
   14b68:	eb 01                	jmp    14b6b <_stk_free+0x20>
   14b6a:	90                   	nop
   14b6b:	5d                   	pop    %ebp
   14b6c:	c3                   	ret    

00014b6d <_stk_dump>:
   14b6d:	55                   	push   %ebp
   14b6e:	89 e5                	mov    %esp,%ebp
   14b70:	57                   	push   %edi
   14b71:	56                   	push   %esi
   14b72:	53                   	push   %ebx
   14b73:	81 ec dc 00 00 00    	sub    $0xdc,%esp
   14b79:	c7 45 e4 00 10 00 00 	movl   $0x1000,-0x1c(%ebp)
   14b80:	c7 45 e0 00 00 00 00 	movl   $0x0,-0x20(%ebp)
   14b87:	8b 45 0c             	mov    0xc(%ebp),%eax
   14b8a:	89 45 dc             	mov    %eax,-0x24(%ebp)
   14b8d:	8b 45 0c             	mov    0xc(%ebp),%eax
   14b90:	89 45 d8             	mov    %eax,-0x28(%ebp)
   14b93:	c7 85 37 ff ff ff 30 	movl   $0x33323130,-0xc9(%ebp)
   14b9a:	31 32 33 
   14b9d:	c7 85 3b ff ff ff 34 	movl   $0x37363534,-0xc5(%ebp)
   14ba4:	35 36 37 
   14ba7:	c7 85 3f ff ff ff 38 	movl   $0x42413938,-0xc1(%ebp)
   14bae:	39 41 42 
   14bb1:	c7 85 43 ff ff ff 43 	movl   $0x46454443,-0xbd(%ebp)
   14bb8:	44 45 46 
   14bbb:	c6 85 47 ff ff ff 00 	movb   $0x0,-0xb9(%ebp)
   14bc2:	83 7d 10 00          	cmpl   $0x0,0x10(%ebp)
   14bc6:	74 37                	je     14bff <_stk_dump+0x92>
   14bc8:	8b 45 10             	mov    0x10(%ebp),%eax
   14bcb:	89 45 e4             	mov    %eax,-0x1c(%ebp)
   14bce:	8b 45 e4             	mov    -0x1c(%ebp),%eax
   14bd1:	83 e0 03             	and    $0x3,%eax
   14bd4:	85 c0                	test   %eax,%eax
   14bd6:	74 0c                	je     14be4 <_stk_dump+0x77>
   14bd8:	8b 45 e4             	mov    -0x1c(%ebp),%eax
   14bdb:	83 e0 fc             	and    $0xfffffffc,%eax
   14bde:	83 c0 04             	add    $0x4,%eax
   14be1:	89 45 e4             	mov    %eax,-0x1c(%ebp)
   14be4:	8b 55 e4             	mov    -0x1c(%ebp),%edx
   14be7:	b8 00 00 00 00       	mov    $0x0,%eax
   14bec:	29 d0                	sub    %edx,%eax
   14bee:	c1 e0 02             	shl    $0x2,%eax
   14bf1:	05 00 40 00 00       	add    $0x4000,%eax
   14bf6:	01 45 d8             	add    %eax,-0x28(%ebp)
   14bf9:	8b 45 d8             	mov    -0x28(%ebp),%eax
   14bfc:	89 45 dc             	mov    %eax,-0x24(%ebp)
   14bff:	83 ec 0c             	sub    $0xc,%esp
   14c02:	68 d9 75 01 00       	push   $0x175d9
   14c07:	e8 71 c3 ff ff       	call   10f7d <__cio_puts>
   14c0c:	83 c4 10             	add    $0x10,%esp
   14c0f:	83 7d 08 00          	cmpl   $0x0,0x8(%ebp)
   14c13:	74 15                	je     14c2a <_stk_dump+0xbd>
   14c15:	83 ec 08             	sub    $0x8,%esp
   14c18:	ff 75 08             	pushl  0x8(%ebp)
   14c1b:	68 e3 75 01 00       	push   $0x175e3
   14c20:	e8 8b c9 ff ff       	call   115b0 <__cio_printf>
   14c25:	83 c4 10             	add    $0x10,%esp
   14c28:	eb 10                	jmp    14c3a <_stk_dump+0xcd>
   14c2a:	83 ec 0c             	sub    $0xc,%esp
   14c2d:	68 eb 75 01 00       	push   $0x175eb
   14c32:	e8 46 c3 ff ff       	call   10f7d <__cio_puts>
   14c37:	83 c4 10             	add    $0x10,%esp
   14c3a:	c6 45 90 00          	movb   $0x0,-0x70(%ebp)
   14c3e:	e9 5e 01 00 00       	jmp    14da1 <_stk_dump+0x234>
   14c43:	8d 9d 60 ff ff ff    	lea    -0xa0(%ebp),%ebx
   14c49:	8d bd 48 ff ff ff    	lea    -0xb8(%ebp),%edi
   14c4f:	8b 45 dc             	mov    -0x24(%ebp),%eax
   14c52:	89 45 c8             	mov    %eax,-0x38(%ebp)
   14c55:	c7 45 d4 00 00 00 00 	movl   $0x0,-0x2c(%ebp)
   14c5c:	e9 a5 00 00 00       	jmp    14d06 <_stk_dump+0x199>
   14c61:	8b 45 d8             	mov    -0x28(%ebp),%eax
   14c64:	8d 50 04             	lea    0x4(%eax),%edx
   14c67:	89 55 d8             	mov    %edx,-0x28(%ebp)
   14c6a:	8b 00                	mov    (%eax),%eax
   14c6c:	89 85 24 ff ff ff    	mov    %eax,-0xdc(%ebp)
   14c72:	89 c6                	mov    %eax,%esi
   14c74:	89 d8                	mov    %ebx,%eax
   14c76:	8d 58 01             	lea    0x1(%eax),%ebx
   14c79:	c6 00 20             	movb   $0x20,(%eax)
   14c7c:	89 d8                	mov    %ebx,%eax
   14c7e:	8d 58 01             	lea    0x1(%eax),%ebx
   14c81:	c6 00 20             	movb   $0x20,(%eax)
   14c84:	c7 45 d0 00 00 00 00 	movl   $0x0,-0x30(%ebp)
   14c8b:	eb 24                	jmp    14cb1 <_stk_dump+0x144>
   14c8d:	89 f0                	mov    %esi,%eax
   14c8f:	c1 e8 1c             	shr    $0x1c,%eax
   14c92:	89 45 c0             	mov    %eax,-0x40(%ebp)
   14c95:	89 da                	mov    %ebx,%edx
   14c97:	8d 5a 01             	lea    0x1(%edx),%ebx
   14c9a:	8d 8d 37 ff ff ff    	lea    -0xc9(%ebp),%ecx
   14ca0:	8b 45 c0             	mov    -0x40(%ebp),%eax
   14ca3:	01 c8                	add    %ecx,%eax
   14ca5:	0f b6 00             	movzbl (%eax),%eax
   14ca8:	88 02                	mov    %al,(%edx)
   14caa:	c1 e6 04             	shl    $0x4,%esi
   14cad:	83 45 d0 01          	addl   $0x1,-0x30(%ebp)
   14cb1:	83 7d d0 07          	cmpl   $0x7,-0x30(%ebp)
   14cb5:	7e d6                	jle    14c8d <_stk_dump+0x120>
   14cb7:	8b b5 24 ff ff ff    	mov    -0xdc(%ebp),%esi
   14cbd:	89 f8                	mov    %edi,%eax
   14cbf:	8d 78 01             	lea    0x1(%eax),%edi
   14cc2:	c6 00 20             	movb   $0x20,(%eax)
   14cc5:	c7 45 cc 00 00 00 00 	movl   $0x0,-0x34(%ebp)
   14ccc:	eb 2e                	jmp    14cfc <_stk_dump+0x18f>
   14cce:	89 f0                	mov    %esi,%eax
   14cd0:	c1 e8 18             	shr    $0x18,%eax
   14cd3:	89 45 c4             	mov    %eax,-0x3c(%ebp)
   14cd6:	83 7d c4 1f          	cmpl   $0x1f,-0x3c(%ebp)
   14cda:	76 0d                	jbe    14ce9 <_stk_dump+0x17c>
   14cdc:	83 7d c4 7e          	cmpl   $0x7e,-0x3c(%ebp)
   14ce0:	77 07                	ja     14ce9 <_stk_dump+0x17c>
   14ce2:	8b 45 c4             	mov    -0x3c(%ebp),%eax
   14ce5:	89 c2                	mov    %eax,%edx
   14ce7:	eb 05                	jmp    14cee <_stk_dump+0x181>
   14ce9:	ba 2e 00 00 00       	mov    $0x2e,%edx
   14cee:	89 f8                	mov    %edi,%eax
   14cf0:	8d 78 01             	lea    0x1(%eax),%edi
   14cf3:	88 10                	mov    %dl,(%eax)
   14cf5:	c1 e6 08             	shl    $0x8,%esi
   14cf8:	83 45 cc 01          	addl   $0x1,-0x34(%ebp)
   14cfc:	83 7d cc 03          	cmpl   $0x3,-0x34(%ebp)
   14d00:	7e cc                	jle    14cce <_stk_dump+0x161>
   14d02:	83 45 d4 01          	addl   $0x1,-0x2c(%ebp)
   14d06:	83 7d d4 03          	cmpl   $0x3,-0x2c(%ebp)
   14d0a:	0f 8e 51 ff ff ff    	jle    14c61 <_stk_dump+0xf4>
   14d10:	c6 03 00             	movb   $0x0,(%ebx)
   14d13:	c6 07 00             	movb   $0x0,(%edi)
   14d16:	83 6d e4 04          	subl   $0x4,-0x1c(%ebp)
   14d1a:	83 45 dc 10          	addl   $0x10,-0x24(%ebp)
   14d1e:	83 ec 08             	sub    $0x8,%esp
   14d21:	8d 85 60 ff ff ff    	lea    -0xa0(%ebp),%eax
   14d27:	50                   	push   %eax
   14d28:	8d 45 90             	lea    -0x70(%ebp),%eax
   14d2b:	50                   	push   %eax
   14d2c:	e8 a5 d5 ff ff       	call   122d6 <__strcmp>
   14d31:	83 c4 10             	add    $0x10,%esp
   14d34:	85 c0                	test   %eax,%eax
   14d36:	75 06                	jne    14d3e <_stk_dump+0x1d1>
   14d38:	83 45 e0 01          	addl   $0x1,-0x20(%ebp)
   14d3c:	eb 63                	jmp    14da1 <_stk_dump+0x234>
   14d3e:	83 7d e0 00          	cmpl   $0x0,-0x20(%ebp)
   14d42:	74 07                	je     14d4b <_stk_dump+0x1de>
   14d44:	b8 2a 00 00 00       	mov    $0x2a,%eax
   14d49:	eb 05                	jmp    14d50 <_stk_dump+0x1e3>
   14d4b:	b8 20 00 00 00       	mov    $0x20,%eax
   14d50:	83 ec 04             	sub    $0x4,%esp
   14d53:	50                   	push   %eax
   14d54:	ff 75 c8             	pushl  -0x38(%ebp)
   14d57:	68 ee 75 01 00       	push   $0x175ee
   14d5c:	e8 4f c8 ff ff       	call   115b0 <__cio_printf>
   14d61:	83 c4 10             	add    $0x10,%esp
   14d64:	c7 45 e0 00 00 00 00 	movl   $0x0,-0x20(%ebp)
   14d6b:	83 ec 04             	sub    $0x4,%esp
   14d6e:	8d 85 48 ff ff ff    	lea    -0xb8(%ebp),%eax
   14d74:	50                   	push   %eax
   14d75:	8d 85 60 ff ff ff    	lea    -0xa0(%ebp),%eax
   14d7b:	50                   	push   %eax
   14d7c:	68 f5 75 01 00       	push   $0x175f5
   14d81:	e8 2a c8 ff ff       	call   115b0 <__cio_printf>
   14d86:	83 c4 10             	add    $0x10,%esp
   14d89:	83 ec 04             	sub    $0x4,%esp
   14d8c:	6a 30                	push   $0x30
   14d8e:	8d 85 60 ff ff ff    	lea    -0xa0(%ebp),%eax
   14d94:	50                   	push   %eax
   14d95:	8d 45 90             	lea    -0x70(%ebp),%eax
   14d98:	50                   	push   %eax
   14d99:	e8 e9 d4 ff ff       	call   12287 <__memcpy>
   14d9e:	83 c4 10             	add    $0x10,%esp
   14da1:	83 7d e4 00          	cmpl   $0x0,-0x1c(%ebp)
   14da5:	0f 8f 98 fe ff ff    	jg     14c43 <_stk_dump+0xd6>
   14dab:	90                   	nop
   14dac:	8d 65 f4             	lea    -0xc(%ebp),%esp
   14daf:	5b                   	pop    %ebx
   14db0:	5e                   	pop    %esi
   14db1:	5f                   	pop    %edi
   14db2:	5d                   	pop    %ebp
   14db3:	c3                   	ret    

00014db4 <_sys_isr>:
   14db4:	55                   	push   %ebp
   14db5:	89 e5                	mov    %esp,%ebp
   14db7:	83 ec 28             	sub    $0x28,%esp
   14dba:	a1 d4 be 01 00       	mov    0x1bed4,%eax
   14dbf:	85 c0                	test   %eax,%eax
   14dc1:	75 38                	jne    14dfb <_sys_isr+0x47>
   14dc3:	83 ec 08             	sub    $0x8,%esp
   14dc6:	6a 00                	push   $0x0
   14dc8:	6a 45                	push   $0x45
   14dca:	68 08 76 01 00       	push   $0x17608
   14dcf:	68 40 77 01 00       	push   $0x17740
   14dd4:	68 13 76 01 00       	push   $0x17613
   14dd9:	68 00 bb 01 00       	push   $0x1bb00
   14dde:	e8 45 d6 ff ff       	call   12428 <__sprint>
   14de3:	83 c4 20             	add    $0x20,%esp
   14de6:	83 ec 08             	sub    $0x8,%esp
   14de9:	68 2d 76 01 00       	push   $0x1762d
   14dee:	68 00 bb 01 00       	push   $0x1bb00
   14df3:	e8 3e da ff ff       	call   12836 <_kpanic>
   14df8:	83 c4 10             	add    $0x10,%esp
   14dfb:	a1 d4 be 01 00       	mov    0x1bed4,%eax
   14e00:	8b 00                	mov    (%eax),%eax
   14e02:	85 c0                	test   %eax,%eax
   14e04:	75 38                	jne    14e3e <_sys_isr+0x8a>
   14e06:	83 ec 08             	sub    $0x8,%esp
   14e09:	6a 02                	push   $0x2
   14e0b:	6a 48                	push   $0x48
   14e0d:	68 08 76 01 00       	push   $0x17608
   14e12:	68 40 77 01 00       	push   $0x17740
   14e17:	68 13 76 01 00       	push   $0x17613
   14e1c:	68 00 bb 01 00       	push   $0x1bb00
   14e21:	e8 02 d6 ff ff       	call   12428 <__sprint>
   14e26:	83 c4 20             	add    $0x20,%esp
   14e29:	83 ec 08             	sub    $0x8,%esp
   14e2c:	68 3b 76 01 00       	push   $0x1763b
   14e31:	68 00 bb 01 00       	push   $0x1bb00
   14e36:	e8 fb d9 ff ff       	call   12836 <_kpanic>
   14e3b:	83 c4 10             	add    $0x10,%esp
   14e3e:	a1 d4 be 01 00       	mov    0x1bed4,%eax
   14e43:	8b 00                	mov    (%eax),%eax
   14e45:	83 c0 48             	add    $0x48,%eax
   14e48:	8b 40 04             	mov    0x4(%eax),%eax
   14e4b:	89 45 e4             	mov    %eax,-0x1c(%ebp)
   14e4e:	a1 d4 be 01 00       	mov    0x1bed4,%eax
   14e53:	8b 00                	mov    (%eax),%eax
   14e55:	83 c0 48             	add    $0x48,%eax
   14e58:	8b 40 08             	mov    0x8(%eax),%eax
   14e5b:	89 45 e8             	mov    %eax,-0x18(%ebp)
   14e5e:	a1 d4 be 01 00       	mov    0x1bed4,%eax
   14e63:	8b 00                	mov    (%eax),%eax
   14e65:	83 c0 48             	add    $0x48,%eax
   14e68:	8b 40 0c             	mov    0xc(%eax),%eax
   14e6b:	89 45 ec             	mov    %eax,-0x14(%ebp)
   14e6e:	a1 d4 be 01 00       	mov    0x1bed4,%eax
   14e73:	8b 00                	mov    (%eax),%eax
   14e75:	83 c0 48             	add    $0x48,%eax
   14e78:	8b 40 10             	mov    0x10(%eax),%eax
   14e7b:	89 45 f0             	mov    %eax,-0x10(%ebp)
   14e7e:	a1 d4 be 01 00       	mov    0x1bed4,%eax
   14e83:	8b 00                	mov    (%eax),%eax
   14e85:	8b 40 30             	mov    0x30(%eax),%eax
   14e88:	89 45 f4             	mov    %eax,-0xc(%ebp)
   14e8b:	83 7d f4 0b          	cmpl   $0xb,-0xc(%ebp)
   14e8f:	76 64                	jbe    14ef5 <_sys_isr+0x141>
   14e91:	a1 d4 be 01 00       	mov    0x1bed4,%eax
   14e96:	0f b7 40 10          	movzwl 0x10(%eax),%eax
   14e9a:	98                   	cwtl   
   14e9b:	ff 75 f4             	pushl  -0xc(%ebp)
   14e9e:	50                   	push   %eax
   14e9f:	68 52 76 01 00       	push   $0x17652
   14ea4:	68 20 bd 01 00       	push   $0x1bd20
   14ea9:	e8 7a d5 ff ff       	call   12428 <__sprint>
   14eae:	83 c4 10             	add    $0x10,%esp
   14eb1:	6a 59                	push   $0x59
   14eb3:	68 08 76 01 00       	push   $0x17608
   14eb8:	68 40 77 01 00       	push   $0x17740
   14ebd:	68 68 76 01 00       	push   $0x17668
   14ec2:	e8 e9 c6 ff ff       	call   115b0 <__cio_printf>
   14ec7:	83 c4 10             	add    $0x10,%esp
   14eca:	83 ec 0c             	sub    $0xc,%esp
   14ecd:	68 20 bd 01 00       	push   $0x1bd20
   14ed2:	e8 a6 c0 ff ff       	call   10f7d <__cio_puts>
   14ed7:	83 c4 10             	add    $0x10,%esp
   14eda:	83 ec 0c             	sub    $0xc,%esp
   14edd:	6a 0a                	push   $0xa
   14edf:	e8 59 bf ff ff       	call   10e3d <__cio_putchar>
   14ee4:	83 c4 10             	add    $0x10,%esp
   14ee7:	c7 45 f4 00 00 00 00 	movl   $0x0,-0xc(%ebp)
   14eee:	c7 45 e4 fd ff ff ff 	movl   $0xfffffffd,-0x1c(%ebp)
   14ef5:	8b 45 f4             	mov    -0xc(%ebp),%eax
   14ef8:	8b 04 85 80 b6 01 00 	mov    0x1b680(,%eax,4),%eax
   14eff:	83 ec 0c             	sub    $0xc,%esp
   14f02:	8d 55 e4             	lea    -0x1c(%ebp),%edx
   14f05:	52                   	push   %edx
   14f06:	ff d0                	call   *%eax
   14f08:	83 c4 10             	add    $0x10,%esp
   14f0b:	83 ec 08             	sub    $0x8,%esp
   14f0e:	6a 20                	push   $0x20
   14f10:	6a 20                	push   $0x20
   14f12:	e8 bb 11 00 00       	call   160d2 <__outb>
   14f17:	83 c4 10             	add    $0x10,%esp
   14f1a:	90                   	nop
   14f1b:	c9                   	leave  
   14f1c:	c3                   	ret    

00014f1d <_sys_exit>:
   14f1d:	55                   	push   %ebp
   14f1e:	89 e5                	mov    %esp,%ebp
   14f20:	83 ec 18             	sub    $0x18,%esp
   14f23:	8b 45 08             	mov    0x8(%ebp),%eax
   14f26:	8b 00                	mov    (%eax),%eax
   14f28:	89 45 f4             	mov    %eax,-0xc(%ebp)
   14f2b:	a1 d4 be 01 00       	mov    0x1bed4,%eax
   14f30:	8b 55 f4             	mov    -0xc(%ebp),%edx
   14f33:	89 50 08             	mov    %edx,0x8(%eax)
   14f36:	a1 d4 be 01 00       	mov    0x1bed4,%eax
   14f3b:	83 ec 08             	sub    $0x8,%esp
   14f3e:	ff 75 f4             	pushl  -0xc(%ebp)
   14f41:	50                   	push   %eax
   14f42:	e8 24 07 00 00       	call   1566b <_force_exit>
   14f47:	83 c4 10             	add    $0x10,%esp
   14f4a:	e8 a8 f0 ff ff       	call   13ff7 <_dispatch>
   14f4f:	90                   	nop
   14f50:	c9                   	leave  
   14f51:	c3                   	ret    

00014f52 <_sys_read>:
   14f52:	55                   	push   %ebp
   14f53:	89 e5                	mov    %esp,%ebp
   14f55:	83 ec 18             	sub    $0x18,%esp
   14f58:	c7 45 f4 00 00 00 00 	movl   $0x0,-0xc(%ebp)
   14f5f:	8b 45 08             	mov    0x8(%ebp),%eax
   14f62:	8b 00                	mov    (%eax),%eax
   14f64:	89 45 f0             	mov    %eax,-0x10(%ebp)
   14f67:	8b 45 08             	mov    0x8(%ebp),%eax
   14f6a:	83 c0 04             	add    $0x4,%eax
   14f6d:	8b 00                	mov    (%eax),%eax
   14f6f:	89 45 ec             	mov    %eax,-0x14(%ebp)
   14f72:	8b 45 08             	mov    0x8(%ebp),%eax
   14f75:	8b 40 08             	mov    0x8(%eax),%eax
   14f78:	89 45 e8             	mov    %eax,-0x18(%ebp)
   14f7b:	8b 45 f0             	mov    -0x10(%ebp),%eax
   14f7e:	85 c0                	test   %eax,%eax
   14f80:	74 07                	je     14f89 <_sys_read+0x37>
   14f82:	83 f8 01             	cmp    $0x1,%eax
   14f85:	74 34                	je     14fbb <_sys_read+0x69>
   14f87:	eb 49                	jmp    14fd2 <_sys_read+0x80>
   14f89:	e8 85 c8 ff ff       	call   11813 <__cio_input_queue>
   14f8e:	85 c0                	test   %eax,%eax
   14f90:	7f 13                	jg     14fa5 <_sys_read+0x53>
   14f92:	a1 d4 be 01 00       	mov    0x1bed4,%eax
   14f97:	8b 00                	mov    (%eax),%eax
   14f99:	c7 40 30 fb ff ff ff 	movl   $0xfffffffb,0x30(%eax)
   14fa0:	e9 b9 00 00 00       	jmp    1505e <_sys_read+0x10c>
   14fa5:	83 ec 08             	sub    $0x8,%esp
   14fa8:	ff 75 e8             	pushl  -0x18(%ebp)
   14fab:	ff 75 ec             	pushl  -0x14(%ebp)
   14fae:	e8 0f c8 ff ff       	call   117c2 <__cio_gets>
   14fb3:	83 c4 10             	add    $0x10,%esp
   14fb6:	89 45 f4             	mov    %eax,-0xc(%ebp)
   14fb9:	eb 27                	jmp    14fe2 <_sys_read+0x90>
   14fbb:	8b 45 e8             	mov    -0x18(%ebp),%eax
   14fbe:	83 ec 08             	sub    $0x8,%esp
   14fc1:	50                   	push   %eax
   14fc2:	ff 75 ec             	pushl  -0x14(%ebp)
   14fc5:	e8 3a f7 ff ff       	call   14704 <_sio_reads>
   14fca:	83 c4 10             	add    $0x10,%esp
   14fcd:	89 45 f4             	mov    %eax,-0xc(%ebp)
   14fd0:	eb 10                	jmp    14fe2 <_sys_read+0x90>
   14fd2:	a1 d4 be 01 00       	mov    0x1bed4,%eax
   14fd7:	8b 00                	mov    (%eax),%eax
   14fd9:	c7 40 30 fc ff ff ff 	movl   $0xfffffffc,0x30(%eax)
   14fe0:	eb 7c                	jmp    1505e <_sys_read+0x10c>
   14fe2:	83 7d f4 00          	cmpl   $0x0,-0xc(%ebp)
   14fe6:	7e 0f                	jle    14ff7 <_sys_read+0xa5>
   14fe8:	a1 d4 be 01 00       	mov    0x1bed4,%eax
   14fed:	8b 00                	mov    (%eax),%eax
   14fef:	8b 55 f4             	mov    -0xc(%ebp),%edx
   14ff2:	89 50 30             	mov    %edx,0x30(%eax)
   14ff5:	eb 67                	jmp    1505e <_sys_read+0x10c>
   14ff7:	a1 d4 be 01 00       	mov    0x1bed4,%eax
   14ffc:	c6 40 14 06          	movb   $0x6,0x14(%eax)
   15000:	8b 15 d4 be 01 00    	mov    0x1bed4,%edx
   15006:	a1 d8 be 01 00       	mov    0x1bed8,%eax
   1500b:	83 ec 04             	sub    $0x4,%esp
   1500e:	6a 00                	push   $0x0
   15010:	52                   	push   %edx
   15011:	50                   	push   %eax
   15012:	e8 71 ea ff ff       	call   13a88 <_que_enque>
   15017:	83 c4 10             	add    $0x10,%esp
   1501a:	85 c0                	test   %eax,%eax
   1501c:	74 3b                	je     15059 <_sys_read+0x107>
   1501e:	83 ec 08             	sub    $0x8,%esp
   15021:	6a 00                	push   $0x0
   15023:	68 b4 00 00 00       	push   $0xb4
   15028:	68 08 76 01 00       	push   $0x17608
   1502d:	68 4c 77 01 00       	push   $0x1774c
   15032:	68 13 76 01 00       	push   $0x17613
   15037:	68 00 bb 01 00       	push   $0x1bb00
   1503c:	e8 e7 d3 ff ff       	call   12428 <__sprint>
   15041:	83 c4 20             	add    $0x20,%esp
   15044:	83 ec 08             	sub    $0x8,%esp
   15047:	68 7c 76 01 00       	push   $0x1767c
   1504c:	68 00 bb 01 00       	push   $0x1bb00
   15051:	e8 e0 d7 ff ff       	call   12836 <_kpanic>
   15056:	83 c4 10             	add    $0x10,%esp
   15059:	e8 99 ef ff ff       	call   13ff7 <_dispatch>
   1505e:	c9                   	leave  
   1505f:	c3                   	ret    

00015060 <_sys_write>:
   15060:	55                   	push   %ebp
   15061:	89 e5                	mov    %esp,%ebp
   15063:	83 ec 18             	sub    $0x18,%esp
   15066:	8b 45 08             	mov    0x8(%ebp),%eax
   15069:	8b 00                	mov    (%eax),%eax
   1506b:	89 45 f4             	mov    %eax,-0xc(%ebp)
   1506e:	8b 45 08             	mov    0x8(%ebp),%eax
   15071:	83 c0 04             	add    $0x4,%eax
   15074:	8b 00                	mov    (%eax),%eax
   15076:	89 45 f0             	mov    %eax,-0x10(%ebp)
   15079:	8b 45 08             	mov    0x8(%ebp),%eax
   1507c:	8b 40 08             	mov    0x8(%eax),%eax
   1507f:	89 45 ec             	mov    %eax,-0x14(%ebp)
   15082:	8b 45 f4             	mov    -0xc(%ebp),%eax
   15085:	85 c0                	test   %eax,%eax
   15087:	74 07                	je     15090 <_sys_write+0x30>
   15089:	83 f8 01             	cmp    $0x1,%eax
   1508c:	74 23                	je     150b1 <_sys_write+0x51>
   1508e:	eb 42                	jmp    150d2 <_sys_write+0x72>
   15090:	8b 45 ec             	mov    -0x14(%ebp),%eax
   15093:	83 ec 08             	sub    $0x8,%esp
   15096:	50                   	push   %eax
   15097:	ff 75 f0             	pushl  -0x10(%ebp)
   1509a:	e8 0f bf ff ff       	call   10fae <__cio_write>
   1509f:	83 c4 10             	add    $0x10,%esp
   150a2:	a1 d4 be 01 00       	mov    0x1bed4,%eax
   150a7:	8b 00                	mov    (%eax),%eax
   150a9:	8b 55 ec             	mov    -0x14(%ebp),%edx
   150ac:	89 50 30             	mov    %edx,0x30(%eax)
   150af:	eb 30                	jmp    150e1 <_sys_write+0x81>
   150b1:	8b 45 ec             	mov    -0x14(%ebp),%eax
   150b4:	83 ec 08             	sub    $0x8,%esp
   150b7:	50                   	push   %eax
   150b8:	ff 75 f0             	pushl  -0x10(%ebp)
   150bb:	e8 4f f7 ff ff       	call   1480f <_sio_write>
   150c0:	83 c4 10             	add    $0x10,%esp
   150c3:	a1 d4 be 01 00       	mov    0x1bed4,%eax
   150c8:	8b 00                	mov    (%eax),%eax
   150ca:	8b 55 ec             	mov    -0x14(%ebp),%edx
   150cd:	89 50 30             	mov    %edx,0x30(%eax)
   150d0:	eb 0f                	jmp    150e1 <_sys_write+0x81>
   150d2:	a1 d4 be 01 00       	mov    0x1bed4,%eax
   150d7:	8b 00                	mov    (%eax),%eax
   150d9:	c7 40 30 fc ff ff ff 	movl   $0xfffffffc,0x30(%eax)
   150e0:	90                   	nop
   150e1:	90                   	nop
   150e2:	c9                   	leave  
   150e3:	c3                   	ret    

000150e4 <_sys_getpid>:
   150e4:	55                   	push   %ebp
   150e5:	89 e5                	mov    %esp,%ebp
   150e7:	a1 d4 be 01 00       	mov    0x1bed4,%eax
   150ec:	0f b7 50 10          	movzwl 0x10(%eax),%edx
   150f0:	a1 d4 be 01 00       	mov    0x1bed4,%eax
   150f5:	8b 00                	mov    (%eax),%eax
   150f7:	0f bf d2             	movswl %dx,%edx
   150fa:	89 50 30             	mov    %edx,0x30(%eax)
   150fd:	90                   	nop
   150fe:	5d                   	pop    %ebp
   150ff:	c3                   	ret    

00015100 <_sys_getppid>:
   15100:	55                   	push   %ebp
   15101:	89 e5                	mov    %esp,%ebp
   15103:	a1 d4 be 01 00       	mov    0x1bed4,%eax
   15108:	0f b7 50 12          	movzwl 0x12(%eax),%edx
   1510c:	a1 d4 be 01 00       	mov    0x1bed4,%eax
   15111:	8b 00                	mov    (%eax),%eax
   15113:	0f bf d2             	movswl %dx,%edx
   15116:	89 50 30             	mov    %edx,0x30(%eax)
   15119:	90                   	nop
   1511a:	5d                   	pop    %ebp
   1511b:	c3                   	ret    

0001511c <_sys_gettime>:
   1511c:	55                   	push   %ebp
   1511d:	89 e5                	mov    %esp,%ebp
   1511f:	a1 d4 be 01 00       	mov    0x1bed4,%eax
   15124:	8b 00                	mov    (%eax),%eax
   15126:	8b 15 e4 ba 01 00    	mov    0x1bae4,%edx
   1512c:	89 50 30             	mov    %edx,0x30(%eax)
   1512f:	90                   	nop
   15130:	5d                   	pop    %ebp
   15131:	c3                   	ret    

00015132 <_sys_getprio>:
   15132:	55                   	push   %ebp
   15133:	89 e5                	mov    %esp,%ebp
   15135:	a1 d4 be 01 00       	mov    0x1bed4,%eax
   1513a:	0f b6 50 15          	movzbl 0x15(%eax),%edx
   1513e:	a1 d4 be 01 00       	mov    0x1bed4,%eax
   15143:	8b 00                	mov    (%eax),%eax
   15145:	0f b6 d2             	movzbl %dl,%edx
   15148:	89 50 30             	mov    %edx,0x30(%eax)
   1514b:	90                   	nop
   1514c:	5d                   	pop    %ebp
   1514d:	c3                   	ret    

0001514e <_sys_setprio>:
   1514e:	55                   	push   %ebp
   1514f:	89 e5                	mov    %esp,%ebp
   15151:	8b 45 08             	mov    0x8(%ebp),%eax
   15154:	8b 00                	mov    (%eax),%eax
   15156:	83 f8 03             	cmp    $0x3,%eax
   15159:	76 10                	jbe    1516b <_sys_setprio+0x1d>
   1515b:	a1 d4 be 01 00       	mov    0x1bed4,%eax
   15160:	8b 00                	mov    (%eax),%eax
   15162:	c7 40 30 fa ff ff ff 	movl   $0xfffffffa,0x30(%eax)
   15169:	eb 23                	jmp    1518e <_sys_setprio+0x40>
   1516b:	a1 d4 be 01 00       	mov    0x1bed4,%eax
   15170:	0f b6 50 15          	movzbl 0x15(%eax),%edx
   15174:	a1 d4 be 01 00       	mov    0x1bed4,%eax
   15179:	8b 00                	mov    (%eax),%eax
   1517b:	0f b6 d2             	movzbl %dl,%edx
   1517e:	89 50 30             	mov    %edx,0x30(%eax)
   15181:	8b 45 08             	mov    0x8(%ebp),%eax
   15184:	8b 10                	mov    (%eax),%edx
   15186:	a1 d4 be 01 00       	mov    0x1bed4,%eax
   1518b:	88 50 15             	mov    %dl,0x15(%eax)
   1518e:	90                   	nop
   1518f:	5d                   	pop    %ebp
   15190:	c3                   	ret    

00015191 <_sys_kill>:
   15191:	55                   	push   %ebp
   15192:	89 e5                	mov    %esp,%ebp
   15194:	83 ec 18             	sub    $0x18,%esp
   15197:	8b 45 08             	mov    0x8(%ebp),%eax
   1519a:	8b 00                	mov    (%eax),%eax
   1519c:	66 89 45 f6          	mov    %ax,-0xa(%ebp)
   151a0:	66 83 7d f6 00       	cmpw   $0x0,-0xa(%ebp)
   151a5:	75 0d                	jne    151b4 <_sys_kill+0x23>
   151a7:	a1 d4 be 01 00       	mov    0x1bed4,%eax
   151ac:	0f b7 40 10          	movzwl 0x10(%eax),%eax
   151b0:	66 89 45 f6          	mov    %ax,-0xa(%ebp)
   151b4:	0f bf 45 f6          	movswl -0xa(%ebp),%eax
   151b8:	83 ec 0c             	sub    $0xc,%esp
   151bb:	50                   	push   %eax
   151bc:	e8 22 df ff ff       	call   130e3 <_pcb_find_pid>
   151c1:	83 c4 10             	add    $0x10,%esp
   151c4:	89 45 f0             	mov    %eax,-0x10(%ebp)
   151c7:	83 7d f0 00          	cmpl   $0x0,-0x10(%ebp)
   151cb:	75 13                	jne    151e0 <_sys_kill+0x4f>
   151cd:	a1 d4 be 01 00       	mov    0x1bed4,%eax
   151d2:	8b 00                	mov    (%eax),%eax
   151d4:	c7 40 30 f7 ff ff ff 	movl   $0xfffffff7,0x30(%eax)
   151db:	e9 e5 00 00 00       	jmp    152c5 <_sys_kill+0x134>
   151e0:	8b 45 f0             	mov    -0x10(%ebp),%eax
   151e3:	0f b6 40 14          	movzbl 0x14(%eax),%eax
   151e7:	0f b6 c0             	movzbl %al,%eax
   151ea:	83 f8 08             	cmp    $0x8,%eax
   151ed:	77 65                	ja     15254 <_sys_kill+0xc3>
   151ef:	8b 04 85 d8 76 01 00 	mov    0x176d8(,%eax,4),%eax
   151f6:	ff e0                	jmp    *%eax
   151f8:	8b 45 f0             	mov    -0x10(%ebp),%eax
   151fb:	c6 40 14 07          	movb   $0x7,0x14(%eax)
   151ff:	a1 d4 be 01 00       	mov    0x1bed4,%eax
   15204:	8b 00                	mov    (%eax),%eax
   15206:	c7 40 30 00 00 00 00 	movl   $0x0,0x30(%eax)
   1520d:	e9 b3 00 00 00       	jmp    152c5 <_sys_kill+0x134>
   15212:	a1 d4 be 01 00       	mov    0x1bed4,%eax
   15217:	83 ec 08             	sub    $0x8,%esp
   1521a:	6a 07                	push   $0x7
   1521c:	50                   	push   %eax
   1521d:	e8 49 04 00 00       	call   1566b <_force_exit>
   15222:	83 c4 10             	add    $0x10,%esp
   15225:	e8 cd ed ff ff       	call   13ff7 <_dispatch>
   1522a:	e9 96 00 00 00       	jmp    152c5 <_sys_kill+0x134>
   1522f:	83 ec 08             	sub    $0x8,%esp
   15232:	6a 07                	push   $0x7
   15234:	ff 75 f0             	pushl  -0x10(%ebp)
   15237:	e8 2f 04 00 00       	call   1566b <_force_exit>
   1523c:	83 c4 10             	add    $0x10,%esp
   1523f:	e9 81 00 00 00       	jmp    152c5 <_sys_kill+0x134>
   15244:	a1 d4 be 01 00       	mov    0x1bed4,%eax
   15249:	8b 00                	mov    (%eax),%eax
   1524b:	c7 40 30 f7 ff ff ff 	movl   $0xfffffff7,0x30(%eax)
   15252:	eb 71                	jmp    152c5 <_sys_kill+0x134>
   15254:	8b 45 f0             	mov    -0x10(%ebp),%eax
   15257:	0f b6 40 14          	movzbl 0x14(%eax),%eax
   1525b:	0f b6 d0             	movzbl %al,%edx
   1525e:	8b 45 f0             	mov    -0x10(%ebp),%eax
   15261:	0f b7 40 10          	movzwl 0x10(%eax),%eax
   15265:	98                   	cwtl   
   15266:	52                   	push   %edx
   15267:	50                   	push   %eax
   15268:	68 a4 76 01 00       	push   $0x176a4
   1526d:	68 20 bd 01 00       	push   $0x1bd20
   15272:	e8 b1 d1 ff ff       	call   12428 <__sprint>
   15277:	83 c4 10             	add    $0x10,%esp
   1527a:	83 ec 0c             	sub    $0xc,%esp
   1527d:	68 20 bd 01 00       	push   $0x1bd20
   15282:	e8 f6 bc ff ff       	call   10f7d <__cio_puts>
   15287:	83 c4 10             	add    $0x10,%esp
   1528a:	83 ec 08             	sub    $0x8,%esp
   1528d:	6a 00                	push   $0x0
   1528f:	68 57 01 00 00       	push   $0x157
   15294:	68 08 76 01 00       	push   $0x17608
   15299:	68 58 77 01 00       	push   $0x17758
   1529e:	68 13 76 01 00       	push   $0x17613
   152a3:	68 00 bb 01 00       	push   $0x1bb00
   152a8:	e8 7b d1 ff ff       	call   12428 <__sprint>
   152ad:	83 c4 20             	add    $0x20,%esp
   152b0:	83 ec 08             	sub    $0x8,%esp
   152b3:	68 cd 76 01 00       	push   $0x176cd
   152b8:	68 00 bb 01 00       	push   $0x1bb00
   152bd:	e8 74 d5 ff ff       	call   12836 <_kpanic>
   152c2:	83 c4 10             	add    $0x10,%esp
   152c5:	c9                   	leave  
   152c6:	c3                   	ret    

000152c7 <_sys_sleep>:
   152c7:	55                   	push   %ebp
   152c8:	89 e5                	mov    %esp,%ebp
   152ca:	83 ec 18             	sub    $0x18,%esp
   152cd:	8b 45 08             	mov    0x8(%ebp),%eax
   152d0:	8b 00                	mov    (%eax),%eax
   152d2:	89 45 f4             	mov    %eax,-0xc(%ebp)
   152d5:	83 7d f4 00          	cmpl   $0x0,-0xc(%ebp)
   152d9:	75 16                	jne    152f1 <_sys_sleep+0x2a>
   152db:	a1 d4 be 01 00       	mov    0x1bed4,%eax
   152e0:	83 ec 0c             	sub    $0xc,%esp
   152e3:	50                   	push   %eax
   152e4:	e8 fb eb ff ff       	call   13ee4 <_schedule>
   152e9:	83 c4 10             	add    $0x10,%esp
   152ec:	e9 8b 00 00 00       	jmp    1537c <_sys_sleep+0xb5>
   152f1:	8b 0d e4 ba 01 00    	mov    0x1bae4,%ecx
   152f7:	a1 d4 be 01 00       	mov    0x1bed4,%eax
   152fc:	8b 55 f4             	mov    -0xc(%ebp),%edx
   152ff:	01 ca                	add    %ecx,%edx
   15301:	89 50 0c             	mov    %edx,0xc(%eax)
   15304:	a1 d4 be 01 00       	mov    0x1bed4,%eax
   15309:	c6 40 14 04          	movb   $0x4,0x14(%eax)
   1530d:	a1 d4 be 01 00       	mov    0x1bed4,%eax
   15312:	8b 48 0c             	mov    0xc(%eax),%ecx
   15315:	8b 15 d4 be 01 00    	mov    0x1bed4,%edx
   1531b:	a1 e0 ba 01 00       	mov    0x1bae0,%eax
   15320:	83 ec 04             	sub    $0x4,%esp
   15323:	51                   	push   %ecx
   15324:	52                   	push   %edx
   15325:	50                   	push   %eax
   15326:	e8 5d e7 ff ff       	call   13a88 <_que_enque>
   1532b:	83 c4 10             	add    $0x10,%esp
   1532e:	85 c0                	test   %eax,%eax
   15330:	74 4a                	je     1537c <_sys_sleep+0xb5>
   15332:	68 73 01 00 00       	push   $0x173
   15337:	68 08 76 01 00       	push   $0x17608
   1533c:	68 64 77 01 00       	push   $0x17764
   15341:	68 68 76 01 00       	push   $0x17668
   15346:	e8 65 c2 ff ff       	call   115b0 <__cio_printf>
   1534b:	83 c4 10             	add    $0x10,%esp
   1534e:	83 ec 0c             	sub    $0xc,%esp
   15351:	68 fc 76 01 00       	push   $0x176fc
   15356:	e8 22 bc ff ff       	call   10f7d <__cio_puts>
   1535b:	83 c4 10             	add    $0x10,%esp
   1535e:	83 ec 0c             	sub    $0xc,%esp
   15361:	6a 0a                	push   $0xa
   15363:	e8 d5 ba ff ff       	call   10e3d <__cio_putchar>
   15368:	83 c4 10             	add    $0x10,%esp
   1536b:	a1 d4 be 01 00       	mov    0x1bed4,%eax
   15370:	83 ec 0c             	sub    $0xc,%esp
   15373:	50                   	push   %eax
   15374:	e8 6b eb ff ff       	call   13ee4 <_schedule>
   15379:	83 c4 10             	add    $0x10,%esp
   1537c:	e8 76 ec ff ff       	call   13ff7 <_dispatch>
   15381:	90                   	nop
   15382:	c9                   	leave  
   15383:	c3                   	ret    

00015384 <_sys_spawn>:
   15384:	55                   	push   %ebp
   15385:	89 e5                	mov    %esp,%ebp
   15387:	83 ec 18             	sub    $0x18,%esp
   1538a:	a1 44 be 01 00       	mov    0x1be44,%eax
   1538f:	83 f8 18             	cmp    $0x18,%eax
   15392:	76 13                	jbe    153a7 <_sys_spawn+0x23>
   15394:	a1 d4 be 01 00       	mov    0x1bed4,%eax
   15399:	8b 00                	mov    (%eax),%eax
   1539b:	c7 40 30 f8 ff ff ff 	movl   $0xfffffff8,0x30(%eax)
   153a2:	e9 29 01 00 00       	jmp    154d0 <_sys_spawn+0x14c>
   153a7:	8b 45 08             	mov    0x8(%ebp),%eax
   153aa:	8b 00                	mov    (%eax),%eax
   153ac:	85 c0                	test   %eax,%eax
   153ae:	75 13                	jne    153c3 <_sys_spawn+0x3f>
   153b0:	a1 d4 be 01 00       	mov    0x1bed4,%eax
   153b5:	8b 00                	mov    (%eax),%eax
   153b7:	c7 40 30 fa ff ff ff 	movl   $0xfffffffa,0x30(%eax)
   153be:	e9 0d 01 00 00       	jmp    154d0 <_sys_spawn+0x14c>
   153c3:	8b 45 08             	mov    0x8(%ebp),%eax
   153c6:	83 c0 04             	add    $0x4,%eax
   153c9:	8b 00                	mov    (%eax),%eax
   153cb:	83 f8 03             	cmp    $0x3,%eax
   153ce:	76 13                	jbe    153e3 <_sys_spawn+0x5f>
   153d0:	a1 d4 be 01 00       	mov    0x1bed4,%eax
   153d5:	8b 00                	mov    (%eax),%eax
   153d7:	c7 40 30 fa ff ff ff 	movl   $0xfffffffa,0x30(%eax)
   153de:	e9 ed 00 00 00       	jmp    154d0 <_sys_spawn+0x14c>
   153e3:	a1 d4 be 01 00       	mov    0x1bed4,%eax
   153e8:	0f b7 40 10          	movzwl 0x10(%eax),%eax
   153ec:	0f bf d0             	movswl %ax,%edx
   153ef:	0f b7 05 40 be 01 00 	movzwl 0x1be40,%eax
   153f6:	89 c1                	mov    %eax,%ecx
   153f8:	83 c1 01             	add    $0x1,%ecx
   153fb:	66 89 0d 40 be 01 00 	mov    %cx,0x1be40
   15402:	98                   	cwtl   
   15403:	83 ec 04             	sub    $0x4,%esp
   15406:	52                   	push   %edx
   15407:	50                   	push   %eax
   15408:	ff 75 08             	pushl  0x8(%ebp)
   1540b:	e8 09 de ff ff       	call   13219 <_proc_create>
   15410:	83 c4 10             	add    $0x10,%esp
   15413:	89 45 f0             	mov    %eax,-0x10(%ebp)
   15416:	83 7d f0 00          	cmpl   $0x0,-0x10(%ebp)
   1541a:	75 13                	jne    1542f <_sys_spawn+0xab>
   1541c:	a1 d4 be 01 00       	mov    0x1bed4,%eax
   15421:	8b 00                	mov    (%eax),%eax
   15423:	c7 40 30 f9 ff ff ff 	movl   $0xfffffff9,0x30(%eax)
   1542a:	e9 a1 00 00 00       	jmp    154d0 <_sys_spawn+0x14c>
   1542f:	8b 45 f0             	mov    -0x10(%ebp),%eax
   15432:	0f b7 50 10          	movzwl 0x10(%eax),%edx
   15436:	a1 d4 be 01 00       	mov    0x1bed4,%eax
   1543b:	8b 00                	mov    (%eax),%eax
   1543d:	0f bf d2             	movswl %dx,%edx
   15440:	89 50 30             	mov    %edx,0x30(%eax)
   15443:	83 ec 0c             	sub    $0xc,%esp
   15446:	ff 75 f0             	pushl  -0x10(%ebp)
   15449:	e8 96 ea ff ff       	call   13ee4 <_schedule>
   1544e:	83 c4 10             	add    $0x10,%esp
   15451:	a1 44 be 01 00       	mov    0x1be44,%eax
   15456:	83 c0 01             	add    $0x1,%eax
   15459:	a3 44 be 01 00       	mov    %eax,0x1be44
   1545e:	c7 45 f4 00 00 00 00 	movl   $0x0,-0xc(%ebp)
   15465:	eb 12                	jmp    15479 <_sys_spawn+0xf5>
   15467:	8b 45 f4             	mov    -0xc(%ebp),%eax
   1546a:	8b 04 85 60 be 01 00 	mov    0x1be60(,%eax,4),%eax
   15471:	85 c0                	test   %eax,%eax
   15473:	74 0c                	je     15481 <_sys_spawn+0xfd>
   15475:	83 45 f4 01          	addl   $0x1,-0xc(%ebp)
   15479:	83 7d f4 18          	cmpl   $0x18,-0xc(%ebp)
   1547d:	7e e8                	jle    15467 <_sys_spawn+0xe3>
   1547f:	eb 01                	jmp    15482 <_sys_spawn+0xfe>
   15481:	90                   	nop
   15482:	83 7d f4 18          	cmpl   $0x18,-0xc(%ebp)
   15486:	7e 3b                	jle    154c3 <_sys_spawn+0x13f>
   15488:	83 ec 08             	sub    $0x8,%esp
   1548b:	6a 00                	push   $0x0
   1548d:	68 b0 01 00 00       	push   $0x1b0
   15492:	68 08 76 01 00       	push   $0x17608
   15497:	68 70 77 01 00       	push   $0x17770
   1549c:	68 13 76 01 00       	push   $0x17613
   154a1:	68 00 bb 01 00       	push   $0x1bb00
   154a6:	e8 7d cf ff ff       	call   12428 <__sprint>
   154ab:	83 c4 20             	add    $0x20,%esp
   154ae:	83 ec 08             	sub    $0x8,%esp
   154b1:	68 1d 77 01 00       	push   $0x1771d
   154b6:	68 00 bb 01 00       	push   $0x1bb00
   154bb:	e8 76 d3 ff ff       	call   12836 <_kpanic>
   154c0:	83 c4 10             	add    $0x10,%esp
   154c3:	8b 45 f4             	mov    -0xc(%ebp),%eax
   154c6:	8b 55 f0             	mov    -0x10(%ebp),%edx
   154c9:	89 14 85 60 be 01 00 	mov    %edx,0x1be60(,%eax,4)
   154d0:	c9                   	leave  
   154d1:	c3                   	ret    

000154d2 <_sys_wait>:
   154d2:	55                   	push   %ebp
   154d3:	89 e5                	mov    %esp,%ebp
   154d5:	83 ec 18             	sub    $0x18,%esp
   154d8:	c7 45 f4 00 00 00 00 	movl   $0x0,-0xc(%ebp)
   154df:	c7 45 f0 00 00 00 00 	movl   $0x0,-0x10(%ebp)
   154e6:	eb 44                	jmp    1552c <_sys_wait+0x5a>
   154e8:	8b 45 f0             	mov    -0x10(%ebp),%eax
   154eb:	8b 04 85 60 be 01 00 	mov    0x1be60(,%eax,4),%eax
   154f2:	85 c0                	test   %eax,%eax
   154f4:	74 32                	je     15528 <_sys_wait+0x56>
   154f6:	8b 45 f0             	mov    -0x10(%ebp),%eax
   154f9:	8b 04 85 60 be 01 00 	mov    0x1be60(,%eax,4),%eax
   15500:	0f b7 50 12          	movzwl 0x12(%eax),%edx
   15504:	a1 d4 be 01 00       	mov    0x1bed4,%eax
   15509:	0f b7 40 10          	movzwl 0x10(%eax),%eax
   1550d:	66 39 c2             	cmp    %ax,%dx
   15510:	75 16                	jne    15528 <_sys_wait+0x56>
   15512:	83 45 f4 01          	addl   $0x1,-0xc(%ebp)
   15516:	8b 45 f0             	mov    -0x10(%ebp),%eax
   15519:	8b 04 85 60 be 01 00 	mov    0x1be60(,%eax,4),%eax
   15520:	0f b6 40 14          	movzbl 0x14(%eax),%eax
   15524:	3c 08                	cmp    $0x8,%al
   15526:	74 0c                	je     15534 <_sys_wait+0x62>
   15528:	83 45 f0 01          	addl   $0x1,-0x10(%ebp)
   1552c:	83 7d f0 18          	cmpl   $0x18,-0x10(%ebp)
   15530:	7e b6                	jle    154e8 <_sys_wait+0x16>
   15532:	eb 01                	jmp    15535 <_sys_wait+0x63>
   15534:	90                   	nop
   15535:	83 7d f4 00          	cmpl   $0x0,-0xc(%ebp)
   15539:	7f 10                	jg     1554b <_sys_wait+0x79>
   1553b:	a1 d4 be 01 00       	mov    0x1bed4,%eax
   15540:	8b 00                	mov    (%eax),%eax
   15542:	c7 40 30 f8 ff ff ff 	movl   $0xfffffff8,0x30(%eax)
   15549:	eb 68                	jmp    155b3 <_sys_wait+0xe1>
   1554b:	83 7d f0 18          	cmpl   $0x18,-0x10(%ebp)
   1554f:	7e 10                	jle    15561 <_sys_wait+0x8f>
   15551:	a1 d4 be 01 00       	mov    0x1bed4,%eax
   15556:	c6 40 14 05          	movb   $0x5,0x14(%eax)
   1555a:	e8 98 ea ff ff       	call   13ff7 <_dispatch>
   1555f:	eb 52                	jmp    155b3 <_sys_wait+0xe1>
   15561:	8b 45 f0             	mov    -0x10(%ebp),%eax
   15564:	8b 04 85 60 be 01 00 	mov    0x1be60(,%eax,4),%eax
   1556b:	0f b7 50 10          	movzwl 0x10(%eax),%edx
   1556f:	a1 d4 be 01 00       	mov    0x1bed4,%eax
   15574:	8b 00                	mov    (%eax),%eax
   15576:	0f bf d2             	movswl %dx,%edx
   15579:	89 50 30             	mov    %edx,0x30(%eax)
   1557c:	8b 45 08             	mov    0x8(%ebp),%eax
   1557f:	8b 00                	mov    (%eax),%eax
   15581:	89 45 ec             	mov    %eax,-0x14(%ebp)
   15584:	83 7d ec 00          	cmpl   $0x0,-0x14(%ebp)
   15588:	74 12                	je     1559c <_sys_wait+0xca>
   1558a:	8b 45 f0             	mov    -0x10(%ebp),%eax
   1558d:	8b 04 85 60 be 01 00 	mov    0x1be60(,%eax,4),%eax
   15594:	8b 50 08             	mov    0x8(%eax),%edx
   15597:	8b 45 ec             	mov    -0x14(%ebp),%eax
   1559a:	89 10                	mov    %edx,(%eax)
   1559c:	8b 45 f0             	mov    -0x10(%ebp),%eax
   1559f:	8b 04 85 60 be 01 00 	mov    0x1be60(,%eax,4),%eax
   155a6:	83 ec 0c             	sub    $0xc,%esp
   155a9:	50                   	push   %eax
   155aa:	e8 89 db ff ff       	call   13138 <_pcb_cleanup>
   155af:	83 c4 10             	add    $0x10,%esp
   155b2:	90                   	nop
   155b3:	c9                   	leave  
   155b4:	c3                   	ret    

000155b5 <_sys_init>:
   155b5:	55                   	push   %ebp
   155b6:	89 e5                	mov    %esp,%ebp
   155b8:	83 ec 08             	sub    $0x8,%esp
   155bb:	83 ec 0c             	sub    $0xc,%esp
   155be:	68 24 77 01 00       	push   $0x17724
   155c3:	e8 b5 b9 ff ff       	call   10f7d <__cio_puts>
   155c8:	83 c4 10             	add    $0x10,%esp
   155cb:	c7 05 80 b6 01 00 1d 	movl   $0x14f1d,0x1b680
   155d2:	4f 01 00 
   155d5:	c7 05 84 b6 01 00 52 	movl   $0x14f52,0x1b684
   155dc:	4f 01 00 
   155df:	c7 05 88 b6 01 00 60 	movl   $0x15060,0x1b688
   155e6:	50 01 00 
   155e9:	c7 05 8c b6 01 00 e4 	movl   $0x150e4,0x1b68c
   155f0:	50 01 00 
   155f3:	c7 05 90 b6 01 00 00 	movl   $0x15100,0x1b690
   155fa:	51 01 00 
   155fd:	c7 05 94 b6 01 00 1c 	movl   $0x1511c,0x1b694
   15604:	51 01 00 
   15607:	c7 05 98 b6 01 00 32 	movl   $0x15132,0x1b698
   1560e:	51 01 00 
   15611:	c7 05 9c b6 01 00 4e 	movl   $0x1514e,0x1b69c
   15618:	51 01 00 
   1561b:	c7 05 a0 b6 01 00 91 	movl   $0x15191,0x1b6a0
   15622:	51 01 00 
   15625:	c7 05 a4 b6 01 00 c7 	movl   $0x152c7,0x1b6a4
   1562c:	52 01 00 
   1562f:	c7 05 a8 b6 01 00 84 	movl   $0x15384,0x1b6a8
   15636:	53 01 00 
   15639:	c7 05 ac b6 01 00 d2 	movl   $0x154d2,0x1b6ac
   15640:	54 01 00 
   15643:	83 ec 08             	sub    $0x8,%esp
   15646:	68 b4 4d 01 00       	push   $0x14db4
   1564b:	68 80 00 00 00       	push   $0x80
   15650:	e8 be c4 ff ff       	call   11b13 <__install_isr>
   15655:	83 c4 10             	add    $0x10,%esp
   15658:	83 ec 0c             	sub    $0xc,%esp
   1565b:	68 2e 77 01 00       	push   $0x1772e
   15660:	e8 18 b9 ff ff       	call   10f7d <__cio_puts>
   15665:	83 c4 10             	add    $0x10,%esp
   15668:	90                   	nop
   15669:	c9                   	leave  
   1566a:	c3                   	ret    

0001566b <_force_exit>:
   1566b:	55                   	push   %ebp
   1566c:	89 e5                	mov    %esp,%ebp
   1566e:	83 ec 18             	sub    $0x18,%esp
   15671:	8b 45 08             	mov    0x8(%ebp),%eax
   15674:	0f b7 40 10          	movzwl 0x10(%eax),%eax
   15678:	66 89 45 f2          	mov    %ax,-0xe(%ebp)
   1567c:	c7 45 f4 00 00 00 00 	movl   $0x0,-0xc(%ebp)
   15683:	eb 48                	jmp    156cd <_force_exit+0x62>
   15685:	8b 45 f4             	mov    -0xc(%ebp),%eax
   15688:	8b 04 85 60 be 01 00 	mov    0x1be60(,%eax,4),%eax
   1568f:	85 c0                	test   %eax,%eax
   15691:	74 36                	je     156c9 <_force_exit+0x5e>
   15693:	8b 45 f4             	mov    -0xc(%ebp),%eax
   15696:	8b 04 85 60 be 01 00 	mov    0x1be60(,%eax,4),%eax
   1569d:	0f b6 40 14          	movzbl 0x14(%eax),%eax
   156a1:	3c 01                	cmp    $0x1,%al
   156a3:	76 24                	jbe    156c9 <_force_exit+0x5e>
   156a5:	8b 45 f4             	mov    -0xc(%ebp),%eax
   156a8:	8b 04 85 60 be 01 00 	mov    0x1be60(,%eax,4),%eax
   156af:	0f b7 40 12          	movzwl 0x12(%eax),%eax
   156b3:	66 39 45 f2          	cmp    %ax,-0xe(%ebp)
   156b7:	75 10                	jne    156c9 <_force_exit+0x5e>
   156b9:	8b 45 f4             	mov    -0xc(%ebp),%eax
   156bc:	8b 04 85 60 be 01 00 	mov    0x1be60(,%eax,4),%eax
   156c3:	66 c7 40 12 01 00    	movw   $0x1,0x12(%eax)
   156c9:	83 45 f4 01          	addl   $0x1,-0xc(%ebp)
   156cd:	83 7d f4 18          	cmpl   $0x18,-0xc(%ebp)
   156d1:	7e b2                	jle    15685 <_force_exit+0x1a>
   156d3:	8b 45 08             	mov    0x8(%ebp),%eax
   156d6:	0f b7 40 12          	movzwl 0x12(%eax),%eax
   156da:	98                   	cwtl   
   156db:	83 ec 0c             	sub    $0xc,%esp
   156de:	50                   	push   %eax
   156df:	e8 ff d9 ff ff       	call   130e3 <_pcb_find_pid>
   156e4:	83 c4 10             	add    $0x10,%esp
   156e7:	89 45 ec             	mov    %eax,-0x14(%ebp)
   156ea:	83 7d ec 00          	cmpl   $0x0,-0x14(%ebp)
   156ee:	75 3b                	jne    1572b <_force_exit+0xc0>
   156f0:	83 ec 08             	sub    $0x8,%esp
   156f3:	6a 00                	push   $0x0
   156f5:	68 3e 02 00 00       	push   $0x23e
   156fa:	68 08 76 01 00       	push   $0x17608
   156ff:	68 7c 77 01 00       	push   $0x1777c
   15704:	68 13 76 01 00       	push   $0x17613
   15709:	68 00 bb 01 00       	push   $0x1bb00
   1570e:	e8 15 cd ff ff       	call   12428 <__sprint>
   15713:	83 c4 20             	add    $0x20,%esp
   15716:	83 ec 08             	sub    $0x8,%esp
   15719:	68 34 77 01 00       	push   $0x17734
   1571e:	68 00 bb 01 00       	push   $0x1bb00
   15723:	e8 0e d1 ff ff       	call   12836 <_kpanic>
   15728:	83 c4 10             	add    $0x10,%esp
   1572b:	8b 45 ec             	mov    -0x14(%ebp),%eax
   1572e:	0f b6 40 14          	movzbl 0x14(%eax),%eax
   15732:	3c 05                	cmp    $0x5,%al
   15734:	74 09                	je     1573f <_force_exit+0xd4>
   15736:	8b 45 08             	mov    0x8(%ebp),%eax
   15739:	c6 40 14 08          	movb   $0x8,0x14(%eax)
   1573d:	eb 4c                	jmp    1578b <_force_exit+0x120>
   1573f:	8b 45 08             	mov    0x8(%ebp),%eax
   15742:	0f b7 50 10          	movzwl 0x10(%eax),%edx
   15746:	8b 45 ec             	mov    -0x14(%ebp),%eax
   15749:	8b 00                	mov    (%eax),%eax
   1574b:	0f bf d2             	movswl %dx,%edx
   1574e:	89 50 30             	mov    %edx,0x30(%eax)
   15751:	8b 45 ec             	mov    -0x14(%ebp),%eax
   15754:	8b 00                	mov    (%eax),%eax
   15756:	83 c0 48             	add    $0x48,%eax
   15759:	83 c0 04             	add    $0x4,%eax
   1575c:	8b 00                	mov    (%eax),%eax
   1575e:	89 45 e8             	mov    %eax,-0x18(%ebp)
   15761:	83 7d e8 00          	cmpl   $0x0,-0x18(%ebp)
   15765:	74 08                	je     1576f <_force_exit+0x104>
   15767:	8b 45 e8             	mov    -0x18(%ebp),%eax
   1576a:	8b 55 0c             	mov    0xc(%ebp),%edx
   1576d:	89 10                	mov    %edx,(%eax)
   1576f:	83 ec 0c             	sub    $0xc,%esp
   15772:	ff 75 ec             	pushl  -0x14(%ebp)
   15775:	e8 6a e7 ff ff       	call   13ee4 <_schedule>
   1577a:	83 c4 10             	add    $0x10,%esp
   1577d:	83 ec 0c             	sub    $0xc,%esp
   15780:	ff 75 08             	pushl  0x8(%ebp)
   15783:	e8 b0 d9 ff ff       	call   13138 <_pcb_cleanup>
   15788:	83 c4 10             	add    $0x10,%esp
   1578b:	c9                   	leave  
   1578c:	c3                   	ret    

0001578d <__pci_read16>:
   1578d:	55                   	push   %ebp
   1578e:	89 e5                	mov    %esp,%ebp
   15790:	53                   	push   %ebx
   15791:	83 ec 34             	sub    $0x34,%esp
   15794:	8b 5d 08             	mov    0x8(%ebp),%ebx
   15797:	8b 4d 0c             	mov    0xc(%ebp),%ecx
   1579a:	8b 55 10             	mov    0x10(%ebp),%edx
   1579d:	8b 45 14             	mov    0x14(%ebp),%eax
   157a0:	88 5d d4             	mov    %bl,-0x2c(%ebp)
   157a3:	88 4d d0             	mov    %cl,-0x30(%ebp)
   157a6:	88 55 cc             	mov    %dl,-0x34(%ebp)
   157a9:	88 45 c8             	mov    %al,-0x38(%ebp)
   157ac:	0f b6 45 d4          	movzbl -0x2c(%ebp),%eax
   157b0:	89 45 f4             	mov    %eax,-0xc(%ebp)
   157b3:	0f b6 45 d0          	movzbl -0x30(%ebp),%eax
   157b7:	89 45 f0             	mov    %eax,-0x10(%ebp)
   157ba:	0f b6 45 cc          	movzbl -0x34(%ebp),%eax
   157be:	89 45 ec             	mov    %eax,-0x14(%ebp)
   157c1:	c7 45 e8 00 00 00 00 	movl   $0x0,-0x18(%ebp)
   157c8:	8b 45 f4             	mov    -0xc(%ebp),%eax
   157cb:	c1 e0 10             	shl    $0x10,%eax
   157ce:	89 c2                	mov    %eax,%edx
   157d0:	8b 45 f0             	mov    -0x10(%ebp),%eax
   157d3:	c1 e0 0b             	shl    $0xb,%eax
   157d6:	09 c2                	or     %eax,%edx
   157d8:	8b 45 ec             	mov    -0x14(%ebp),%eax
   157db:	c1 e0 08             	shl    $0x8,%eax
   157de:	09 c2                	or     %eax,%edx
   157e0:	0f b6 45 c8          	movzbl -0x38(%ebp),%eax
   157e4:	25 fc 00 00 00       	and    $0xfc,%eax
   157e9:	09 d0                	or     %edx,%eax
   157eb:	0d 00 00 00 80       	or     $0x80000000,%eax
   157f0:	89 45 e4             	mov    %eax,-0x1c(%ebp)
   157f3:	8b 45 e4             	mov    -0x1c(%ebp),%eax
   157f6:	83 ec 08             	sub    $0x8,%esp
   157f9:	50                   	push   %eax
   157fa:	68 f8 0c 00 00       	push   $0xcf8
   157ff:	e8 e7 08 00 00       	call   160eb <__outl>
   15804:	83 c4 10             	add    $0x10,%esp
   15807:	83 ec 0c             	sub    $0xc,%esp
   1580a:	68 fc 0c 00 00       	push   $0xcfc
   1580f:	e8 b3 08 00 00       	call   160c7 <__inl>
   15814:	83 c4 10             	add    $0x10,%esp
   15817:	89 c2                	mov    %eax,%edx
   15819:	0f b6 45 c8          	movzbl -0x38(%ebp),%eax
   1581d:	83 e0 02             	and    $0x2,%eax
   15820:	c1 e0 03             	shl    $0x3,%eax
   15823:	89 c1                	mov    %eax,%ecx
   15825:	d3 fa                	sar    %cl,%edx
   15827:	89 d0                	mov    %edx,%eax
   15829:	0f b7 c0             	movzwl %ax,%eax
   1582c:	89 45 e8             	mov    %eax,-0x18(%ebp)
   1582f:	8b 45 e8             	mov    -0x18(%ebp),%eax
   15832:	8b 5d fc             	mov    -0x4(%ebp),%ebx
   15835:	c9                   	leave  
   15836:	c3                   	ret    

00015837 <__pci_read32>:
   15837:	55                   	push   %ebp
   15838:	89 e5                	mov    %esp,%ebp
   1583a:	53                   	push   %ebx
   1583b:	83 ec 24             	sub    $0x24,%esp
   1583e:	8b 5d 08             	mov    0x8(%ebp),%ebx
   15841:	8b 4d 0c             	mov    0xc(%ebp),%ecx
   15844:	8b 55 10             	mov    0x10(%ebp),%edx
   15847:	8b 45 14             	mov    0x14(%ebp),%eax
   1584a:	88 5d e4             	mov    %bl,-0x1c(%ebp)
   1584d:	88 4d e0             	mov    %cl,-0x20(%ebp)
   15850:	88 55 dc             	mov    %dl,-0x24(%ebp)
   15853:	88 45 d8             	mov    %al,-0x28(%ebp)
   15856:	0f b6 45 e4          	movzbl -0x1c(%ebp),%eax
   1585a:	89 45 f4             	mov    %eax,-0xc(%ebp)
   1585d:	0f b6 45 e0          	movzbl -0x20(%ebp),%eax
   15861:	89 45 f0             	mov    %eax,-0x10(%ebp)
   15864:	0f b6 45 dc          	movzbl -0x24(%ebp),%eax
   15868:	89 45 ec             	mov    %eax,-0x14(%ebp)
   1586b:	8b 45 f4             	mov    -0xc(%ebp),%eax
   1586e:	c1 e0 10             	shl    $0x10,%eax
   15871:	89 c2                	mov    %eax,%edx
   15873:	8b 45 f0             	mov    -0x10(%ebp),%eax
   15876:	c1 e0 0b             	shl    $0xb,%eax
   15879:	09 c2                	or     %eax,%edx
   1587b:	8b 45 ec             	mov    -0x14(%ebp),%eax
   1587e:	c1 e0 08             	shl    $0x8,%eax
   15881:	09 c2                	or     %eax,%edx
   15883:	0f b6 45 d8          	movzbl -0x28(%ebp),%eax
   15887:	25 fc 00 00 00       	and    $0xfc,%eax
   1588c:	09 d0                	or     %edx,%eax
   1588e:	0d 00 00 00 80       	or     $0x80000000,%eax
   15893:	89 45 e8             	mov    %eax,-0x18(%ebp)
   15896:	8b 45 e8             	mov    -0x18(%ebp),%eax
   15899:	83 ec 08             	sub    $0x8,%esp
   1589c:	50                   	push   %eax
   1589d:	68 f8 0c 00 00       	push   $0xcf8
   158a2:	e8 44 08 00 00       	call   160eb <__outl>
   158a7:	83 c4 10             	add    $0x10,%esp
   158aa:	83 ec 0c             	sub    $0xc,%esp
   158ad:	68 fc 0c 00 00       	push   $0xcfc
   158b2:	e8 10 08 00 00       	call   160c7 <__inl>
   158b7:	83 c4 10             	add    $0x10,%esp
   158ba:	8b 5d fc             	mov    -0x4(%ebp),%ebx
   158bd:	c9                   	leave  
   158be:	c3                   	ret    

000158bf <__pci_read8>:
   158bf:	55                   	push   %ebp
   158c0:	89 e5                	mov    %esp,%ebp
   158c2:	53                   	push   %ebx
   158c3:	83 ec 34             	sub    $0x34,%esp
   158c6:	8b 5d 08             	mov    0x8(%ebp),%ebx
   158c9:	8b 4d 0c             	mov    0xc(%ebp),%ecx
   158cc:	8b 55 10             	mov    0x10(%ebp),%edx
   158cf:	8b 45 14             	mov    0x14(%ebp),%eax
   158d2:	88 5d d4             	mov    %bl,-0x2c(%ebp)
   158d5:	88 4d d0             	mov    %cl,-0x30(%ebp)
   158d8:	88 55 cc             	mov    %dl,-0x34(%ebp)
   158db:	88 45 c8             	mov    %al,-0x38(%ebp)
   158de:	0f b6 45 d4          	movzbl -0x2c(%ebp),%eax
   158e2:	89 45 f4             	mov    %eax,-0xc(%ebp)
   158e5:	0f b6 45 d0          	movzbl -0x30(%ebp),%eax
   158e9:	89 45 f0             	mov    %eax,-0x10(%ebp)
   158ec:	0f b6 45 cc          	movzbl -0x34(%ebp),%eax
   158f0:	89 45 ec             	mov    %eax,-0x14(%ebp)
   158f3:	c7 45 e8 00 00 00 00 	movl   $0x0,-0x18(%ebp)
   158fa:	8b 45 f4             	mov    -0xc(%ebp),%eax
   158fd:	c1 e0 10             	shl    $0x10,%eax
   15900:	89 c2                	mov    %eax,%edx
   15902:	8b 45 f0             	mov    -0x10(%ebp),%eax
   15905:	c1 e0 0b             	shl    $0xb,%eax
   15908:	09 c2                	or     %eax,%edx
   1590a:	8b 45 ec             	mov    -0x14(%ebp),%eax
   1590d:	c1 e0 08             	shl    $0x8,%eax
   15910:	09 c2                	or     %eax,%edx
   15912:	0f b6 45 c8          	movzbl -0x38(%ebp),%eax
   15916:	25 fc 00 00 00       	and    $0xfc,%eax
   1591b:	09 d0                	or     %edx,%eax
   1591d:	0d 00 00 00 80       	or     $0x80000000,%eax
   15922:	89 45 e4             	mov    %eax,-0x1c(%ebp)
   15925:	8b 45 e4             	mov    -0x1c(%ebp),%eax
   15928:	83 ec 08             	sub    $0x8,%esp
   1592b:	50                   	push   %eax
   1592c:	68 f8 0c 00 00       	push   $0xcf8
   15931:	e8 b5 07 00 00       	call   160eb <__outl>
   15936:	83 c4 10             	add    $0x10,%esp
   15939:	83 ec 0c             	sub    $0xc,%esp
   1593c:	68 fc 0c 00 00       	push   $0xcfc
   15941:	e8 81 07 00 00       	call   160c7 <__inl>
   15946:	83 c4 10             	add    $0x10,%esp
   15949:	89 c2                	mov    %eax,%edx
   1594b:	0f b6 45 c8          	movzbl -0x38(%ebp),%eax
   1594f:	83 e0 03             	and    $0x3,%eax
   15952:	c1 e0 03             	shl    $0x3,%eax
   15955:	89 c1                	mov    %eax,%ecx
   15957:	d3 fa                	sar    %cl,%edx
   15959:	89 d0                	mov    %edx,%eax
   1595b:	0f b7 c0             	movzwl %ax,%eax
   1595e:	89 45 e8             	mov    %eax,-0x18(%ebp)
   15961:	8b 45 e8             	mov    -0x18(%ebp),%eax
   15964:	8b 5d fc             	mov    -0x4(%ebp),%ebx
   15967:	c9                   	leave  
   15968:	c3                   	ret    

00015969 <__pci_write32>:
   15969:	55                   	push   %ebp
   1596a:	89 e5                	mov    %esp,%ebp
   1596c:	53                   	push   %ebx
   1596d:	83 ec 24             	sub    $0x24,%esp
   15970:	8b 5d 08             	mov    0x8(%ebp),%ebx
   15973:	8b 4d 0c             	mov    0xc(%ebp),%ecx
   15976:	8b 55 10             	mov    0x10(%ebp),%edx
   15979:	8b 45 14             	mov    0x14(%ebp),%eax
   1597c:	88 5d e4             	mov    %bl,-0x1c(%ebp)
   1597f:	88 4d e0             	mov    %cl,-0x20(%ebp)
   15982:	88 55 dc             	mov    %dl,-0x24(%ebp)
   15985:	88 45 d8             	mov    %al,-0x28(%ebp)
   15988:	0f b6 45 e4          	movzbl -0x1c(%ebp),%eax
   1598c:	89 45 f4             	mov    %eax,-0xc(%ebp)
   1598f:	0f b6 45 e0          	movzbl -0x20(%ebp),%eax
   15993:	89 45 f0             	mov    %eax,-0x10(%ebp)
   15996:	0f b6 45 dc          	movzbl -0x24(%ebp),%eax
   1599a:	89 45 ec             	mov    %eax,-0x14(%ebp)
   1599d:	8b 45 f4             	mov    -0xc(%ebp),%eax
   159a0:	c1 e0 10             	shl    $0x10,%eax
   159a3:	89 c2                	mov    %eax,%edx
   159a5:	8b 45 f0             	mov    -0x10(%ebp),%eax
   159a8:	c1 e0 0b             	shl    $0xb,%eax
   159ab:	09 c2                	or     %eax,%edx
   159ad:	8b 45 ec             	mov    -0x14(%ebp),%eax
   159b0:	c1 e0 08             	shl    $0x8,%eax
   159b3:	09 c2                	or     %eax,%edx
   159b5:	0f b6 45 d8          	movzbl -0x28(%ebp),%eax
   159b9:	25 fc 00 00 00       	and    $0xfc,%eax
   159be:	09 d0                	or     %edx,%eax
   159c0:	0d 00 00 00 80       	or     $0x80000000,%eax
   159c5:	89 45 e8             	mov    %eax,-0x18(%ebp)
   159c8:	8b 45 e8             	mov    -0x18(%ebp),%eax
   159cb:	83 ec 08             	sub    $0x8,%esp
   159ce:	50                   	push   %eax
   159cf:	68 f8 0c 00 00       	push   $0xcf8
   159d4:	e8 12 07 00 00       	call   160eb <__outl>
   159d9:	83 c4 10             	add    $0x10,%esp
   159dc:	8b 45 18             	mov    0x18(%ebp),%eax
   159df:	83 ec 08             	sub    $0x8,%esp
   159e2:	50                   	push   %eax
   159e3:	68 fc 0c 00 00       	push   $0xcfc
   159e8:	e8 fe 06 00 00       	call   160eb <__outl>
   159ed:	83 c4 10             	add    $0x10,%esp
   159f0:	90                   	nop
   159f1:	8b 5d fc             	mov    -0x4(%ebp),%ebx
   159f4:	c9                   	leave  
   159f5:	c3                   	ret    

000159f6 <__pci_find_device>:
   159f6:	55                   	push   %ebp
   159f7:	89 e5                	mov    %esp,%ebp
   159f9:	83 ec 28             	sub    $0x28,%esp
   159fc:	8b 55 0c             	mov    0xc(%ebp),%edx
   159ff:	8b 45 10             	mov    0x10(%ebp),%eax
   15a02:	66 89 55 e4          	mov    %dx,-0x1c(%ebp)
   15a06:	66 89 45 e0          	mov    %ax,-0x20(%ebp)
   15a0a:	c7 45 f4 00 00 00 00 	movl   $0x0,-0xc(%ebp)
   15a11:	e9 a3 00 00 00       	jmp    15ab9 <__pci_find_device+0xc3>
   15a16:	c7 45 f0 00 00 00 00 	movl   $0x0,-0x10(%ebp)
   15a1d:	e9 89 00 00 00       	jmp    15aab <__pci_find_device+0xb5>
   15a22:	8b 45 f0             	mov    -0x10(%ebp),%eax
   15a25:	0f b6 d0             	movzbl %al,%edx
   15a28:	8b 45 f4             	mov    -0xc(%ebp),%eax
   15a2b:	0f b6 c0             	movzbl %al,%eax
   15a2e:	6a 00                	push   $0x0
   15a30:	6a 00                	push   $0x0
   15a32:	52                   	push   %edx
   15a33:	50                   	push   %eax
   15a34:	e8 54 fd ff ff       	call   1578d <__pci_read16>
   15a39:	83 c4 10             	add    $0x10,%esp
   15a3c:	66 39 45 e4          	cmp    %ax,-0x1c(%ebp)
   15a40:	75 65                	jne    15aa7 <__pci_find_device+0xb1>
   15a42:	8b 45 f0             	mov    -0x10(%ebp),%eax
   15a45:	0f b6 d0             	movzbl %al,%edx
   15a48:	8b 45 f4             	mov    -0xc(%ebp),%eax
   15a4b:	0f b6 c0             	movzbl %al,%eax
   15a4e:	6a 02                	push   $0x2
   15a50:	6a 00                	push   $0x0
   15a52:	52                   	push   %edx
   15a53:	50                   	push   %eax
   15a54:	e8 34 fd ff ff       	call   1578d <__pci_read16>
   15a59:	83 c4 10             	add    $0x10,%esp
   15a5c:	66 39 45 e0          	cmp    %ax,-0x20(%ebp)
   15a60:	75 45                	jne    15aa7 <__pci_find_device+0xb1>
   15a62:	8b 45 f4             	mov    -0xc(%ebp),%eax
   15a65:	89 c2                	mov    %eax,%edx
   15a67:	8b 45 08             	mov    0x8(%ebp),%eax
   15a6a:	88 10                	mov    %dl,(%eax)
   15a6c:	8b 45 f0             	mov    -0x10(%ebp),%eax
   15a6f:	89 c2                	mov    %eax,%edx
   15a71:	8b 45 08             	mov    0x8(%ebp),%eax
   15a74:	88 50 01             	mov    %dl,0x1(%eax)
   15a77:	8b 45 08             	mov    0x8(%ebp),%eax
   15a7a:	c6 40 02 00          	movb   $0x0,0x2(%eax)
   15a7e:	8b 45 f0             	mov    -0x10(%ebp),%eax
   15a81:	0f b6 d0             	movzbl %al,%edx
   15a84:	8b 45 f4             	mov    -0xc(%ebp),%eax
   15a87:	0f b6 c0             	movzbl %al,%eax
   15a8a:	6a 3c                	push   $0x3c
   15a8c:	6a 00                	push   $0x0
   15a8e:	52                   	push   %edx
   15a8f:	50                   	push   %eax
   15a90:	e8 2a fe ff ff       	call   158bf <__pci_read8>
   15a95:	83 c4 10             	add    $0x10,%esp
   15a98:	89 c2                	mov    %eax,%edx
   15a9a:	8b 45 08             	mov    0x8(%ebp),%eax
   15a9d:	88 50 03             	mov    %dl,0x3(%eax)
   15aa0:	b8 00 00 00 00       	mov    $0x0,%eax
   15aa5:	eb 24                	jmp    15acb <__pci_find_device+0xd5>
   15aa7:	83 45 f0 01          	addl   $0x1,-0x10(%ebp)
   15aab:	83 7d f0 1f          	cmpl   $0x1f,-0x10(%ebp)
   15aaf:	0f 8e 6d ff ff ff    	jle    15a22 <__pci_find_device+0x2c>
   15ab5:	83 45 f4 01          	addl   $0x1,-0xc(%ebp)
   15ab9:	81 7d f4 ff 00 00 00 	cmpl   $0xff,-0xc(%ebp)
   15ac0:	0f 8e 50 ff ff ff    	jle    15a16 <__pci_find_device+0x20>
   15ac6:	b8 01 00 00 00       	mov    $0x1,%eax
   15acb:	c9                   	leave  
   15acc:	c3                   	ret    

00015acd <__eth_isr>:
   15acd:	55                   	push   %ebp
   15ace:	89 e5                	mov    %esp,%ebp
   15ad0:	83 ec 08             	sub    $0x8,%esp
   15ad3:	83 ec 0c             	sub    $0xc,%esp
   15ad6:	68 88 77 01 00       	push   $0x17788
   15adb:	e8 d0 ba ff ff       	call   115b0 <__cio_printf>
   15ae0:	83 c4 10             	add    $0x10,%esp
   15ae3:	83 ec 08             	sub    $0x8,%esp
   15ae6:	6a 20                	push   $0x20
   15ae8:	6a 20                	push   $0x20
   15aea:	e8 e3 05 00 00       	call   160d2 <__outb>
   15aef:	83 c4 10             	add    $0x10,%esp
   15af2:	90                   	nop
   15af3:	c9                   	leave  
   15af4:	c3                   	ret    

00015af5 <__eth_init>:
   15af5:	55                   	push   %ebp
   15af6:	89 e5                	mov    %esp,%ebp
   15af8:	83 ec 18             	sub    $0x18,%esp
   15afb:	83 ec 04             	sub    $0x4,%esp
   15afe:	68 29 12 00 00       	push   $0x1229
   15b03:	68 86 80 00 00       	push   $0x8086
   15b08:	68 00 c7 01 00       	push   $0x1c700
   15b0d:	e8 e4 fe ff ff       	call   159f6 <__pci_find_device>
   15b12:	83 c4 10             	add    $0x10,%esp
   15b15:	85 c0                	test   %eax,%eax
   15b17:	74 38                	je     15b51 <__eth_init+0x5c>
   15b19:	83 ec 08             	sub    $0x8,%esp
   15b1c:	6a 00                	push   $0x0
   15b1e:	6a 2f                	push   $0x2f
   15b20:	68 91 77 01 00       	push   $0x17791
   15b25:	68 f8 78 01 00       	push   $0x178f8
   15b2a:	68 97 77 01 00       	push   $0x17797
   15b2f:	68 00 bb 01 00       	push   $0x1bb00
   15b34:	e8 ef c8 ff ff       	call   12428 <__sprint>
   15b39:	83 c4 20             	add    $0x20,%esp
   15b3c:	83 ec 08             	sub    $0x8,%esp
   15b3f:	68 b4 77 01 00       	push   $0x177b4
   15b44:	68 00 bb 01 00       	push   $0x1bb00
   15b49:	e8 e8 cc ff ff       	call   12836 <_kpanic>
   15b4e:	83 c4 10             	add    $0x10,%esp
   15b51:	0f b6 05 02 c7 01 00 	movzbl 0x1c702,%eax
   15b58:	0f b6 c8             	movzbl %al,%ecx
   15b5b:	0f b6 05 01 c7 01 00 	movzbl 0x1c701,%eax
   15b62:	0f b6 d0             	movzbl %al,%edx
   15b65:	0f b6 05 00 c7 01 00 	movzbl 0x1c700,%eax
   15b6c:	0f b6 c0             	movzbl %al,%eax
   15b6f:	6a 14                	push   $0x14
   15b71:	51                   	push   %ecx
   15b72:	52                   	push   %edx
   15b73:	50                   	push   %eax
   15b74:	e8 be fc ff ff       	call   15837 <__pci_read32>
   15b79:	83 c4 10             	add    $0x10,%esp
   15b7c:	25 f0 ff 00 00       	and    $0xfff0,%eax
   15b81:	a3 e4 be 01 00       	mov    %eax,0x1bee4
   15b86:	0f b6 05 02 c7 01 00 	movzbl 0x1c702,%eax
   15b8d:	0f b6 c8             	movzbl %al,%ecx
   15b90:	0f b6 05 01 c7 01 00 	movzbl 0x1c701,%eax
   15b97:	0f b6 d0             	movzbl %al,%edx
   15b9a:	0f b6 05 00 c7 01 00 	movzbl 0x1c700,%eax
   15ba1:	0f b6 c0             	movzbl %al,%eax
   15ba4:	6a 04                	push   $0x4
   15ba6:	51                   	push   %ecx
   15ba7:	52                   	push   %edx
   15ba8:	50                   	push   %eax
   15ba9:	e8 89 fc ff ff       	call   15837 <__pci_read32>
   15bae:	83 c4 10             	add    $0x10,%esp
   15bb1:	89 45 f4             	mov    %eax,-0xc(%ebp)
   15bb4:	83 4d f4 04          	orl    $0x4,-0xc(%ebp)
   15bb8:	0f b6 05 02 c7 01 00 	movzbl 0x1c702,%eax
   15bbf:	0f b6 c8             	movzbl %al,%ecx
   15bc2:	0f b6 05 01 c7 01 00 	movzbl 0x1c701,%eax
   15bc9:	0f b6 d0             	movzbl %al,%edx
   15bcc:	0f b6 05 00 c7 01 00 	movzbl 0x1c700,%eax
   15bd3:	0f b6 c0             	movzbl %al,%eax
   15bd6:	83 ec 0c             	sub    $0xc,%esp
   15bd9:	ff 75 f4             	pushl  -0xc(%ebp)
   15bdc:	6a 04                	push   $0x4
   15bde:	51                   	push   %ecx
   15bdf:	52                   	push   %edx
   15be0:	50                   	push   %eax
   15be1:	e8 83 fd ff ff       	call   15969 <__pci_write32>
   15be6:	83 c4 20             	add    $0x20,%esp
   15be9:	8b 15 e0 be 01 00    	mov    0x1bee0,%edx
   15bef:	a1 e4 be 01 00       	mov    0x1bee4,%eax
   15bf4:	83 ec 04             	sub    $0x4,%esp
   15bf7:	52                   	push   %edx
   15bf8:	50                   	push   %eax
   15bf9:	68 e8 77 01 00       	push   $0x177e8
   15bfe:	e8 ad b9 ff ff       	call   115b0 <__cio_printf>
   15c03:	83 c4 10             	add    $0x10,%esp
   15c06:	0f b6 05 03 c7 01 00 	movzbl 0x1c703,%eax
   15c0d:	0f b6 c0             	movzbl %al,%eax
   15c10:	83 ec 08             	sub    $0x8,%esp
   15c13:	50                   	push   %eax
   15c14:	68 08 78 01 00       	push   $0x17808
   15c19:	e8 92 b9 ff ff       	call   115b0 <__cio_printf>
   15c1e:	83 c4 10             	add    $0x10,%esp
   15c21:	0f b6 05 02 c7 01 00 	movzbl 0x1c702,%eax
   15c28:	0f b6 c8             	movzbl %al,%ecx
   15c2b:	0f b6 05 01 c7 01 00 	movzbl 0x1c701,%eax
   15c32:	0f b6 d0             	movzbl %al,%edx
   15c35:	0f b6 05 00 c7 01 00 	movzbl 0x1c700,%eax
   15c3c:	0f b6 c0             	movzbl %al,%eax
   15c3f:	6a 04                	push   $0x4
   15c41:	51                   	push   %ecx
   15c42:	52                   	push   %edx
   15c43:	50                   	push   %eax
   15c44:	e8 44 fb ff ff       	call   1578d <__pci_read16>
   15c49:	83 c4 10             	add    $0x10,%esp
   15c4c:	0f b7 c0             	movzwl %ax,%eax
   15c4f:	83 ec 08             	sub    $0x8,%esp
   15c52:	50                   	push   %eax
   15c53:	68 1c 78 01 00       	push   $0x1781c
   15c58:	e8 53 b9 ff ff       	call   115b0 <__cio_printf>
   15c5d:	83 c4 10             	add    $0x10,%esp
   15c60:	a1 e4 be 01 00       	mov    0x1bee4,%eax
   15c65:	83 c0 08             	add    $0x8,%eax
   15c68:	83 ec 08             	sub    $0x8,%esp
   15c6b:	6a 02                	push   $0x2
   15c6d:	50                   	push   %eax
   15c6e:	e8 78 04 00 00       	call   160eb <__outl>
   15c73:	83 c4 10             	add    $0x10,%esp
   15c76:	a1 e4 be 01 00       	mov    0x1bee4,%eax
   15c7b:	83 ec 0c             	sub    $0xc,%esp
   15c7e:	50                   	push   %eax
   15c7f:	e8 2c 04 00 00       	call   160b0 <__inb>
   15c84:	83 c4 10             	add    $0x10,%esp
   15c87:	83 ec 0c             	sub    $0xc,%esp
   15c8a:	6a 64                	push   $0x64
   15c8c:	e8 a7 be ff ff       	call   11b38 <__delay>
   15c91:	83 c4 10             	add    $0x10,%esp
   15c94:	a1 e4 be 01 00       	mov    0x1bee4,%eax
   15c99:	83 c0 08             	add    $0x8,%eax
   15c9c:	83 ec 08             	sub    $0x8,%esp
   15c9f:	6a 00                	push   $0x0
   15ca1:	50                   	push   %eax
   15ca2:	e8 44 04 00 00       	call   160eb <__outl>
   15ca7:	83 c4 10             	add    $0x10,%esp
   15caa:	a1 e4 be 01 00       	mov    0x1bee4,%eax
   15caf:	83 ec 0c             	sub    $0xc,%esp
   15cb2:	50                   	push   %eax
   15cb3:	e8 f8 03 00 00       	call   160b0 <__inb>
   15cb8:	83 c4 10             	add    $0x10,%esp
   15cbb:	83 ec 0c             	sub    $0xc,%esp
   15cbe:	6a 64                	push   $0x64
   15cc0:	e8 73 be ff ff       	call   11b38 <__delay>
   15cc5:	83 c4 10             	add    $0x10,%esp
   15cc8:	e8 2d 00 00 00       	call   15cfa <__eth_disable_int>
   15ccd:	83 ec 0c             	sub    $0xc,%esp
   15cd0:	6a 00                	push   $0x0
   15cd2:	e8 61 00 00 00       	call   15d38 <__eth_load_CU_base>
   15cd7:	83 c4 10             	add    $0x10,%esp
   15cda:	83 ec 0c             	sub    $0xc,%esp
   15cdd:	6a 00                	push   $0x0
   15cdf:	e8 0d 01 00 00       	call   15df1 <__eth_load_RU_base>
   15ce4:	83 c4 10             	add    $0x10,%esp
   15ce7:	83 ec 0c             	sub    $0xc,%esp
   15cea:	68 2f 78 01 00       	push   $0x1782f
   15cef:	e8 bc b8 ff ff       	call   115b0 <__cio_printf>
   15cf4:	83 c4 10             	add    $0x10,%esp
   15cf7:	90                   	nop
   15cf8:	c9                   	leave  
   15cf9:	c3                   	ret    

00015cfa <__eth_disable_int>:
   15cfa:	55                   	push   %ebp
   15cfb:	89 e5                	mov    %esp,%ebp
   15cfd:	83 ec 08             	sub    $0x8,%esp
   15d00:	a1 e4 be 01 00       	mov    0x1bee4,%eax
   15d05:	83 c0 03             	add    $0x3,%eax
   15d08:	83 ec 08             	sub    $0x8,%esp
   15d0b:	6a 02                	push   $0x2
   15d0d:	50                   	push   %eax
   15d0e:	e8 bf 03 00 00       	call   160d2 <__outb>
   15d13:	83 c4 10             	add    $0x10,%esp
   15d16:	90                   	nop
   15d17:	c9                   	leave  
   15d18:	c3                   	ret    

00015d19 <__eth_enable_int>:
   15d19:	55                   	push   %ebp
   15d1a:	89 e5                	mov    %esp,%ebp
   15d1c:	83 ec 08             	sub    $0x8,%esp
   15d1f:	a1 e4 be 01 00       	mov    0x1bee4,%eax
   15d24:	83 c0 03             	add    $0x3,%eax
   15d27:	83 ec 08             	sub    $0x8,%esp
   15d2a:	6a 00                	push   $0x0
   15d2c:	50                   	push   %eax
   15d2d:	e8 a0 03 00 00       	call   160d2 <__outb>
   15d32:	83 c4 10             	add    $0x10,%esp
   15d35:	90                   	nop
   15d36:	c9                   	leave  
   15d37:	c3                   	ret    

00015d38 <__eth_load_CU_base>:
   15d38:	55                   	push   %ebp
   15d39:	89 e5                	mov    %esp,%ebp
   15d3b:	83 ec 18             	sub    $0x18,%esp
   15d3e:	c7 45 f4 00 00 00 00 	movl   $0x0,-0xc(%ebp)
   15d45:	eb 42                	jmp    15d89 <__eth_load_CU_base+0x51>
   15d47:	a1 e4 be 01 00       	mov    0x1bee4,%eax
   15d4c:	83 c0 02             	add    $0x2,%eax
   15d4f:	83 ec 0c             	sub    $0xc,%esp
   15d52:	50                   	push   %eax
   15d53:	e8 58 03 00 00       	call   160b0 <__inb>
   15d58:	83 c4 10             	add    $0x10,%esp
   15d5b:	85 c0                	test   %eax,%eax
   15d5d:	74 35                	je     15d94 <__eth_load_CU_base+0x5c>
   15d5f:	83 7d f4 14          	cmpl   $0x14,-0xc(%ebp)
   15d63:	7e 20                	jle    15d85 <__eth_load_CU_base+0x4d>
   15d65:	83 ec 08             	sub    $0x8,%esp
   15d68:	ff 75 f4             	pushl  -0xc(%ebp)
   15d6b:	68 3e 78 01 00       	push   $0x1783e
   15d70:	e8 3b b8 ff ff       	call   115b0 <__cio_printf>
   15d75:	83 c4 10             	add    $0x10,%esp
   15d78:	83 ec 0c             	sub    $0xc,%esp
   15d7b:	6a 05                	push   $0x5
   15d7d:	e8 b6 bd ff ff       	call   11b38 <__delay>
   15d82:	83 c4 10             	add    $0x10,%esp
   15d85:	83 45 f4 01          	addl   $0x1,-0xc(%ebp)
   15d89:	81 7d f4 1f 4e 00 00 	cmpl   $0x4e1f,-0xc(%ebp)
   15d90:	7e b5                	jle    15d47 <__eth_load_CU_base+0xf>
   15d92:	eb 01                	jmp    15d95 <__eth_load_CU_base+0x5d>
   15d94:	90                   	nop
   15d95:	81 7d f4 20 4e 00 00 	cmpl   $0x4e20,-0xc(%ebp)
   15d9c:	75 12                	jne    15db0 <__eth_load_CU_base+0x78>
   15d9e:	83 ec 0c             	sub    $0xc,%esp
   15da1:	68 58 78 01 00       	push   $0x17858
   15da6:	e8 05 b8 ff ff       	call   115b0 <__cio_printf>
   15dab:	83 c4 10             	add    $0x10,%esp
   15dae:	eb 3f                	jmp    15def <__eth_load_CU_base+0xb7>
   15db0:	8b 45 08             	mov    0x8(%ebp),%eax
   15db3:	8b 15 e4 be 01 00    	mov    0x1bee4,%edx
   15db9:	83 c2 04             	add    $0x4,%edx
   15dbc:	83 ec 08             	sub    $0x8,%esp
   15dbf:	50                   	push   %eax
   15dc0:	52                   	push   %edx
   15dc1:	e8 25 03 00 00       	call   160eb <__outl>
   15dc6:	83 c4 10             	add    $0x10,%esp
   15dc9:	a1 e4 be 01 00       	mov    0x1bee4,%eax
   15dce:	83 c0 02             	add    $0x2,%eax
   15dd1:	83 ec 08             	sub    $0x8,%esp
   15dd4:	6a 60                	push   $0x60
   15dd6:	50                   	push   %eax
   15dd7:	e8 f6 02 00 00       	call   160d2 <__outb>
   15ddc:	83 c4 10             	add    $0x10,%esp
   15ddf:	83 ec 0c             	sub    $0xc,%esp
   15de2:	68 6a 78 01 00       	push   $0x1786a
   15de7:	e8 c4 b7 ff ff       	call   115b0 <__cio_printf>
   15dec:	83 c4 10             	add    $0x10,%esp
   15def:	c9                   	leave  
   15df0:	c3                   	ret    

00015df1 <__eth_load_RU_base>:
   15df1:	55                   	push   %ebp
   15df2:	89 e5                	mov    %esp,%ebp
   15df4:	83 ec 18             	sub    $0x18,%esp
   15df7:	c7 45 f4 00 00 00 00 	movl   $0x0,-0xc(%ebp)
   15dfe:	c7 45 f4 00 00 00 00 	movl   $0x0,-0xc(%ebp)
   15e05:	eb 42                	jmp    15e49 <__eth_load_RU_base+0x58>
   15e07:	a1 e4 be 01 00       	mov    0x1bee4,%eax
   15e0c:	83 c0 02             	add    $0x2,%eax
   15e0f:	83 ec 0c             	sub    $0xc,%esp
   15e12:	50                   	push   %eax
   15e13:	e8 a3 02 00 00       	call   160bb <__inw>
   15e18:	83 c4 10             	add    $0x10,%esp
   15e1b:	85 c0                	test   %eax,%eax
   15e1d:	74 35                	je     15e54 <__eth_load_RU_base+0x63>
   15e1f:	83 7d f4 14          	cmpl   $0x14,-0xc(%ebp)
   15e23:	7e 20                	jle    15e45 <__eth_load_RU_base+0x54>
   15e25:	83 ec 08             	sub    $0x8,%esp
   15e28:	ff 75 f4             	pushl  -0xc(%ebp)
   15e2b:	68 80 78 01 00       	push   $0x17880
   15e30:	e8 7b b7 ff ff       	call   115b0 <__cio_printf>
   15e35:	83 c4 10             	add    $0x10,%esp
   15e38:	83 ec 0c             	sub    $0xc,%esp
   15e3b:	6a 05                	push   $0x5
   15e3d:	e8 f6 bc ff ff       	call   11b38 <__delay>
   15e42:	83 c4 10             	add    $0x10,%esp
   15e45:	83 45 f4 01          	addl   $0x1,-0xc(%ebp)
   15e49:	81 7d f4 1f 4e 00 00 	cmpl   $0x4e1f,-0xc(%ebp)
   15e50:	7e b5                	jle    15e07 <__eth_load_RU_base+0x16>
   15e52:	eb 01                	jmp    15e55 <__eth_load_RU_base+0x64>
   15e54:	90                   	nop
   15e55:	81 7d f4 20 4e 00 00 	cmpl   $0x4e20,-0xc(%ebp)
   15e5c:	75 12                	jne    15e70 <__eth_load_RU_base+0x7f>
   15e5e:	83 ec 0c             	sub    $0xc,%esp
   15e61:	68 9a 78 01 00       	push   $0x1789a
   15e66:	e8 45 b7 ff ff       	call   115b0 <__cio_printf>
   15e6b:	83 c4 10             	add    $0x10,%esp
   15e6e:	eb 3f                	jmp    15eaf <__eth_load_RU_base+0xbe>
   15e70:	8b 45 08             	mov    0x8(%ebp),%eax
   15e73:	8b 15 e4 be 01 00    	mov    0x1bee4,%edx
   15e79:	83 c2 04             	add    $0x4,%edx
   15e7c:	83 ec 08             	sub    $0x8,%esp
   15e7f:	50                   	push   %eax
   15e80:	52                   	push   %edx
   15e81:	e8 65 02 00 00       	call   160eb <__outl>
   15e86:	83 c4 10             	add    $0x10,%esp
   15e89:	a1 e4 be 01 00       	mov    0x1bee4,%eax
   15e8e:	83 c0 02             	add    $0x2,%eax
   15e91:	83 ec 08             	sub    $0x8,%esp
   15e94:	6a 06                	push   $0x6
   15e96:	50                   	push   %eax
   15e97:	e8 36 02 00 00       	call   160d2 <__outb>
   15e9c:	83 c4 10             	add    $0x10,%esp
   15e9f:	83 ec 0c             	sub    $0xc,%esp
   15ea2:	68 ac 78 01 00       	push   $0x178ac
   15ea7:	e8 04 b7 ff ff       	call   115b0 <__cio_printf>
   15eac:	83 c4 10             	add    $0x10,%esp
   15eaf:	c9                   	leave  
   15eb0:	c3                   	ret    

00015eb1 <__eth_CU_start>:
   15eb1:	55                   	push   %ebp
   15eb2:	89 e5                	mov    %esp,%ebp
   15eb4:	83 ec 18             	sub    $0x18,%esp
   15eb7:	eb 0d                	jmp    15ec6 <__eth_CU_start+0x15>
   15eb9:	83 ec 0c             	sub    $0xc,%esp
   15ebc:	6a 64                	push   $0x64
   15ebe:	e8 75 bc ff ff       	call   11b38 <__delay>
   15ec3:	83 c4 10             	add    $0x10,%esp
   15ec6:	a1 e4 be 01 00       	mov    0x1bee4,%eax
   15ecb:	83 c0 02             	add    $0x2,%eax
   15ece:	83 ec 0c             	sub    $0xc,%esp
   15ed1:	50                   	push   %eax
   15ed2:	e8 d9 01 00 00       	call   160b0 <__inb>
   15ed7:	83 c4 10             	add    $0x10,%esp
   15eda:	88 45 f7             	mov    %al,-0x9(%ebp)
   15edd:	80 7d f7 00          	cmpb   $0x0,-0x9(%ebp)
   15ee1:	75 d6                	jne    15eb9 <__eth_CU_start+0x8>
   15ee3:	83 ec 0c             	sub    $0xc,%esp
   15ee6:	68 c2 78 01 00       	push   $0x178c2
   15eeb:	e8 c0 b6 ff ff       	call   115b0 <__cio_printf>
   15ef0:	83 c4 10             	add    $0x10,%esp
   15ef3:	8b 45 08             	mov    0x8(%ebp),%eax
   15ef6:	8b 15 e4 be 01 00    	mov    0x1bee4,%edx
   15efc:	83 c2 04             	add    $0x4,%edx
   15eff:	83 ec 08             	sub    $0x8,%esp
   15f02:	50                   	push   %eax
   15f03:	52                   	push   %edx
   15f04:	e8 e2 01 00 00       	call   160eb <__outl>
   15f09:	83 c4 10             	add    $0x10,%esp
   15f0c:	a1 e4 be 01 00       	mov    0x1bee4,%eax
   15f11:	83 c0 02             	add    $0x2,%eax
   15f14:	83 ec 08             	sub    $0x8,%esp
   15f17:	6a 10                	push   $0x10
   15f19:	50                   	push   %eax
   15f1a:	e8 b3 01 00 00       	call   160d2 <__outb>
   15f1f:	83 c4 10             	add    $0x10,%esp
   15f22:	90                   	nop
   15f23:	c9                   	leave  
   15f24:	c3                   	ret    

00015f25 <__eth_nop>:
   15f25:	55                   	push   %ebp
   15f26:	89 e5                	mov    %esp,%ebp
   15f28:	57                   	push   %edi
   15f29:	56                   	push   %esi
   15f2a:	53                   	push   %ebx
   15f2b:	83 ec 2c             	sub    $0x2c,%esp
   15f2e:	83 ec 04             	sub    $0x4,%esp
   15f31:	6a 00                	push   $0x0
   15f33:	6a 08                	push   $0x8
   15f35:	68 00 bf 01 00       	push   $0x1bf00
   15f3a:	e8 03 c3 ff ff       	call   12242 <__memset>
   15f3f:	83 c4 10             	add    $0x10,%esp
   15f42:	c6 45 e7 05          	movb   $0x5,-0x19(%ebp)
   15f46:	0f b6 45 e7          	movzbl -0x19(%ebp),%eax
   15f4a:	a2 03 bf 01 00       	mov    %al,0x1bf03
   15f4f:	0f b6 05 07 bf 01 00 	movzbl 0x1bf07,%eax
   15f56:	0f b6 c8             	movzbl %al,%ecx
   15f59:	0f b6 05 06 bf 01 00 	movzbl 0x1bf06,%eax
   15f60:	0f b6 c0             	movzbl %al,%eax
   15f63:	89 45 d4             	mov    %eax,-0x2c(%ebp)
   15f66:	0f b6 05 05 bf 01 00 	movzbl 0x1bf05,%eax
   15f6d:	0f b6 d8             	movzbl %al,%ebx
   15f70:	89 5d d0             	mov    %ebx,-0x30(%ebp)
   15f73:	0f b6 05 04 bf 01 00 	movzbl 0x1bf04,%eax
   15f7a:	0f b6 f8             	movzbl %al,%edi
   15f7d:	0f b6 05 03 bf 01 00 	movzbl 0x1bf03,%eax
   15f84:	0f b6 f0             	movzbl %al,%esi
   15f87:	0f b6 05 02 bf 01 00 	movzbl 0x1bf02,%eax
   15f8e:	0f b6 d8             	movzbl %al,%ebx
   15f91:	0f b6 05 01 bf 01 00 	movzbl 0x1bf01,%eax
   15f98:	0f b6 d0             	movzbl %al,%edx
   15f9b:	0f b6 05 00 bf 01 00 	movzbl 0x1bf00,%eax
   15fa2:	0f b6 c0             	movzbl %al,%eax
   15fa5:	83 ec 0c             	sub    $0xc,%esp
   15fa8:	51                   	push   %ecx
   15fa9:	ff 75 d4             	pushl  -0x2c(%ebp)
   15fac:	ff 75 d0             	pushl  -0x30(%ebp)
   15faf:	57                   	push   %edi
   15fb0:	56                   	push   %esi
   15fb1:	53                   	push   %ebx
   15fb2:	52                   	push   %edx
   15fb3:	50                   	push   %eax
   15fb4:	68 cc 78 01 00       	push   $0x178cc
   15fb9:	e8 f2 b5 ff ff       	call   115b0 <__cio_printf>
   15fbe:	83 c4 30             	add    $0x30,%esp
   15fc1:	ba 00 bf 01 00       	mov    $0x1bf00,%edx
   15fc6:	a1 e4 be 01 00       	mov    0x1bee4,%eax
   15fcb:	83 c0 04             	add    $0x4,%eax
   15fce:	83 ec 08             	sub    $0x8,%esp
   15fd1:	52                   	push   %edx
   15fd2:	50                   	push   %eax
   15fd3:	e8 13 01 00 00       	call   160eb <__outl>
   15fd8:	83 c4 10             	add    $0x10,%esp
   15fdb:	83 ec 0c             	sub    $0xc,%esp
   15fde:	68 00 bf 01 00       	push   $0x1bf00
   15fe3:	e8 c9 fe ff ff       	call   15eb1 <__eth_CU_start>
   15fe8:	83 c4 10             	add    $0x10,%esp
   15feb:	90                   	nop
   15fec:	8d 65 f4             	lea    -0xc(%ebp),%esp
   15fef:	5b                   	pop    %ebx
   15ff0:	5e                   	pop    %esi
   15ff1:	5f                   	pop    %edi
   15ff2:	5d                   	pop    %ebp
   15ff3:	c3                   	ret    

00015ff4 <__pci_test>:
   15ff4:	55                   	push   %ebp
   15ff5:	89 e5                	mov    %esp,%ebp
   15ff7:	83 ec 18             	sub    $0x18,%esp
   15ffa:	c7 45 f4 00 00 00 00 	movl   $0x0,-0xc(%ebp)
   16001:	e9 9a 00 00 00       	jmp    160a0 <__pci_test+0xac>
   16006:	c7 45 f0 00 00 00 00 	movl   $0x0,-0x10(%ebp)
   1600d:	e9 80 00 00 00       	jmp    16092 <__pci_test+0x9e>
   16012:	8b 45 f0             	mov    -0x10(%ebp),%eax
   16015:	0f b6 d0             	movzbl %al,%edx
   16018:	8b 45 f4             	mov    -0xc(%ebp),%eax
   1601b:	0f b6 c0             	movzbl %al,%eax
   1601e:	6a 00                	push   $0x0
   16020:	6a 00                	push   $0x0
   16022:	52                   	push   %edx
   16023:	50                   	push   %eax
   16024:	e8 64 f7 ff ff       	call   1578d <__pci_read16>
   16029:	83 c4 10             	add    $0x10,%esp
   1602c:	66 89 45 ee          	mov    %ax,-0x12(%ebp)
   16030:	8b 45 f0             	mov    -0x10(%ebp),%eax
   16033:	0f b6 d0             	movzbl %al,%edx
   16036:	8b 45 f4             	mov    -0xc(%ebp),%eax
   16039:	0f b6 c0             	movzbl %al,%eax
   1603c:	6a 02                	push   $0x2
   1603e:	6a 00                	push   $0x0
   16040:	52                   	push   %edx
   16041:	50                   	push   %eax
   16042:	e8 46 f7 ff ff       	call   1578d <__pci_read16>
   16047:	83 c4 10             	add    $0x10,%esp
   1604a:	66 89 45 ec          	mov    %ax,-0x14(%ebp)
   1604e:	8b 45 f0             	mov    -0x10(%ebp),%eax
   16051:	0f b6 d0             	movzbl %al,%edx
   16054:	8b 45 f4             	mov    -0xc(%ebp),%eax
   16057:	0f b6 c0             	movzbl %al,%eax
   1605a:	6a 3c                	push   $0x3c
   1605c:	6a 00                	push   $0x0
   1605e:	52                   	push   %edx
   1605f:	50                   	push   %eax
   16060:	e8 5a f8 ff ff       	call   158bf <__pci_read8>
   16065:	83 c4 10             	add    $0x10,%esp
   16068:	88 45 eb             	mov    %al,-0x15(%ebp)
   1606b:	66 83 7d ee ff       	cmpw   $0xffff,-0x12(%ebp)
   16070:	74 1c                	je     1608e <__pci_test+0x9a>
   16072:	0f b6 4d eb          	movzbl -0x15(%ebp),%ecx
   16076:	0f b7 55 ec          	movzwl -0x14(%ebp),%edx
   1607a:	0f b7 45 ee          	movzwl -0x12(%ebp),%eax
   1607e:	51                   	push   %ecx
   1607f:	52                   	push   %edx
   16080:	50                   	push   %eax
   16081:	68 03 79 01 00       	push   $0x17903
   16086:	e8 25 b5 ff ff       	call   115b0 <__cio_printf>
   1608b:	83 c4 10             	add    $0x10,%esp
   1608e:	83 45 f0 01          	addl   $0x1,-0x10(%ebp)
   16092:	83 7d f0 1f          	cmpl   $0x1f,-0x10(%ebp)
   16096:	0f 8e 76 ff ff ff    	jle    16012 <__pci_test+0x1e>
   1609c:	83 45 f4 01          	addl   $0x1,-0xc(%ebp)
   160a0:	81 7d f4 ff 00 00 00 	cmpl   $0xff,-0xc(%ebp)
   160a7:	0f 8e 59 ff ff ff    	jle    16006 <__pci_test+0x12>
   160ad:	90                   	nop
   160ae:	c9                   	leave  
   160af:	c3                   	ret    

000160b0 <__inb>:
   160b0:	55                   	push   %ebp
   160b1:	89 e5                	mov    %esp,%ebp
   160b3:	31 c0                	xor    %eax,%eax
   160b5:	8b 55 08             	mov    0x8(%ebp),%edx
   160b8:	ec                   	in     (%dx),%al
   160b9:	5d                   	pop    %ebp
   160ba:	c3                   	ret    

000160bb <__inw>:
   160bb:	55                   	push   %ebp
   160bc:	89 e5                	mov    %esp,%ebp
   160be:	31 c0                	xor    %eax,%eax
   160c0:	8b 55 08             	mov    0x8(%ebp),%edx
   160c3:	66 ed                	in     (%dx),%ax
   160c5:	5d                   	pop    %ebp
   160c6:	c3                   	ret    

000160c7 <__inl>:
   160c7:	55                   	push   %ebp
   160c8:	89 e5                	mov    %esp,%ebp
   160ca:	31 c0                	xor    %eax,%eax
   160cc:	8b 55 08             	mov    0x8(%ebp),%edx
   160cf:	ed                   	in     (%dx),%eax
   160d0:	5d                   	pop    %ebp
   160d1:	c3                   	ret    

000160d2 <__outb>:
   160d2:	55                   	push   %ebp
   160d3:	89 e5                	mov    %esp,%ebp
   160d5:	8b 55 08             	mov    0x8(%ebp),%edx
   160d8:	8b 45 0c             	mov    0xc(%ebp),%eax
   160db:	ee                   	out    %al,(%dx)
   160dc:	5d                   	pop    %ebp
   160dd:	c3                   	ret    

000160de <__outw>:
   160de:	55                   	push   %ebp
   160df:	89 e5                	mov    %esp,%ebp
   160e1:	8b 55 08             	mov    0x8(%ebp),%edx
   160e4:	8b 45 0c             	mov    0xc(%ebp),%eax
   160e7:	66 ef                	out    %ax,(%dx)
   160e9:	5d                   	pop    %ebp
   160ea:	c3                   	ret    

000160eb <__outl>:
   160eb:	55                   	push   %ebp
   160ec:	89 e5                	mov    %esp,%ebp
   160ee:	8b 55 08             	mov    0x8(%ebp),%edx
   160f1:	8b 45 0c             	mov    0xc(%ebp),%eax
   160f4:	ef                   	out    %eax,(%dx)
   160f5:	5d                   	pop    %ebp
   160f6:	c3                   	ret    

000160f7 <__get_flags>:
   160f7:	9c                   	pushf  
   160f8:	58                   	pop    %eax
   160f9:	c3                   	ret    

000160fa <__pause>:
   160fa:	55                   	push   %ebp
   160fb:	89 e5                	mov    %esp,%ebp
   160fd:	fb                   	sti    
   160fe:	f4                   	hlt    
   160ff:	5d                   	pop    %ebp
   16100:	c3                   	ret    

00016101 <__get_ra>:
   16101:	8b 45 04             	mov    0x4(%ebp),%eax
   16104:	c3                   	ret    

00016105 <init>:
   16105:	55                   	push   %ebp
   16106:	89 e5                	mov    %esp,%ebp
   16108:	81 ec 98 00 00 00    	sub    $0x98,%esp
   1610e:	c6 45 f3 2b          	movb   $0x2b,-0xd(%ebp)
   16112:	a1 b0 b6 01 00       	mov    0x1b6b0,%eax
   16117:	85 c0                	test   %eax,%eax
   16119:	7e 12                	jle    1612d <init+0x28>
   1611b:	83 ec 0c             	sub    $0xc,%esp
   1611e:	68 20 79 01 00       	push   $0x17920
   16123:	e8 bb 01 00 00       	call   162e3 <cwrites>
   16128:	83 c4 10             	add    $0x10,%esp
   1612b:	eb fe                	jmp    1612b <init+0x26>
   1612d:	83 ec 0c             	sub    $0xc,%esp
   16130:	68 33 79 01 00       	push   $0x17933
   16135:	e8 a9 01 00 00       	call   162e3 <cwrites>
   1613a:	83 c4 10             	add    $0x10,%esp
   1613d:	a1 b0 b6 01 00       	mov    0x1b6b0,%eax
   16142:	83 c0 01             	add    $0x1,%eax
   16145:	a3 b0 b6 01 00       	mov    %eax,0x1b6b0
   1614a:	83 ec 0c             	sub    $0xc,%esp
   1614d:	6a 1a                	push   $0x1a
   1614f:	e8 d7 01 00 00       	call   1632b <swritech>
   16154:	83 c4 10             	add    $0x10,%esp
   16157:	c7 45 f4 00 00 00 00 	movl   $0x0,-0xc(%ebp)
   1615e:	eb 04                	jmp    16164 <init+0x5f>
   16160:	83 45 f4 01          	addl   $0x1,-0xc(%ebp)
   16164:	81 7d f4 9f 25 26 00 	cmpl   $0x26259f,-0xc(%ebp)
   1616b:	7e f3                	jle    16160 <init+0x5b>
   1616d:	83 ec 0c             	sub    $0xc,%esp
   16170:	68 44 79 01 00       	push   $0x17944
   16175:	e8 d2 01 00 00       	call   1634c <swrites>
   1617a:	83 c4 10             	add    $0x10,%esp
   1617d:	6a 00                	push   $0x0
   1617f:	6a 2e                	push   $0x2e
   16181:	6a 03                	push   $0x3
   16183:	68 2e 62 01 00       	push   $0x1622e
   16188:	e8 b5 08 00 00       	call   16a42 <spawn>
   1618d:	83 c4 10             	add    $0x10,%esp
   16190:	66 89 45 f0          	mov    %ax,-0x10(%ebp)
   16194:	66 83 7d f0 00       	cmpw   $0x0,-0x10(%ebp)
   16199:	79 10                	jns    161ab <init+0xa6>
   1619b:	83 ec 0c             	sub    $0xc,%esp
   1619e:	68 6c 79 01 00       	push   $0x1796c
   161a3:	e8 3b 01 00 00       	call   162e3 <cwrites>
   161a8:	83 c4 10             	add    $0x10,%esp
   161ab:	83 ec 0c             	sub    $0xc,%esp
   161ae:	68 8d 79 01 00       	push   $0x1798d
   161b3:	e8 94 01 00 00       	call   1634c <swrites>
   161b8:	83 c4 10             	add    $0x10,%esp
   161bb:	83 ec 0c             	sub    $0xc,%esp
   161be:	68 94 79 01 00       	push   $0x17994
   161c3:	e8 1b 01 00 00       	call   162e3 <cwrites>
   161c8:	83 c4 10             	add    $0x10,%esp
   161cb:	83 ec 0c             	sub    $0xc,%esp
   161ce:	8d 85 68 ff ff ff    	lea    -0x98(%ebp),%eax
   161d4:	50                   	push   %eax
   161d5:	e8 70 08 00 00       	call   16a4a <wait>
   161da:	83 c4 10             	add    $0x10,%esp
   161dd:	66 89 45 ee          	mov    %ax,-0x12(%ebp)
   161e1:	66 83 7d ee f6       	cmpw   $0xfff6,-0x12(%ebp)
   161e6:	75 12                	jne    161fa <init+0xf5>
   161e8:	83 ec 0c             	sub    $0xc,%esp
   161eb:	68 bc 79 01 00       	push   $0x179bc
   161f0:	e8 ee 00 00 00       	call   162e3 <cwrites>
   161f5:	83 c4 10             	add    $0x10,%esp
   161f8:	eb d1                	jmp    161cb <init+0xc6>
   161fa:	8b 95 68 ff ff ff    	mov    -0x98(%ebp),%edx
   16200:	0f bf 45 ee          	movswl -0x12(%ebp),%eax
   16204:	52                   	push   %edx
   16205:	50                   	push   %eax
   16206:	68 e0 79 01 00       	push   $0x179e0
   1620b:	8d 85 6e ff ff ff    	lea    -0x92(%ebp),%eax
   16211:	50                   	push   %eax
   16212:	e8 5d 03 00 00       	call   16574 <sprint>
   16217:	83 c4 10             	add    $0x10,%esp
   1621a:	83 ec 0c             	sub    $0xc,%esp
   1621d:	8d 85 6e ff ff ff    	lea    -0x92(%ebp),%eax
   16223:	50                   	push   %eax
   16224:	e8 ba 00 00 00       	call   162e3 <cwrites>
   16229:	83 c4 10             	add    $0x10,%esp
   1622c:	eb 9d                	jmp    161cb <init+0xc6>

0001622e <idle>:
   1622e:	55                   	push   %ebp
   1622f:	89 e5                	mov    %esp,%ebp
   16231:	81 ec 98 00 00 00    	sub    $0x98,%esp
   16237:	c6 85 6b ff ff ff 2e 	movb   $0x2e,-0x95(%ebp)
   1623e:	e8 c7 07 00 00       	call   16a0a <getpid>
   16243:	66 89 45 f2          	mov    %ax,-0xe(%ebp)
   16247:	e8 ce 07 00 00       	call   16a1a <gettime>
   1624c:	89 45 ec             	mov    %eax,-0x14(%ebp)
   1624f:	8b 55 ec             	mov    -0x14(%ebp),%edx
   16252:	0f bf 45 f2          	movswl -0xe(%ebp),%eax
   16256:	52                   	push   %edx
   16257:	50                   	push   %eax
   16258:	68 00 7a 01 00       	push   $0x17a00
   1625d:	8d 85 6c ff ff ff    	lea    -0x94(%ebp),%eax
   16263:	50                   	push   %eax
   16264:	e8 0b 03 00 00       	call   16574 <sprint>
   16269:	83 c4 10             	add    $0x10,%esp
   1626c:	83 ec 0c             	sub    $0xc,%esp
   1626f:	8d 85 6c ff ff ff    	lea    -0x94(%ebp),%eax
   16275:	50                   	push   %eax
   16276:	e8 68 00 00 00       	call   162e3 <cwrites>
   1627b:	83 c4 10             	add    $0x10,%esp
   1627e:	83 ec 04             	sub    $0x4,%esp
   16281:	6a 01                	push   $0x1
   16283:	8d 85 6b ff ff ff    	lea    -0x95(%ebp),%eax
   16289:	50                   	push   %eax
   1628a:	6a 01                	push   $0x1
   1628c:	e8 71 07 00 00       	call   16a02 <write>
   16291:	83 c4 10             	add    $0x10,%esp
   16294:	c7 45 f4 00 00 00 00 	movl   $0x0,-0xc(%ebp)
   1629b:	eb 04                	jmp    162a1 <idle+0x73>
   1629d:	83 45 f4 01          	addl   $0x1,-0xc(%ebp)
   162a1:	81 7d f4 ff e0 f5 05 	cmpl   $0x5f5e0ff,-0xc(%ebp)
   162a8:	7e f3                	jle    1629d <idle+0x6f>
   162aa:	83 ec 04             	sub    $0x4,%esp
   162ad:	6a 01                	push   $0x1
   162af:	8d 85 6b ff ff ff    	lea    -0x95(%ebp),%eax
   162b5:	50                   	push   %eax
   162b6:	6a 01                	push   $0x1
   162b8:	e8 45 07 00 00       	call   16a02 <write>
   162bd:	83 c4 10             	add    $0x10,%esp
   162c0:	eb d2                	jmp    16294 <idle+0x66>

000162c2 <cwritech>:
   162c2:	55                   	push   %ebp
   162c3:	89 e5                	mov    %esp,%ebp
   162c5:	83 ec 18             	sub    $0x18,%esp
   162c8:	8b 45 08             	mov    0x8(%ebp),%eax
   162cb:	88 45 f4             	mov    %al,-0xc(%ebp)
   162ce:	83 ec 04             	sub    $0x4,%esp
   162d1:	6a 01                	push   $0x1
   162d3:	8d 45 f4             	lea    -0xc(%ebp),%eax
   162d6:	50                   	push   %eax
   162d7:	6a 00                	push   $0x0
   162d9:	e8 24 07 00 00       	call   16a02 <write>
   162de:	83 c4 10             	add    $0x10,%esp
   162e1:	c9                   	leave  
   162e2:	c3                   	ret    

000162e3 <cwrites>:
   162e3:	55                   	push   %ebp
   162e4:	89 e5                	mov    %esp,%ebp
   162e6:	83 ec 18             	sub    $0x18,%esp
   162e9:	83 ec 0c             	sub    $0xc,%esp
   162ec:	ff 75 08             	pushl  0x8(%ebp)
   162ef:	e8 12 01 00 00       	call   16406 <strlen>
   162f4:	83 c4 10             	add    $0x10,%esp
   162f7:	89 45 f4             	mov    %eax,-0xc(%ebp)
   162fa:	8b 45 f4             	mov    -0xc(%ebp),%eax
   162fd:	83 ec 04             	sub    $0x4,%esp
   16300:	50                   	push   %eax
   16301:	ff 75 08             	pushl  0x8(%ebp)
   16304:	6a 00                	push   $0x0
   16306:	e8 f7 06 00 00       	call   16a02 <write>
   1630b:	83 c4 10             	add    $0x10,%esp
   1630e:	c9                   	leave  
   1630f:	c3                   	ret    

00016310 <cwrite>:
   16310:	55                   	push   %ebp
   16311:	89 e5                	mov    %esp,%ebp
   16313:	83 ec 08             	sub    $0x8,%esp
   16316:	83 ec 04             	sub    $0x4,%esp
   16319:	ff 75 0c             	pushl  0xc(%ebp)
   1631c:	ff 75 08             	pushl  0x8(%ebp)
   1631f:	6a 00                	push   $0x0
   16321:	e8 dc 06 00 00       	call   16a02 <write>
   16326:	83 c4 10             	add    $0x10,%esp
   16329:	c9                   	leave  
   1632a:	c3                   	ret    

0001632b <swritech>:
   1632b:	55                   	push   %ebp
   1632c:	89 e5                	mov    %esp,%ebp
   1632e:	83 ec 18             	sub    $0x18,%esp
   16331:	8b 45 08             	mov    0x8(%ebp),%eax
   16334:	88 45 f4             	mov    %al,-0xc(%ebp)
   16337:	83 ec 04             	sub    $0x4,%esp
   1633a:	6a 01                	push   $0x1
   1633c:	8d 45 f4             	lea    -0xc(%ebp),%eax
   1633f:	50                   	push   %eax
   16340:	6a 01                	push   $0x1
   16342:	e8 bb 06 00 00       	call   16a02 <write>
   16347:	83 c4 10             	add    $0x10,%esp
   1634a:	c9                   	leave  
   1634b:	c3                   	ret    

0001634c <swrites>:
   1634c:	55                   	push   %ebp
   1634d:	89 e5                	mov    %esp,%ebp
   1634f:	83 ec 18             	sub    $0x18,%esp
   16352:	83 ec 0c             	sub    $0xc,%esp
   16355:	ff 75 08             	pushl  0x8(%ebp)
   16358:	e8 a9 00 00 00       	call   16406 <strlen>
   1635d:	83 c4 10             	add    $0x10,%esp
   16360:	89 45 f4             	mov    %eax,-0xc(%ebp)
   16363:	8b 45 f4             	mov    -0xc(%ebp),%eax
   16366:	83 ec 04             	sub    $0x4,%esp
   16369:	50                   	push   %eax
   1636a:	ff 75 08             	pushl  0x8(%ebp)
   1636d:	6a 01                	push   $0x1
   1636f:	e8 8e 06 00 00       	call   16a02 <write>
   16374:	83 c4 10             	add    $0x10,%esp
   16377:	c9                   	leave  
   16378:	c3                   	ret    

00016379 <swrite>:
   16379:	55                   	push   %ebp
   1637a:	89 e5                	mov    %esp,%ebp
   1637c:	83 ec 08             	sub    $0x8,%esp
   1637f:	83 ec 04             	sub    $0x4,%esp
   16382:	ff 75 0c             	pushl  0xc(%ebp)
   16385:	ff 75 08             	pushl  0x8(%ebp)
   16388:	6a 01                	push   $0x1
   1638a:	e8 73 06 00 00       	call   16a02 <write>
   1638f:	83 c4 10             	add    $0x10,%esp
   16392:	c9                   	leave  
   16393:	c3                   	ret    

00016394 <str2int>:
   16394:	55                   	push   %ebp
   16395:	89 e5                	mov    %esp,%ebp
   16397:	53                   	push   %ebx
   16398:	83 ec 14             	sub    $0x14,%esp
   1639b:	8b 45 08             	mov    0x8(%ebp),%eax
   1639e:	8b 4d 0c             	mov    0xc(%ebp),%ecx
   163a1:	bb 00 00 00 00       	mov    $0x0,%ebx
   163a6:	c6 45 eb 39          	movb   $0x39,-0x15(%ebp)
   163aa:	c7 45 f8 01 00 00 00 	movl   $0x1,-0x8(%ebp)
   163b1:	0f b6 10             	movzbl (%eax),%edx
   163b4:	80 fa 2d             	cmp    $0x2d,%dl
   163b7:	75 0a                	jne    163c3 <str2int+0x2f>
   163b9:	c7 45 f8 ff ff ff ff 	movl   $0xffffffff,-0x8(%ebp)
   163c0:	83 c0 01             	add    $0x1,%eax
   163c3:	83 f9 0a             	cmp    $0xa,%ecx
   163c6:	74 2b                	je     163f3 <str2int+0x5f>
   163c8:	89 ca                	mov    %ecx,%edx
   163ca:	83 c2 2f             	add    $0x2f,%edx
   163cd:	88 55 eb             	mov    %dl,-0x15(%ebp)
   163d0:	eb 21                	jmp    163f3 <str2int+0x5f>
   163d2:	0f b6 10             	movzbl (%eax),%edx
   163d5:	80 fa 2f             	cmp    $0x2f,%dl
   163d8:	7e 20                	jle    163fa <str2int+0x66>
   163da:	0f b6 10             	movzbl (%eax),%edx
   163dd:	38 55 eb             	cmp    %dl,-0x15(%ebp)
   163e0:	7c 18                	jl     163fa <str2int+0x66>
   163e2:	0f af d9             	imul   %ecx,%ebx
   163e5:	0f b6 10             	movzbl (%eax),%edx
   163e8:	0f be d2             	movsbl %dl,%edx
   163eb:	01 da                	add    %ebx,%edx
   163ed:	8d 5a d0             	lea    -0x30(%edx),%ebx
   163f0:	83 c0 01             	add    $0x1,%eax
   163f3:	0f b6 10             	movzbl (%eax),%edx
   163f6:	84 d2                	test   %dl,%dl
   163f8:	75 d8                	jne    163d2 <str2int+0x3e>
   163fa:	89 d8                	mov    %ebx,%eax
   163fc:	0f af 45 f8          	imul   -0x8(%ebp),%eax
   16400:	83 c4 14             	add    $0x14,%esp
   16403:	5b                   	pop    %ebx
   16404:	5d                   	pop    %ebp
   16405:	c3                   	ret    

00016406 <strlen>:
   16406:	55                   	push   %ebp
   16407:	89 e5                	mov    %esp,%ebp
   16409:	53                   	push   %ebx
   1640a:	8b 55 08             	mov    0x8(%ebp),%edx
   1640d:	bb 00 00 00 00       	mov    $0x0,%ebx
   16412:	eb 03                	jmp    16417 <strlen+0x11>
   16414:	83 c3 01             	add    $0x1,%ebx
   16417:	89 d0                	mov    %edx,%eax
   16419:	8d 50 01             	lea    0x1(%eax),%edx
   1641c:	0f b6 00             	movzbl (%eax),%eax
   1641f:	84 c0                	test   %al,%al
   16421:	75 f1                	jne    16414 <strlen+0xe>
   16423:	89 d8                	mov    %ebx,%eax
   16425:	5b                   	pop    %ebx
   16426:	5d                   	pop    %ebp
   16427:	c3                   	ret    

00016428 <strcpy>:
   16428:	55                   	push   %ebp
   16429:	89 e5                	mov    %esp,%ebp
   1642b:	56                   	push   %esi
   1642c:	53                   	push   %ebx
   1642d:	8b 4d 08             	mov    0x8(%ebp),%ecx
   16430:	8b 75 0c             	mov    0xc(%ebp),%esi
   16433:	89 cb                	mov    %ecx,%ebx
   16435:	90                   	nop
   16436:	89 f2                	mov    %esi,%edx
   16438:	8d 72 01             	lea    0x1(%edx),%esi
   1643b:	89 c8                	mov    %ecx,%eax
   1643d:	8d 48 01             	lea    0x1(%eax),%ecx
   16440:	0f b6 12             	movzbl (%edx),%edx
   16443:	88 10                	mov    %dl,(%eax)
   16445:	0f b6 00             	movzbl (%eax),%eax
   16448:	84 c0                	test   %al,%al
   1644a:	75 ea                	jne    16436 <strcpy+0xe>
   1644c:	89 d8                	mov    %ebx,%eax
   1644e:	5b                   	pop    %ebx
   1644f:	5e                   	pop    %esi
   16450:	5d                   	pop    %ebp
   16451:	c3                   	ret    

00016452 <strcat>:
   16452:	55                   	push   %ebp
   16453:	89 e5                	mov    %esp,%ebp
   16455:	56                   	push   %esi
   16456:	53                   	push   %ebx
   16457:	8b 45 08             	mov    0x8(%ebp),%eax
   1645a:	8b 75 0c             	mov    0xc(%ebp),%esi
   1645d:	89 c3                	mov    %eax,%ebx
   1645f:	eb 03                	jmp    16464 <strcat+0x12>
   16461:	83 c0 01             	add    $0x1,%eax
   16464:	0f b6 10             	movzbl (%eax),%edx
   16467:	84 d2                	test   %dl,%dl
   16469:	75 f6                	jne    16461 <strcat+0xf>
   1646b:	90                   	nop
   1646c:	89 f1                	mov    %esi,%ecx
   1646e:	8d 71 01             	lea    0x1(%ecx),%esi
   16471:	89 c2                	mov    %eax,%edx
   16473:	8d 42 01             	lea    0x1(%edx),%eax
   16476:	0f b6 09             	movzbl (%ecx),%ecx
   16479:	88 0a                	mov    %cl,(%edx)
   1647b:	0f b6 12             	movzbl (%edx),%edx
   1647e:	84 d2                	test   %dl,%dl
   16480:	75 ea                	jne    1646c <strcat+0x1a>
   16482:	89 d8                	mov    %ebx,%eax
   16484:	5b                   	pop    %ebx
   16485:	5e                   	pop    %esi
   16486:	5d                   	pop    %ebp
   16487:	c3                   	ret    

00016488 <strcmp>:
   16488:	55                   	push   %ebp
   16489:	89 e5                	mov    %esp,%ebp
   1648b:	53                   	push   %ebx
   1648c:	8b 45 08             	mov    0x8(%ebp),%eax
   1648f:	8b 55 0c             	mov    0xc(%ebp),%edx
   16492:	eb 06                	jmp    1649a <strcmp+0x12>
   16494:	83 c0 01             	add    $0x1,%eax
   16497:	83 c2 01             	add    $0x1,%edx
   1649a:	0f b6 08             	movzbl (%eax),%ecx
   1649d:	84 c9                	test   %cl,%cl
   1649f:	74 0a                	je     164ab <strcmp+0x23>
   164a1:	0f b6 18             	movzbl (%eax),%ebx
   164a4:	0f b6 0a             	movzbl (%edx),%ecx
   164a7:	38 cb                	cmp    %cl,%bl
   164a9:	74 e9                	je     16494 <strcmp+0xc>
   164ab:	0f b6 00             	movzbl (%eax),%eax
   164ae:	0f b6 c8             	movzbl %al,%ecx
   164b1:	0f b6 02             	movzbl (%edx),%eax
   164b4:	0f b6 c0             	movzbl %al,%eax
   164b7:	29 c1                	sub    %eax,%ecx
   164b9:	89 c8                	mov    %ecx,%eax
   164bb:	5b                   	pop    %ebx
   164bc:	5d                   	pop    %ebp
   164bd:	c3                   	ret    

000164be <pad>:
   164be:	55                   	push   %ebp
   164bf:	89 e5                	mov    %esp,%ebp
   164c1:	eb 12                	jmp    164d5 <pad+0x17>
   164c3:	8b 45 08             	mov    0x8(%ebp),%eax
   164c6:	8d 50 01             	lea    0x1(%eax),%edx
   164c9:	89 55 08             	mov    %edx,0x8(%ebp)
   164cc:	8b 55 10             	mov    0x10(%ebp),%edx
   164cf:	88 10                	mov    %dl,(%eax)
   164d1:	83 6d 0c 01          	subl   $0x1,0xc(%ebp)
   164d5:	83 7d 0c 00          	cmpl   $0x0,0xc(%ebp)
   164d9:	7f e8                	jg     164c3 <pad+0x5>
   164db:	8b 45 08             	mov    0x8(%ebp),%eax
   164de:	5d                   	pop    %ebp
   164df:	c3                   	ret    

000164e0 <padstr>:
   164e0:	55                   	push   %ebp
   164e1:	89 e5                	mov    %esp,%ebp
   164e3:	83 ec 10             	sub    $0x10,%esp
   164e6:	83 7d 10 00          	cmpl   $0x0,0x10(%ebp)
   164ea:	79 0e                	jns    164fa <padstr+0x1a>
   164ec:	ff 75 0c             	pushl  0xc(%ebp)
   164ef:	e8 12 ff ff ff       	call   16406 <strlen>
   164f4:	83 c4 04             	add    $0x4,%esp
   164f7:	89 45 10             	mov    %eax,0x10(%ebp)
   164fa:	8b 45 14             	mov    0x14(%ebp),%eax
   164fd:	2b 45 10             	sub    0x10(%ebp),%eax
   16500:	89 45 f8             	mov    %eax,-0x8(%ebp)
   16503:	83 7d f8 00          	cmpl   $0x0,-0x8(%ebp)
   16507:	7e 1a                	jle    16523 <padstr+0x43>
   16509:	83 7d 18 00          	cmpl   $0x0,0x18(%ebp)
   1650d:	75 14                	jne    16523 <padstr+0x43>
   1650f:	ff 75 1c             	pushl  0x1c(%ebp)
   16512:	ff 75 f8             	pushl  -0x8(%ebp)
   16515:	ff 75 08             	pushl  0x8(%ebp)
   16518:	e8 a1 ff ff ff       	call   164be <pad>
   1651d:	83 c4 0c             	add    $0xc,%esp
   16520:	89 45 08             	mov    %eax,0x8(%ebp)
   16523:	c7 45 fc 00 00 00 00 	movl   $0x0,-0x4(%ebp)
   1652a:	eb 1b                	jmp    16547 <padstr+0x67>
   1652c:	8b 55 fc             	mov    -0x4(%ebp),%edx
   1652f:	8b 45 0c             	mov    0xc(%ebp),%eax
   16532:	8d 0c 02             	lea    (%edx,%eax,1),%ecx
   16535:	8b 45 08             	mov    0x8(%ebp),%eax
   16538:	8d 50 01             	lea    0x1(%eax),%edx
   1653b:	89 55 08             	mov    %edx,0x8(%ebp)
   1653e:	0f b6 11             	movzbl (%ecx),%edx
   16541:	88 10                	mov    %dl,(%eax)
   16543:	83 45 fc 01          	addl   $0x1,-0x4(%ebp)
   16547:	8b 45 fc             	mov    -0x4(%ebp),%eax
   1654a:	3b 45 10             	cmp    0x10(%ebp),%eax
   1654d:	7c dd                	jl     1652c <padstr+0x4c>
   1654f:	83 7d f8 00          	cmpl   $0x0,-0x8(%ebp)
   16553:	7e 1a                	jle    1656f <padstr+0x8f>
   16555:	83 7d 18 00          	cmpl   $0x0,0x18(%ebp)
   16559:	74 14                	je     1656f <padstr+0x8f>
   1655b:	ff 75 1c             	pushl  0x1c(%ebp)
   1655e:	ff 75 f8             	pushl  -0x8(%ebp)
   16561:	ff 75 08             	pushl  0x8(%ebp)
   16564:	e8 55 ff ff ff       	call   164be <pad>
   16569:	83 c4 0c             	add    $0xc,%esp
   1656c:	89 45 08             	mov    %eax,0x8(%ebp)
   1656f:	8b 45 08             	mov    0x8(%ebp),%eax
   16572:	c9                   	leave  
   16573:	c3                   	ret    

00016574 <sprint>:
   16574:	55                   	push   %ebp
   16575:	89 e5                	mov    %esp,%ebp
   16577:	83 ec 38             	sub    $0x38,%esp
   1657a:	8d 45 0c             	lea    0xc(%ebp),%eax
   1657d:	83 c0 04             	add    $0x4,%eax
   16580:	89 45 f4             	mov    %eax,-0xc(%ebp)
   16583:	e9 fb 01 00 00       	jmp    16783 <sprint+0x20f>
   16588:	80 7d f3 25          	cmpb   $0x25,-0xd(%ebp)
   1658c:	0f 85 e2 01 00 00    	jne    16774 <sprint+0x200>
   16592:	c7 45 ec 00 00 00 00 	movl   $0x0,-0x14(%ebp)
   16599:	c7 45 e4 20 00 00 00 	movl   $0x20,-0x1c(%ebp)
   165a0:	c7 45 e8 00 00 00 00 	movl   $0x0,-0x18(%ebp)
   165a7:	8b 45 0c             	mov    0xc(%ebp),%eax
   165aa:	8d 50 01             	lea    0x1(%eax),%edx
   165ad:	89 55 0c             	mov    %edx,0xc(%ebp)
   165b0:	0f b6 00             	movzbl (%eax),%eax
   165b3:	88 45 f3             	mov    %al,-0xd(%ebp)
   165b6:	80 7d f3 2d          	cmpb   $0x2d,-0xd(%ebp)
   165ba:	75 16                	jne    165d2 <sprint+0x5e>
   165bc:	c7 45 ec 01 00 00 00 	movl   $0x1,-0x14(%ebp)
   165c3:	8b 45 0c             	mov    0xc(%ebp),%eax
   165c6:	8d 50 01             	lea    0x1(%eax),%edx
   165c9:	89 55 0c             	mov    %edx,0xc(%ebp)
   165cc:	0f b6 00             	movzbl (%eax),%eax
   165cf:	88 45 f3             	mov    %al,-0xd(%ebp)
   165d2:	80 7d f3 30          	cmpb   $0x30,-0xd(%ebp)
   165d6:	75 40                	jne    16618 <sprint+0xa4>
   165d8:	c7 45 e4 30 00 00 00 	movl   $0x30,-0x1c(%ebp)
   165df:	8b 45 0c             	mov    0xc(%ebp),%eax
   165e2:	8d 50 01             	lea    0x1(%eax),%edx
   165e5:	89 55 0c             	mov    %edx,0xc(%ebp)
   165e8:	0f b6 00             	movzbl (%eax),%eax
   165eb:	88 45 f3             	mov    %al,-0xd(%ebp)
   165ee:	eb 28                	jmp    16618 <sprint+0xa4>
   165f0:	8b 55 e8             	mov    -0x18(%ebp),%edx
   165f3:	89 d0                	mov    %edx,%eax
   165f5:	c1 e0 02             	shl    $0x2,%eax
   165f8:	01 d0                	add    %edx,%eax
   165fa:	01 c0                	add    %eax,%eax
   165fc:	89 45 e8             	mov    %eax,-0x18(%ebp)
   165ff:	0f be 45 f3          	movsbl -0xd(%ebp),%eax
   16603:	83 e8 30             	sub    $0x30,%eax
   16606:	01 45 e8             	add    %eax,-0x18(%ebp)
   16609:	8b 45 0c             	mov    0xc(%ebp),%eax
   1660c:	8d 50 01             	lea    0x1(%eax),%edx
   1660f:	89 55 0c             	mov    %edx,0xc(%ebp)
   16612:	0f b6 00             	movzbl (%eax),%eax
   16615:	88 45 f3             	mov    %al,-0xd(%ebp)
   16618:	80 7d f3 2f          	cmpb   $0x2f,-0xd(%ebp)
   1661c:	7e 06                	jle    16624 <sprint+0xb0>
   1661e:	80 7d f3 39          	cmpb   $0x39,-0xd(%ebp)
   16622:	7e cc                	jle    165f0 <sprint+0x7c>
   16624:	0f be 45 f3          	movsbl -0xd(%ebp),%eax
   16628:	83 e8 63             	sub    $0x63,%eax
   1662b:	83 f8 15             	cmp    $0x15,%eax
   1662e:	0f 87 4f 01 00 00    	ja     16783 <sprint+0x20f>
   16634:	8b 04 85 1c 7a 01 00 	mov    0x17a1c(,%eax,4),%eax
   1663b:	ff e0                	jmp    *%eax
   1663d:	8b 45 f4             	mov    -0xc(%ebp),%eax
   16640:	8d 50 04             	lea    0x4(%eax),%edx
   16643:	89 55 f4             	mov    %edx,-0xc(%ebp)
   16646:	8b 00                	mov    (%eax),%eax
   16648:	88 45 f3             	mov    %al,-0xd(%ebp)
   1664b:	0f b6 45 f3          	movzbl -0xd(%ebp),%eax
   1664f:	88 45 d0             	mov    %al,-0x30(%ebp)
   16652:	c6 45 d1 00          	movb   $0x0,-0x2f(%ebp)
   16656:	ff 75 e4             	pushl  -0x1c(%ebp)
   16659:	ff 75 ec             	pushl  -0x14(%ebp)
   1665c:	ff 75 e8             	pushl  -0x18(%ebp)
   1665f:	6a 01                	push   $0x1
   16661:	8d 45 d0             	lea    -0x30(%ebp),%eax
   16664:	50                   	push   %eax
   16665:	ff 75 08             	pushl  0x8(%ebp)
   16668:	e8 73 fe ff ff       	call   164e0 <padstr>
   1666d:	83 c4 18             	add    $0x18,%esp
   16670:	89 45 08             	mov    %eax,0x8(%ebp)
   16673:	e9 0b 01 00 00       	jmp    16783 <sprint+0x20f>
   16678:	8b 45 f4             	mov    -0xc(%ebp),%eax
   1667b:	8d 50 04             	lea    0x4(%eax),%edx
   1667e:	89 55 f4             	mov    %edx,-0xc(%ebp)
   16681:	8b 00                	mov    (%eax),%eax
   16683:	83 ec 08             	sub    $0x8,%esp
   16686:	50                   	push   %eax
   16687:	8d 45 d0             	lea    -0x30(%ebp),%eax
   1668a:	50                   	push   %eax
   1668b:	e8 9e 01 00 00       	call   1682e <cvt_dec>
   16690:	83 c4 10             	add    $0x10,%esp
   16693:	89 45 e0             	mov    %eax,-0x20(%ebp)
   16696:	83 ec 08             	sub    $0x8,%esp
   16699:	ff 75 e4             	pushl  -0x1c(%ebp)
   1669c:	ff 75 ec             	pushl  -0x14(%ebp)
   1669f:	ff 75 e8             	pushl  -0x18(%ebp)
   166a2:	ff 75 e0             	pushl  -0x20(%ebp)
   166a5:	8d 45 d0             	lea    -0x30(%ebp),%eax
   166a8:	50                   	push   %eax
   166a9:	ff 75 08             	pushl  0x8(%ebp)
   166ac:	e8 2f fe ff ff       	call   164e0 <padstr>
   166b1:	83 c4 20             	add    $0x20,%esp
   166b4:	89 45 08             	mov    %eax,0x8(%ebp)
   166b7:	e9 c7 00 00 00       	jmp    16783 <sprint+0x20f>
   166bc:	8b 45 f4             	mov    -0xc(%ebp),%eax
   166bf:	8d 50 04             	lea    0x4(%eax),%edx
   166c2:	89 55 f4             	mov    %edx,-0xc(%ebp)
   166c5:	8b 00                	mov    (%eax),%eax
   166c7:	89 45 dc             	mov    %eax,-0x24(%ebp)
   166ca:	83 ec 08             	sub    $0x8,%esp
   166cd:	ff 75 e4             	pushl  -0x1c(%ebp)
   166d0:	ff 75 ec             	pushl  -0x14(%ebp)
   166d3:	ff 75 e8             	pushl  -0x18(%ebp)
   166d6:	6a ff                	push   $0xffffffff
   166d8:	ff 75 dc             	pushl  -0x24(%ebp)
   166db:	ff 75 08             	pushl  0x8(%ebp)
   166de:	e8 fd fd ff ff       	call   164e0 <padstr>
   166e3:	83 c4 20             	add    $0x20,%esp
   166e6:	89 45 08             	mov    %eax,0x8(%ebp)
   166e9:	e9 95 00 00 00       	jmp    16783 <sprint+0x20f>
   166ee:	8b 45 f4             	mov    -0xc(%ebp),%eax
   166f1:	8d 50 04             	lea    0x4(%eax),%edx
   166f4:	89 55 f4             	mov    %edx,-0xc(%ebp)
   166f7:	8b 00                	mov    (%eax),%eax
   166f9:	83 ec 08             	sub    $0x8,%esp
   166fc:	50                   	push   %eax
   166fd:	8d 45 d0             	lea    -0x30(%ebp),%eax
   16700:	50                   	push   %eax
   16701:	e8 6f 01 00 00       	call   16875 <cvt_hex>
   16706:	83 c4 10             	add    $0x10,%esp
   16709:	83 c0 02             	add    $0x2,%eax
   1670c:	89 45 e0             	mov    %eax,-0x20(%ebp)
   1670f:	83 ec 08             	sub    $0x8,%esp
   16712:	ff 75 e4             	pushl  -0x1c(%ebp)
   16715:	ff 75 ec             	pushl  -0x14(%ebp)
   16718:	ff 75 e8             	pushl  -0x18(%ebp)
   1671b:	ff 75 e0             	pushl  -0x20(%ebp)
   1671e:	8d 45 d0             	lea    -0x30(%ebp),%eax
   16721:	50                   	push   %eax
   16722:	ff 75 08             	pushl  0x8(%ebp)
   16725:	e8 b6 fd ff ff       	call   164e0 <padstr>
   1672a:	83 c4 20             	add    $0x20,%esp
   1672d:	89 45 08             	mov    %eax,0x8(%ebp)
   16730:	eb 51                	jmp    16783 <sprint+0x20f>
   16732:	8b 45 f4             	mov    -0xc(%ebp),%eax
   16735:	8d 50 04             	lea    0x4(%eax),%edx
   16738:	89 55 f4             	mov    %edx,-0xc(%ebp)
   1673b:	8b 00                	mov    (%eax),%eax
   1673d:	83 ec 08             	sub    $0x8,%esp
   16740:	50                   	push   %eax
   16741:	8d 45 d0             	lea    -0x30(%ebp),%eax
   16744:	50                   	push   %eax
   16745:	e8 ba 01 00 00       	call   16904 <cvt_oct>
   1674a:	83 c4 10             	add    $0x10,%esp
   1674d:	89 45 e0             	mov    %eax,-0x20(%ebp)
   16750:	83 ec 08             	sub    $0x8,%esp
   16753:	ff 75 e4             	pushl  -0x1c(%ebp)
   16756:	ff 75 ec             	pushl  -0x14(%ebp)
   16759:	ff 75 e8             	pushl  -0x18(%ebp)
   1675c:	ff 75 e0             	pushl  -0x20(%ebp)
   1675f:	8d 45 d0             	lea    -0x30(%ebp),%eax
   16762:	50                   	push   %eax
   16763:	ff 75 08             	pushl  0x8(%ebp)
   16766:	e8 75 fd ff ff       	call   164e0 <padstr>
   1676b:	83 c4 20             	add    $0x20,%esp
   1676e:	89 45 08             	mov    %eax,0x8(%ebp)
   16771:	90                   	nop
   16772:	eb 0f                	jmp    16783 <sprint+0x20f>
   16774:	8b 45 08             	mov    0x8(%ebp),%eax
   16777:	8d 50 01             	lea    0x1(%eax),%edx
   1677a:	89 55 08             	mov    %edx,0x8(%ebp)
   1677d:	0f b6 55 f3          	movzbl -0xd(%ebp),%edx
   16781:	88 10                	mov    %dl,(%eax)
   16783:	8b 45 0c             	mov    0xc(%ebp),%eax
   16786:	8d 50 01             	lea    0x1(%eax),%edx
   16789:	89 55 0c             	mov    %edx,0xc(%ebp)
   1678c:	0f b6 00             	movzbl (%eax),%eax
   1678f:	88 45 f3             	mov    %al,-0xd(%ebp)
   16792:	80 7d f3 00          	cmpb   $0x0,-0xd(%ebp)
   16796:	0f 85 ec fd ff ff    	jne    16588 <sprint+0x14>
   1679c:	8b 45 08             	mov    0x8(%ebp),%eax
   1679f:	c6 00 00             	movb   $0x0,(%eax)
   167a2:	90                   	nop
   167a3:	c9                   	leave  
   167a4:	c3                   	ret    

000167a5 <cvt_dec0>:
   167a5:	55                   	push   %ebp
   167a6:	89 e5                	mov    %esp,%ebp
   167a8:	83 ec 18             	sub    $0x18,%esp
   167ab:	8b 4d 0c             	mov    0xc(%ebp),%ecx
   167ae:	ba 67 66 66 66       	mov    $0x66666667,%edx
   167b3:	89 c8                	mov    %ecx,%eax
   167b5:	f7 ea                	imul   %edx
   167b7:	c1 fa 02             	sar    $0x2,%edx
   167ba:	89 c8                	mov    %ecx,%eax
   167bc:	c1 f8 1f             	sar    $0x1f,%eax
   167bf:	29 c2                	sub    %eax,%edx
   167c1:	89 d0                	mov    %edx,%eax
   167c3:	89 45 f4             	mov    %eax,-0xc(%ebp)
   167c6:	83 7d f4 00          	cmpl   $0x0,-0xc(%ebp)
   167ca:	79 0e                	jns    167da <cvt_dec0+0x35>
   167cc:	c7 45 f4 cc cc cc 0c 	movl   $0xccccccc,-0xc(%ebp)
   167d3:	c7 45 0c 08 00 00 00 	movl   $0x8,0xc(%ebp)
   167da:	83 7d f4 00          	cmpl   $0x0,-0xc(%ebp)
   167de:	74 14                	je     167f4 <cvt_dec0+0x4f>
   167e0:	83 ec 08             	sub    $0x8,%esp
   167e3:	ff 75 f4             	pushl  -0xc(%ebp)
   167e6:	ff 75 08             	pushl  0x8(%ebp)
   167e9:	e8 b7 ff ff ff       	call   167a5 <cvt_dec0>
   167ee:	83 c4 10             	add    $0x10,%esp
   167f1:	89 45 08             	mov    %eax,0x8(%ebp)
   167f4:	8b 4d 0c             	mov    0xc(%ebp),%ecx
   167f7:	ba 67 66 66 66       	mov    $0x66666667,%edx
   167fc:	89 c8                	mov    %ecx,%eax
   167fe:	f7 ea                	imul   %edx
   16800:	c1 fa 02             	sar    $0x2,%edx
   16803:	89 c8                	mov    %ecx,%eax
   16805:	c1 f8 1f             	sar    $0x1f,%eax
   16808:	29 c2                	sub    %eax,%edx
   1680a:	89 d0                	mov    %edx,%eax
   1680c:	c1 e0 02             	shl    $0x2,%eax
   1680f:	01 d0                	add    %edx,%eax
   16811:	01 c0                	add    %eax,%eax
   16813:	29 c1                	sub    %eax,%ecx
   16815:	89 ca                	mov    %ecx,%edx
   16817:	89 d0                	mov    %edx,%eax
   16819:	8d 48 30             	lea    0x30(%eax),%ecx
   1681c:	8b 45 08             	mov    0x8(%ebp),%eax
   1681f:	8d 50 01             	lea    0x1(%eax),%edx
   16822:	89 55 08             	mov    %edx,0x8(%ebp)
   16825:	89 ca                	mov    %ecx,%edx
   16827:	88 10                	mov    %dl,(%eax)
   16829:	8b 45 08             	mov    0x8(%ebp),%eax
   1682c:	c9                   	leave  
   1682d:	c3                   	ret    

0001682e <cvt_dec>:
   1682e:	55                   	push   %ebp
   1682f:	89 e5                	mov    %esp,%ebp
   16831:	83 ec 18             	sub    $0x18,%esp
   16834:	8b 45 08             	mov    0x8(%ebp),%eax
   16837:	89 45 f4             	mov    %eax,-0xc(%ebp)
   1683a:	83 7d 0c 00          	cmpl   $0x0,0xc(%ebp)
   1683e:	79 0f                	jns    1684f <cvt_dec+0x21>
   16840:	8b 45 f4             	mov    -0xc(%ebp),%eax
   16843:	8d 50 01             	lea    0x1(%eax),%edx
   16846:	89 55 f4             	mov    %edx,-0xc(%ebp)
   16849:	c6 00 2d             	movb   $0x2d,(%eax)
   1684c:	f7 5d 0c             	negl   0xc(%ebp)
   1684f:	83 ec 08             	sub    $0x8,%esp
   16852:	ff 75 0c             	pushl  0xc(%ebp)
   16855:	ff 75 f4             	pushl  -0xc(%ebp)
   16858:	e8 48 ff ff ff       	call   167a5 <cvt_dec0>
   1685d:	83 c4 10             	add    $0x10,%esp
   16860:	89 45 f4             	mov    %eax,-0xc(%ebp)
   16863:	8b 45 f4             	mov    -0xc(%ebp),%eax
   16866:	c6 00 00             	movb   $0x0,(%eax)
   16869:	8b 55 f4             	mov    -0xc(%ebp),%edx
   1686c:	8b 45 08             	mov    0x8(%ebp),%eax
   1686f:	29 c2                	sub    %eax,%edx
   16871:	89 d0                	mov    %edx,%eax
   16873:	c9                   	leave  
   16874:	c3                   	ret    

00016875 <cvt_hex>:
   16875:	55                   	push   %ebp
   16876:	89 e5                	mov    %esp,%ebp
   16878:	83 ec 20             	sub    $0x20,%esp
   1687b:	c7 45 e3 30 31 32 33 	movl   $0x33323130,-0x1d(%ebp)
   16882:	c7 45 e7 34 35 36 37 	movl   $0x37363534,-0x19(%ebp)
   16889:	c7 45 eb 38 39 41 42 	movl   $0x42413938,-0x15(%ebp)
   16890:	c7 45 ef 43 44 45 46 	movl   $0x46454443,-0x11(%ebp)
   16897:	c6 45 f3 00          	movb   $0x0,-0xd(%ebp)
   1689b:	c7 45 fc 00 00 00 00 	movl   $0x0,-0x4(%ebp)
   168a2:	c7 45 f8 00 00 00 00 	movl   $0x0,-0x8(%ebp)
   168a9:	eb 48                	jmp    168f3 <cvt_hex+0x7e>
   168ab:	8b 45 0c             	mov    0xc(%ebp),%eax
   168ae:	25 00 00 00 f0       	and    $0xf0000000,%eax
   168b3:	89 45 f4             	mov    %eax,-0xc(%ebp)
   168b6:	83 7d fc 00          	cmpl   $0x0,-0x4(%ebp)
   168ba:	75 0c                	jne    168c8 <cvt_hex+0x53>
   168bc:	83 7d f4 00          	cmpl   $0x0,-0xc(%ebp)
   168c0:	75 06                	jne    168c8 <cvt_hex+0x53>
   168c2:	83 7d f8 07          	cmpl   $0x7,-0x8(%ebp)
   168c6:	75 23                	jne    168eb <cvt_hex+0x76>
   168c8:	83 45 fc 01          	addl   $0x1,-0x4(%ebp)
   168cc:	8b 45 f4             	mov    -0xc(%ebp),%eax
   168cf:	c1 e8 1c             	shr    $0x1c,%eax
   168d2:	89 45 f4             	mov    %eax,-0xc(%ebp)
   168d5:	8b 45 08             	mov    0x8(%ebp),%eax
   168d8:	8d 50 01             	lea    0x1(%eax),%edx
   168db:	89 55 08             	mov    %edx,0x8(%ebp)
   168de:	8d 4d e3             	lea    -0x1d(%ebp),%ecx
   168e1:	8b 55 f4             	mov    -0xc(%ebp),%edx
   168e4:	01 ca                	add    %ecx,%edx
   168e6:	0f b6 12             	movzbl (%edx),%edx
   168e9:	88 10                	mov    %dl,(%eax)
   168eb:	c1 65 0c 04          	shll   $0x4,0xc(%ebp)
   168ef:	83 45 f8 01          	addl   $0x1,-0x8(%ebp)
   168f3:	83 7d f8 07          	cmpl   $0x7,-0x8(%ebp)
   168f7:	7e b2                	jle    168ab <cvt_hex+0x36>
   168f9:	8b 45 08             	mov    0x8(%ebp),%eax
   168fc:	c6 00 00             	movb   $0x0,(%eax)
   168ff:	8b 45 fc             	mov    -0x4(%ebp),%eax
   16902:	c9                   	leave  
   16903:	c3                   	ret    

00016904 <cvt_oct>:
   16904:	55                   	push   %ebp
   16905:	89 e5                	mov    %esp,%ebp
   16907:	83 ec 10             	sub    $0x10,%esp
   1690a:	c7 45 f8 00 00 00 00 	movl   $0x0,-0x8(%ebp)
   16911:	8b 45 08             	mov    0x8(%ebp),%eax
   16914:	89 45 f4             	mov    %eax,-0xc(%ebp)
   16917:	8b 45 0c             	mov    0xc(%ebp),%eax
   1691a:	25 00 00 00 c0       	and    $0xc0000000,%eax
   1691f:	89 45 f0             	mov    %eax,-0x10(%ebp)
   16922:	c1 7d f0 1e          	sarl   $0x1e,-0x10(%ebp)
   16926:	c7 45 fc 00 00 00 00 	movl   $0x0,-0x4(%ebp)
   1692d:	eb 47                	jmp    16976 <cvt_oct+0x72>
   1692f:	83 7d fc 0a          	cmpl   $0xa,-0x4(%ebp)
   16933:	74 0c                	je     16941 <cvt_oct+0x3d>
   16935:	83 7d f0 00          	cmpl   $0x0,-0x10(%ebp)
   16939:	75 06                	jne    16941 <cvt_oct+0x3d>
   1693b:	83 7d f8 00          	cmpl   $0x0,-0x8(%ebp)
   1693f:	74 1e                	je     1695f <cvt_oct+0x5b>
   16941:	c7 45 f8 01 00 00 00 	movl   $0x1,-0x8(%ebp)
   16948:	83 65 f0 07          	andl   $0x7,-0x10(%ebp)
   1694c:	8b 45 f0             	mov    -0x10(%ebp),%eax
   1694f:	8d 48 30             	lea    0x30(%eax),%ecx
   16952:	8b 45 f4             	mov    -0xc(%ebp),%eax
   16955:	8d 50 01             	lea    0x1(%eax),%edx
   16958:	89 55 f4             	mov    %edx,-0xc(%ebp)
   1695b:	89 ca                	mov    %ecx,%edx
   1695d:	88 10                	mov    %dl,(%eax)
   1695f:	c1 65 0c 03          	shll   $0x3,0xc(%ebp)
   16963:	8b 45 0c             	mov    0xc(%ebp),%eax
   16966:	25 00 00 00 e0       	and    $0xe0000000,%eax
   1696b:	89 45 f0             	mov    %eax,-0x10(%ebp)
   1696e:	c1 7d f0 1d          	sarl   $0x1d,-0x10(%ebp)
   16972:	83 45 fc 01          	addl   $0x1,-0x4(%ebp)
   16976:	83 7d fc 0a          	cmpl   $0xa,-0x4(%ebp)
   1697a:	7e b3                	jle    1692f <cvt_oct+0x2b>
   1697c:	8b 45 f4             	mov    -0xc(%ebp),%eax
   1697f:	c6 00 00             	movb   $0x0,(%eax)
   16982:	8b 55 f4             	mov    -0xc(%ebp),%edx
   16985:	8b 45 08             	mov    0x8(%ebp),%eax
   16988:	29 c2                	sub    %eax,%edx
   1698a:	89 d0                	mov    %edx,%eax
   1698c:	c9                   	leave  
   1698d:	c3                   	ret    

0001698e <report>:
   1698e:	55                   	push   %ebp
   1698f:	89 e5                	mov    %esp,%ebp
   16991:	83 ec 38             	sub    $0x38,%esp
   16994:	8b 55 08             	mov    0x8(%ebp),%edx
   16997:	8b 45 0c             	mov    0xc(%ebp),%eax
   1699a:	88 55 d4             	mov    %dl,-0x2c(%ebp)
   1699d:	66 89 45 d0          	mov    %ax,-0x30(%ebp)
   169a1:	c6 45 e0 20          	movb   $0x20,-0x20(%ebp)
   169a5:	0f b6 45 d4          	movzbl -0x2c(%ebp),%eax
   169a9:	88 45 e1             	mov    %al,-0x1f(%ebp)
   169ac:	c6 45 e2 28          	movb   $0x28,-0x1e(%ebp)
   169b0:	0f bf 55 d0          	movswl -0x30(%ebp),%edx
   169b4:	8d 45 e0             	lea    -0x20(%ebp),%eax
   169b7:	83 c0 03             	add    $0x3,%eax
   169ba:	83 ec 08             	sub    $0x8,%esp
   169bd:	52                   	push   %edx
   169be:	50                   	push   %eax
   169bf:	e8 6a fe ff ff       	call   1682e <cvt_dec>
   169c4:	83 c4 10             	add    $0x10,%esp
   169c7:	89 45 f4             	mov    %eax,-0xc(%ebp)
   169ca:	8b 45 f4             	mov    -0xc(%ebp),%eax
   169cd:	83 c0 03             	add    $0x3,%eax
   169d0:	c6 44 05 e0 29       	movb   $0x29,-0x20(%ebp,%eax,1)
   169d5:	8b 45 f4             	mov    -0xc(%ebp),%eax
   169d8:	83 c0 04             	add    $0x4,%eax
   169db:	c6 44 05 e0 00       	movb   $0x0,-0x20(%ebp,%eax,1)
   169e0:	83 ec 0c             	sub    $0xc,%esp
   169e3:	8d 45 e0             	lea    -0x20(%ebp),%eax
   169e6:	50                   	push   %eax
   169e7:	e8 f7 f8 ff ff       	call   162e3 <cwrites>
   169ec:	83 c4 10             	add    $0x10,%esp
   169ef:	90                   	nop
   169f0:	c9                   	leave  
   169f1:	c3                   	ret    

000169f2 <exit>:
   169f2:	b8 00 00 00 00       	mov    $0x0,%eax
   169f7:	cd 80                	int    $0x80
   169f9:	c3                   	ret    

000169fa <read>:
   169fa:	b8 01 00 00 00       	mov    $0x1,%eax
   169ff:	cd 80                	int    $0x80
   16a01:	c3                   	ret    

00016a02 <write>:
   16a02:	b8 02 00 00 00       	mov    $0x2,%eax
   16a07:	cd 80                	int    $0x80
   16a09:	c3                   	ret    

00016a0a <getpid>:
   16a0a:	b8 03 00 00 00       	mov    $0x3,%eax
   16a0f:	cd 80                	int    $0x80
   16a11:	c3                   	ret    

00016a12 <getppid>:
   16a12:	b8 04 00 00 00       	mov    $0x4,%eax
   16a17:	cd 80                	int    $0x80
   16a19:	c3                   	ret    

00016a1a <gettime>:
   16a1a:	b8 05 00 00 00       	mov    $0x5,%eax
   16a1f:	cd 80                	int    $0x80
   16a21:	c3                   	ret    

00016a22 <getprio>:
   16a22:	b8 06 00 00 00       	mov    $0x6,%eax
   16a27:	cd 80                	int    $0x80
   16a29:	c3                   	ret    

00016a2a <setprio>:
   16a2a:	b8 07 00 00 00       	mov    $0x7,%eax
   16a2f:	cd 80                	int    $0x80
   16a31:	c3                   	ret    

00016a32 <kill>:
   16a32:	b8 08 00 00 00       	mov    $0x8,%eax
   16a37:	cd 80                	int    $0x80
   16a39:	c3                   	ret    

00016a3a <sleep>:
   16a3a:	b8 09 00 00 00       	mov    $0x9,%eax
   16a3f:	cd 80                	int    $0x80
   16a41:	c3                   	ret    

00016a42 <spawn>:
   16a42:	b8 0a 00 00 00       	mov    $0xa,%eax
   16a47:	cd 80                	int    $0x80
   16a49:	c3                   	ret    

00016a4a <wait>:
   16a4a:	b8 0b 00 00 00       	mov    $0xb,%eax
   16a4f:	cd 80                	int    $0x80
   16a51:	c3                   	ret    

00016a52 <bogus>:
   16a52:	b8 ad 0b 00 00       	mov    $0xbad,%eax
   16a57:	cd 80                	int    $0x80
   16a59:	c3                   	ret    

00016a5a <exit_helper>:
   16a5a:	50                   	push   %eax
   16a5b:	e8 92 ff ff ff       	call   169f2 <exit>
